---
triple:          'arm64-apple-darwin'
binary-path:     Main
relocations:
  - { offsetInCU: 0x1941, offset: 0x1941, size: 0x8, addend: 0x0, symName: __ZN3glmplIfLNS_9qualifierE0EEENS_3vecILi3ET_XT0_EEERKS4_S6_, symObjAddr: 0xFCC, symBinAddr: 0x100005500, symSize: 0x70 }
  - { offsetInCU: 0x1991, offset: 0x1991, size: 0x8, addend: 0x0, symName: __ZN3glmmlIfLNS_9qualifierE0EEENS_3vecILi3ET_XT0_EEES3_RKS4_, symObjAddr: 0x103C, symBinAddr: 0x100005570, symSize: 0x64 }
  - { offsetInCU: 0xA1E2, offset: 0xA1E2, size: 0x8, addend: 0x0, symName: __ZNSt3__124__put_character_sequenceB7v160006IcNS_11char_traitsIcEEEERNS_13basic_ostreamIT_T0_EES7_PKS4_m, symObjAddr: 0x28A8, symBinAddr: 0x100006DDC, symSize: 0x1EC }
  - { offsetInCU: 0xD588, offset: 0xD588, size: 0x8, addend: 0x0, symName: __ZNSt3__1lsB7v160006INS_11char_traitsIcEEEERNS_13basic_ostreamIcT_EES6_PKc, symObjAddr: 0x27C, symBinAddr: 0x1000047B0, symSize: 0x48 }
  - { offsetInCU: 0xD5CE, offset: 0xD5CE, size: 0x8, addend: 0x0, symName: __ZNSt3__119__debug_db_insert_cB7v160006INS_6vectorI4LineNS_9allocatorIS2_EEEEEEvPT_, symObjAddr: 0x15B0, symBinAddr: 0x100005AE4, symSize: 0x10 }
  - { offsetInCU: 0xD5FF, offset: 0xD5FF, size: 0x8, addend: 0x0, symName: __ZNSt3__119__debug_db_insert_cB7v160006INS_6vectorIN3glm3vecILi3EfLNS2_9qualifierE0EEENS_9allocatorIS5_EEEEEEvPT_, symObjAddr: 0x171C, symBinAddr: 0x100005C50, symSize: 0x10 }
  - { offsetInCU: 0xD630, offset: 0xD630, size: 0x8, addend: 0x0, symName: __ZNSt3__118__debug_db_erase_cB7v160006INS_6vectorI4LineNS_9allocatorIS2_EEEEEEvPT_, symObjAddr: 0x19FC, symBinAddr: 0x100005F30, symSize: 0x10 }
  - { offsetInCU: 0xD661, offset: 0xD661, size: 0x8, addend: 0x0, symName: __ZNSt3__112__to_addressB7v160006I4LineEEPT_S3_, symObjAddr: 0x1B18, symBinAddr: 0x10000604C, symSize: 0x14 }
  - { offsetInCU: 0xD696, offset: 0xD696, size: 0x8, addend: 0x0, symName: __ZNSt3__118__debug_db_erase_cB7v160006INS_6vectorI6VertexNS_9allocatorIS2_EEEEEEvPT_, symObjAddr: 0x1E9C, symBinAddr: 0x1000063D0, symSize: 0x10 }
  - { offsetInCU: 0xD6C7, offset: 0xD6C7, size: 0x8, addend: 0x0, symName: __ZNSt3__112__to_addressB7v160006I6VertexEEPT_S3_, symObjAddr: 0x1FE0, symBinAddr: 0x100006514, symSize: 0x14 }
  - { offsetInCU: 0xD6FC, offset: 0xD6FC, size: 0x8, addend: 0x0, symName: __ZNSt3__119__libcpp_deallocateB7v160006EPvmm, symObjAddr: 0x2104, symBinAddr: 0x100006638, symSize: 0x60 }
  - { offsetInCU: 0xD761, offset: 0xD761, size: 0x8, addend: 0x0, symName: __ZNSt3__124__is_overaligned_for_newB7v160006Em, symObjAddr: 0x2164, symBinAddr: 0x100006698, symSize: 0x20 }
  - { offsetInCU: 0xD78F, offset: 0xD78F, size: 0x8, addend: 0x0, symName: __ZNSt3__127__do_deallocate_handle_sizeB7v160006IJSt11align_val_tEEEvPvmDpT_, symObjAddr: 0x2184, symBinAddr: 0x1000066B8, symSize: 0x30 }
  - { offsetInCU: 0xD7E2, offset: 0xD7E2, size: 0x8, addend: 0x0, symName: __ZNSt3__127__do_deallocate_handle_sizeB7v160006IJEEEvPvmDpT_, symObjAddr: 0x21B4, symBinAddr: 0x1000066E8, symSize: 0x28 }
  - { offsetInCU: 0xD820, offset: 0xD820, size: 0x8, addend: 0x0, symName: __ZNSt3__124__libcpp_operator_deleteB7v160006IJPvSt11align_val_tEEEvDpT_, symObjAddr: 0x21DC, symBinAddr: 0x100006710, symSize: 0x2C }
  - { offsetInCU: 0xD869, offset: 0xD869, size: 0x8, addend: 0x0, symName: __ZNSt3__124__libcpp_operator_deleteB7v160006IJPvEEEvDpT_, symObjAddr: 0x2208, symBinAddr: 0x10000673C, symSize: 0x24 }
  - { offsetInCU: 0xD89E, offset: 0xD89E, size: 0x8, addend: 0x0, symName: __ZNSt3__118__debug_db_erase_cB7v160006INS_6vectorIN3glm3vecILi3EfLNS2_9qualifierE0EEENS_9allocatorIS5_EEEEEEvPT_, symObjAddr: 0x25A8, symBinAddr: 0x100006ADC, symSize: 0x10 }
  - { offsetInCU: 0xD8CF, offset: 0xD8CF, size: 0x8, addend: 0x0, symName: __ZNSt3__112__to_addressB7v160006IN3glm3vecILi3EfLNS1_9qualifierE0EEEEEPT_S6_, symObjAddr: 0x26EC, symBinAddr: 0x100006C20, symSize: 0x14 }
  - { offsetInCU: 0xD904, offset: 0xD904, size: 0x8, addend: 0x0, symName: __ZNSt3__116__pad_and_outputB7v160006IcNS_11char_traitsIcEEEENS_19ostreambuf_iteratorIT_T0_EES6_PKS4_S8_S8_RNS_8ios_baseES4_, symObjAddr: 0x2AE4, symBinAddr: 0x100007018, symSize: 0x240 }
  - { offsetInCU: 0xD9D3, offset: 0xD9D3, size: 0x8, addend: 0x0, symName: __ZNSt3__119__debug_db_insert_cB7v160006INS_12basic_stringIcNS_11char_traitsIcEENS_9allocatorIcEEEEEEvPT_, symObjAddr: 0x2F98, symBinAddr: 0x1000074CC, symSize: 0x10 }
  - { offsetInCU: 0xDA04, offset: 0xDA04, size: 0x8, addend: 0x0, symName: __ZNSt3__112__to_addressB7v160006IcEEPT_S2_, symObjAddr: 0x3064, symBinAddr: 0x100007598, symSize: 0x14 }
  - { offsetInCU: 0xDA6C, offset: 0xDA6C, size: 0x8, addend: 0x0, symName: __ZNSt3__19use_facetB7v160006INS_5ctypeIcEEEERKT_RKNS_6localeE, symObjAddr: 0x331C, symBinAddr: 0x100007850, symSize: 0x2C }
  - { offsetInCU: 0xDF3B, offset: 0xDF3B, size: 0x8, addend: 0x0, symName: __ZNSt3__118__constexpr_strlenB7v160006EPKc, symObjAddr: 0x33B4, symBinAddr: 0x1000078E8, symSize: 0x24 }
  - { offsetInCU: 0xDF67, offset: 0xDF67, size: 0x8, addend: 0x0, symName: __ZNSt3__13maxB7v160006ImEERKT_S3_S3_, symObjAddr: 0x3990, symBinAddr: 0x100007EC4, symSize: 0x2C }
  - { offsetInCU: 0xDFAA, offset: 0xDFAA, size: 0x8, addend: 0x0, symName: __ZNSt3__13minB7v160006ImEERKT_S3_S3_, symObjAddr: 0x39BC, symBinAddr: 0x100007EF0, symSize: 0x2C }
  - { offsetInCU: 0xE1D7, offset: 0xE1D7, size: 0x8, addend: 0x0, symName: __ZNSt3__13minB7v160006ImNS_6__lessImmEEEERKT_S5_S5_T0_, symObjAddr: 0x3A48, symBinAddr: 0x100007F7C, symSize: 0x54 }
  - { offsetInCU: 0xE26C, offset: 0xE26C, size: 0x8, addend: 0x0, symName: __ZNSt3__120__throw_length_errorB7v160006EPKc, symObjAddr: 0x3B28, symBinAddr: 0x10000805C, symSize: 0x64 }
  - { offsetInCU: 0xE294, offset: 0xE294, size: 0x8, addend: 0x0, symName: __ZNSt3__13maxB7v160006ImNS_6__lessImmEEEERKT_S5_S5_T0_, symObjAddr: 0x3C0C, symBinAddr: 0x100008140, symSize: 0x54 }
  - { offsetInCU: 0xE2EE, offset: 0xE2EE, size: 0x8, addend: 0x0, symName: __ZNSt3__119__allocate_at_leastB7v160006INS_9allocatorIN3glm3vecILi3EfLNS2_9qualifierE0EEEEEEENS_19__allocation_resultINS_16allocator_traitsIT_E7pointerEEERS9_m, symObjAddr: 0x3D7C, symBinAddr: 0x1000082B0, symSize: 0x40 }
  - { offsetInCU: 0xE331, offset: 0xE331, size: 0x8, addend: 0x0, symName: __ZNSt3__117__libcpp_allocateB7v160006Emm, symObjAddr: 0x3F04, symBinAddr: 0x100008438, symSize: 0x60 }
  - { offsetInCU: 0xE38B, offset: 0xE38B, size: 0x8, addend: 0x0, symName: __ZNSt3__121__libcpp_operator_newB7v160006IJmSt11align_val_tEEEPvDpT_, symObjAddr: 0x3F64, symBinAddr: 0x100008498, symSize: 0x2C }
  - { offsetInCU: 0xE3D8, offset: 0xE3D8, size: 0x8, addend: 0x0, symName: __ZNSt3__121__libcpp_operator_newB7v160006IJmEEEPvDpT_, symObjAddr: 0x3F90, symBinAddr: 0x1000084C4, symSize: 0x24 }
  - { offsetInCU: 0xE411, offset: 0xE411, size: 0x8, addend: 0x0, symName: __ZNSt3__142__uninitialized_allocator_move_if_noexceptB7v160006INS_9allocatorIN3glm3vecILi3EfLNS2_9qualifierE0EEEEENS_16reverse_iteratorIPS5_EES9_S5_vEET1_RT_T0_SD_SA_, symObjAddr: 0x4018, symBinAddr: 0x10000854C, symSize: 0x78 }
  - { offsetInCU: 0xE48E, offset: 0xE48E, size: 0x8, addend: 0x0, symName: __ZNSt3__14swapB7v160006IPN3glm3vecILi3EfLNS1_9qualifierE0EEEEENS_9enable_ifIXaasr21is_move_constructibleIT_EE5valuesr18is_move_assignableIS7_EE5valueEvE4typeERS7_SA_, symObjAddr: 0x40DC, symBinAddr: 0x100008610, symSize: 0x3C }
  - { offsetInCU: 0xE4DF, offset: 0xE4DF, size: 0x8, addend: 0x0, symName: __ZNSt3__125__debug_db_invalidate_allB7v160006INS_6vectorIN3glm3vecILi3EfLNS2_9qualifierE0EEENS_9allocatorIS5_EEEEEEvPT_, symObjAddr: 0x41E0, symBinAddr: 0x100008714, symSize: 0x10 }
  - { offsetInCU: 0xE510, offset: 0xE510, size: 0x8, addend: 0x0, symName: __ZNSt3__14moveB7v160006INS_16reverse_iteratorIPN3glm3vecILi3EfLNS2_9qualifierE0EEEEES7_EET0_T_S9_S8_, symObjAddr: 0x41F0, symBinAddr: 0x100008724, symSize: 0x78 }
  - { offsetInCU: 0xE56A, offset: 0xE56A, size: 0x8, addend: 0x0, symName: __ZNSt3__16__moveB7v160006INS_17_ClassicAlgPolicyENS_16reverse_iteratorIPN3glm3vecILi3EfLNS3_9qualifierE0EEEEES8_S8_EENS_4pairIT0_T2_EESA_T1_SB_, symObjAddr: 0x4268, symBinAddr: 0x10000879C, symSize: 0x64 }
  - { offsetInCU: 0xE5D6, offset: 0xE5D6, size: 0x8, addend: 0x0, symName: __ZNSt3__123__dispatch_copy_or_moveB7v160006INS_17_ClassicAlgPolicyENS_11__move_loopIS1_EENS_14__move_trivialENS_16reverse_iteratorIPN3glm3vecILi3EfLNS6_9qualifierE0EEEEESB_SB_EENS_4pairIT2_T4_EESD_T3_SE_, symObjAddr: 0x42CC, symBinAddr: 0x100008800, symSize: 0x64 }
  - { offsetInCU: 0xE654, offset: 0xE654, size: 0x8, addend: 0x0, symName: __ZNSt3__121__unwrap_and_dispatchB7v160006INS_10__overloadINS_11__move_loopINS_17_ClassicAlgPolicyEEENS_14__move_trivialEEENS_16reverse_iteratorIPN3glm3vecILi3EfLNS8_9qualifierE0EEEEESD_SD_Li0EEENS_4pairIT0_T2_EESF_T1_SG_, symObjAddr: 0x4330, symBinAddr: 0x100008864, symSize: 0x12C }
  - { offsetInCU: 0xE6E4, offset: 0xE6E4, size: 0x8, addend: 0x0, symName: __ZNSt3__114__unwrap_rangeB7v160006INS_16reverse_iteratorIPN3glm3vecILi3EfLNS2_9qualifierE0EEEEES7_EENS_4pairIT0_S9_EET_SB_, symObjAddr: 0x445C, symBinAddr: 0x100008990, symSize: 0x84 }
  - { offsetInCU: 0xE85F, offset: 0xE85F, size: 0x8, addend: 0x0, symName: __ZNSt3__113__unwrap_iterB7v160006INS_16reverse_iteratorIPN3glm3vecILi3EfLNS2_9qualifierE0EEEEENS_18__unwrap_iter_implIS7_Lb0EEELi0EEEDTclsrT0_8__unwrapclsr3stdE7declvalIT_EEEESB_, symObjAddr: 0x4588, symBinAddr: 0x100008ABC, symSize: 0x44 }
  - { offsetInCU: 0xE8A3, offset: 0xE8A3, size: 0x8, addend: 0x0, symName: __ZNSt3__19make_pairB7v160006INS_16reverse_iteratorIPN3glm3vecILi3EfLNS2_9qualifierE0EEEEES7_EENS_4pairINS_18__unwrap_ref_decayIT_E4typeENS9_IT0_E4typeEEEOSA_OSD_, symObjAddr: 0x45CC, symBinAddr: 0x100008B00, symSize: 0x38 }
  - { offsetInCU: 0xE8F2, offset: 0xE8F2, size: 0x8, addend: 0x0, symName: __ZNSt3__114__rewrap_rangeB7v160006INS_16reverse_iteratorIPN3glm3vecILi3EfLNS2_9qualifierE0EEEEES7_EET_S8_T0_, symObjAddr: 0x4604, symBinAddr: 0x100008B38, symSize: 0x5C }
  - { offsetInCU: 0xE93E, offset: 0xE93E, size: 0x8, addend: 0x0, symName: __ZNSt3__113__rewrap_iterB7v160006INS_16reverse_iteratorIPN3glm3vecILi3EfLNS2_9qualifierE0EEEEES7_NS_18__unwrap_iter_implIS7_Lb0EEEEET_SA_T0_, symObjAddr: 0x4660, symBinAddr: 0x100008B94, symSize: 0x74 }
  - { offsetInCU: 0xE993, offset: 0xE993, size: 0x8, addend: 0x0, symName: __ZNSt3__1neB7v160006IPN3glm3vecILi3EfLNS1_9qualifierE0EEES5_EEbRKNS_16reverse_iteratorIT_EERKNS6_IT0_EE, symObjAddr: 0x46D4, symBinAddr: 0x100008C08, symSize: 0x48 }
  - { offsetInCU: 0xEA91, offset: 0xEA91, size: 0x8, addend: 0x0, symName: __ZNSt3__119__allocate_at_leastB7v160006INS_9allocatorI4LineEEEENS_19__allocation_resultINS_16allocator_traitsIT_E7pointerEEERS6_m, symObjAddr: 0x5340, symBinAddr: 0x100009874, symSize: 0x40 }
  - { offsetInCU: 0xEAD4, offset: 0xEAD4, size: 0x8, addend: 0x0, symName: __ZNSt3__142__uninitialized_allocator_move_if_noexceptB7v160006INS_9allocatorI4LineEENS_16reverse_iteratorIPS2_EES6_S6_EET2_RT_T0_T1_S7_, symObjAddr: 0x55CC, symBinAddr: 0x100009B00, symSize: 0x12C }
  - { offsetInCU: 0xEB74, offset: 0xEB74, size: 0x8, addend: 0x0, symName: __ZNSt3__14swapB7v160006IP4LineEENS_9enable_ifIXaasr21is_move_constructibleIT_EE5valuesr18is_move_assignableIS4_EE5valueEvE4typeERS4_S7_, symObjAddr: 0x5744, symBinAddr: 0x100009C78, symSize: 0x3C }
  - { offsetInCU: 0xEBC5, offset: 0xEBC5, size: 0x8, addend: 0x0, symName: __ZNSt3__125__debug_db_invalidate_allB7v160006INS_6vectorI4LineNS_9allocatorIS2_EEEEEEvPT_, symObjAddr: 0x5848, symBinAddr: 0x100009D7C, symSize: 0x10 }
  - { offsetInCU: 0xEBF6, offset: 0xEBF6, size: 0x8, addend: 0x0, symName: __ZNSt3__122__make_exception_guardB7v160006INS_29_AllocatorDestroyRangeReverseINS_9allocatorI4LineEENS_16reverse_iteratorIPS3_EEEEEENS_28__exception_guard_exceptionsIT_EESA_, symObjAddr: 0x5858, symBinAddr: 0x100009D8C, symSize: 0x4C }
  - { offsetInCU: 0xEC2C, offset: 0xEC2C, size: 0x8, addend: 0x0, symName: __ZNSt3__1neB7v160006IP4LineS2_EEbRKNS_16reverse_iteratorIT_EERKNS3_IT0_EE, symObjAddr: 0x58E8, symBinAddr: 0x100009E1C, symSize: 0x48 }
  - { offsetInCU: 0xEC78, offset: 0xEC78, size: 0x8, addend: 0x0, symName: __ZNSt3__112__to_addressB7v160006INS_16reverse_iteratorIP4LineEEvEENS_5decayIDTclsr19__to_address_helperIT_EE6__callclsr3stdE7declvalIRKS6_EEEEE4typeES8_, symObjAddr: 0x5964, symBinAddr: 0x100009E98, symSize: 0x24 }
  - { offsetInCU: 0xECAE, offset: 0xECAE, size: 0x8, addend: 0x0, symName: __ZNSt3__119__debug_db_insert_cB7v160006INS_6vectorI6VertexNS_9allocatorIS2_EEEEEEvPT_, symObjAddr: 0x5CBC, symBinAddr: 0x10000A1F0, symSize: 0x10 }
  - { offsetInCU: 0xECDF, offset: 0xECDF, size: 0x8, addend: 0x0, symName: __ZNSt3__115__debug_db_swapB7v160006INS_6vectorI6VertexNS_9allocatorIS2_EEEEEEvPT_S7_, symObjAddr: 0x5CCC, symBinAddr: 0x10000A200, symSize: 0x14 }
  - { offsetInCU: 0xED47, offset: 0xED47, size: 0x8, addend: 0x0, symName: __ZNSt3__119__allocator_destroyB7v160006INS_9allocatorI4LineEENS_16reverse_iteratorINS4_IPS2_EEEES7_EEvRT_T0_T1_, symObjAddr: 0x5F18, symBinAddr: 0x10000A44C, symSize: 0x70 }
  - { offsetInCU: 0xEDAC, offset: 0xEDAC, size: 0x8, addend: 0x0, symName: __ZNSt3__1neB7v160006INS_16reverse_iteratorIP4LineEES4_EEbRKNS1_IT_EERKNS1_IT0_EE, symObjAddr: 0x5FC4, symBinAddr: 0x10000A4F8, symSize: 0x60 }
  - { offsetInCU: 0xEDF8, offset: 0xEDF8, size: 0x8, addend: 0x0, symName: __ZNSt3__112__to_addressB7v160006INS_16reverse_iteratorINS1_IP4LineEEEEvEENS_5decayIDTclsr19__to_address_helperIT_EE6__callclsr3stdE7declvalIRKS7_EEEEE4typeES9_, symObjAddr: 0x6024, symBinAddr: 0x10000A558, symSize: 0x24 }
  - { offsetInCU: 0xEE57, offset: 0xEE57, size: 0x8, addend: 0x0, symName: __ZNSt3__122__make_exception_guardB7v160006INS_6vectorIfNS_9allocatorIfEEE16__destroy_vectorEEENS_28__exception_guard_exceptionsIT_EES7_, symObjAddr: 0x65D0, symBinAddr: 0x10000AB04, symSize: 0x40 }
  - { offsetInCU: 0xEE8C, offset: 0xEE8C, size: 0x8, addend: 0x0, symName: __ZNSt3__119__debug_db_insert_cB7v160006INS_6vectorIfNS_9allocatorIfEEEEEEvPT_, symObjAddr: 0x6644, symBinAddr: 0x10000AB78, symSize: 0x10 }
  - { offsetInCU: 0xEEBD, offset: 0xEEBD, size: 0x8, addend: 0x0, symName: __ZNSt3__119__allocate_at_leastB7v160006INS_9allocatorIfEEEENS_19__allocation_resultINS_16allocator_traitsIT_E7pointerEEERS5_m, symObjAddr: 0x69E0, symBinAddr: 0x10000AF14, symSize: 0x40 }
  - { offsetInCU: 0xEF00, offset: 0xEF00, size: 0x8, addend: 0x0, symName: __ZNSt3__112__to_addressB7v160006IfEEPT_S2_, symObjAddr: 0x6D04, symBinAddr: 0x10000B238, symSize: 0x14 }
  - { offsetInCU: 0xEF35, offset: 0xEF35, size: 0x8, addend: 0x0, symName: __ZNSt3__130__uninitialized_allocator_copyB7v160006INS_9allocatorIfEEffLPv0EEEPT0_RT_PKS4_S9_S5_, symObjAddr: 0x6DB4, symBinAddr: 0x10000B2E8, symSize: 0x38 }
  - { offsetInCU: 0xEFAD, offset: 0xEFAD, size: 0x8, addend: 0x0, symName: __ZNSt3__14copyB7v160006IPKfPfEET0_T_S5_S4_, symObjAddr: 0x6E5C, symBinAddr: 0x10000B390, symSize: 0x40 }
  - { offsetInCU: 0xF007, offset: 0xF007, size: 0x8, addend: 0x0, symName: __ZNSt3__16__copyB7v160006INS_17_ClassicAlgPolicyEPKfS3_PfEENS_4pairIT0_T2_EES6_T1_S7_, symObjAddr: 0x6E9C, symBinAddr: 0x10000B3D0, symSize: 0x44 }
  - { offsetInCU: 0xF073, offset: 0xF073, size: 0x8, addend: 0x0, symName: __ZNSt3__123__dispatch_copy_or_moveB7v160006INS_17_ClassicAlgPolicyENS_11__copy_loopIS1_EENS_14__copy_trivialEPKfS6_PfEENS_4pairIT2_T4_EES9_T3_SA_, symObjAddr: 0x6EE0, symBinAddr: 0x10000B414, symSize: 0x44 }
  - { offsetInCU: 0xF0F1, offset: 0xF0F1, size: 0x8, addend: 0x0, symName: __ZNSt3__121__unwrap_and_dispatchB7v160006INS_10__overloadINS_11__copy_loopINS_17_ClassicAlgPolicyEEENS_14__copy_trivialEEEPKfS8_PfLi0EEENS_4pairIT0_T2_EESB_T1_SC_, symObjAddr: 0x6F24, symBinAddr: 0x10000B458, symSize: 0xB4 }
  - { offsetInCU: 0xF17F, offset: 0xF17F, size: 0x8, addend: 0x0, symName: __ZNSt3__114__unwrap_rangeB7v160006IPKfS2_EENS_4pairIT0_S4_EET_S6_, symObjAddr: 0x6FD8, symBinAddr: 0x10000B50C, symSize: 0x60 }
  - { offsetInCU: 0xF314, offset: 0xF314, size: 0x8, addend: 0x0, symName: __ZNSt3__113__unwrap_iterB7v160006IPfNS_18__unwrap_iter_implIS1_Lb1EEELi0EEEDTclsrT0_8__unwrapclsr3stdE7declvalIT_EEEES5_, symObjAddr: 0x7080, symBinAddr: 0x10000B5B4, symSize: 0x24 }
  - { offsetInCU: 0xF358, offset: 0xF358, size: 0x8, addend: 0x0, symName: __ZNSt3__19make_pairB7v160006IPKfPfEENS_4pairINS_18__unwrap_ref_decayIT_E4typeENS5_IT0_E4typeEEEOS6_OS9_, symObjAddr: 0x70A4, symBinAddr: 0x10000B5D8, symSize: 0x38 }
  - { offsetInCU: 0xF3A7, offset: 0xF3A7, size: 0x8, addend: 0x0, symName: __ZNSt3__114__rewrap_rangeB7v160006IPKfS2_EET_S3_T0_, symObjAddr: 0x70DC, symBinAddr: 0x10000B610, symSize: 0x2C }
  - { offsetInCU: 0xF3F3, offset: 0xF3F3, size: 0x8, addend: 0x0, symName: __ZNSt3__113__rewrap_iterB7v160006IPfS1_NS_18__unwrap_iter_implIS1_Lb1EEEEET_S4_T0_, symObjAddr: 0x7108, symBinAddr: 0x10000B63C, symSize: 0x3C }
  - { offsetInCU: 0xF448, offset: 0xF448, size: 0x8, addend: 0x0, symName: __ZNSt3__19make_pairB7v160006IPKfS2_EENS_4pairINS_18__unwrap_ref_decayIT_E4typeENS4_IT0_E4typeEEEOS5_OS8_, symObjAddr: 0x7144, symBinAddr: 0x10000B678, symSize: 0x38 }
  - { offsetInCU: 0xF497, offset: 0xF497, size: 0x8, addend: 0x0, symName: __ZNSt3__113__unwrap_iterB7v160006IPKfNS_18__unwrap_iter_implIS2_Lb1EEELi0EEEDTclsrT0_8__unwrapclsr3stdE7declvalIT_EEEES6_, symObjAddr: 0x717C, symBinAddr: 0x10000B6B0, symSize: 0x24 }
  - { offsetInCU: 0xF602, offset: 0xF602, size: 0x8, addend: 0x0, symName: __ZNSt3__112__to_addressB7v160006IKfEEPT_S3_, symObjAddr: 0x7234, symBinAddr: 0x10000B768, symSize: 0x14 }
  - { offsetInCU: 0xF637, offset: 0xF637, size: 0x8, addend: 0x0, symName: __ZNSt3__119__copy_trivial_implB7v160006IKffEENS_4pairIPT_PT0_EES4_S4_S6_, symObjAddr: 0x7248, symBinAddr: 0x10000B77C, symSize: 0x84 }
  - { offsetInCU: 0xF69F, offset: 0xF69F, size: 0x8, addend: 0x0, symName: __ZNSt3__19make_pairB7v160006IRPKfPfEENS_4pairINS_18__unwrap_ref_decayIT_E4typeENS6_IT0_E4typeEEEOS7_OSA_, symObjAddr: 0x72CC, symBinAddr: 0x10000B800, symSize: 0x38 }
  - { offsetInCU: 0xF741, offset: 0xF741, size: 0x8, addend: 0x0, symName: __ZNSt3__113__rewrap_iterB7v160006IPKfS2_NS_18__unwrap_iter_implIS2_Lb1EEEEET_S5_T0_, symObjAddr: 0x7408, symBinAddr: 0x10000B93C, symSize: 0x3C }
  - { offsetInCU: 0xF796, offset: 0xF796, size: 0x8, addend: 0x0, symName: __ZNSt3__118__debug_db_erase_cB7v160006INS_6vectorIfNS_9allocatorIfEEEEEEvPT_, symObjAddr: 0x76A8, symBinAddr: 0x10000BBDC, symSize: 0x10 }
  - { offsetInCU: 0xFCB8, offset: 0xFCB8, size: 0x8, addend: 0x0, symName: __ZSt28__throw_bad_array_new_lengthB7v160006v, symObjAddr: 0x3ED0, symBinAddr: 0x100008404, symSize: 0x34 }
  - { offsetInCU: 0x1138E, offset: 0x1138E, size: 0x8, addend: 0x0, symName: __ZNSt3__16vectorIN3glm3vecILi3EfLNS1_9qualifierE0EEENS_9allocatorIS4_EEE26__swap_out_circular_bufferERNS_14__split_bufferIS4_RS6_EE, symObjAddr: 0x37D0, symBinAddr: 0x100007D04, symSize: 0x118 }
  - { offsetInCU: 0x113E5, offset: 0x113E5, size: 0x8, addend: 0x0, symName: __ZNSt3__16vectorI4LineNS_9allocatorIS1_EEE26__swap_out_circular_bufferERNS_14__split_bufferIS1_RS3_EE, symObjAddr: 0x4E68, symBinAddr: 0x10000939C, symSize: 0x118 }
  - { offsetInCU: 0x138B1, offset: 0x138B1, size: 0x8, addend: 0x0, symName: __ZN3BoxC2ERKN3glm3vecILi3EfLNS0_9qualifierE0EEES5_S5_, symObjAddr: 0x0, symBinAddr: 0x100004534, symSize: 0x194 }
  - { offsetInCU: 0x13923, offset: 0x13923, size: 0x8, addend: 0x0, symName: __ZNSt3__16vectorI4LineNS_9allocatorIS1_EEEC1B7v160006Ev, symObjAddr: 0x194, symBinAddr: 0x1000046C8, symSize: 0x2C }
  - { offsetInCU: 0x1394D, offset: 0x1394D, size: 0x8, addend: 0x0, symName: __ZNSt3__16vectorIN3glm3vecILi3EfLNS1_9qualifierE0EEENS_9allocatorIS4_EEEC1B7v160006Ev, symObjAddr: 0x1C0, symBinAddr: 0x1000046F4, symSize: 0x2C }
  - { offsetInCU: 0x13977, offset: 0x13977, size: 0x8, addend: 0x0, symName: __ZN3Box10isValidBoxERKN3glm3vecILi3EfLNS0_9qualifierE0EEES5_, symObjAddr: 0x1EC, symBinAddr: 0x100004720, symSize: 0x90 }
  - { offsetInCU: 0x139BB, offset: 0x139BB, size: 0x8, addend: 0x0, symName: __ZNSt3__16vectorIN3glm3vecILi3EfLNS1_9qualifierE0EEENS_9allocatorIS4_EEE9push_backB7v160006ERKS4_, symObjAddr: 0x2C4, symBinAddr: 0x1000047F8, symSize: 0x6C }
  - { offsetInCU: 0x139F2, offset: 0x139F2, size: 0x8, addend: 0x0, symName: __ZNSt3__16vectorI4LineNS_9allocatorIS1_EEE6resizeEm, symObjAddr: 0x330, symBinAddr: 0x100004864, symSize: 0x9C }
  - { offsetInCU: 0x13A38, offset: 0x13A38, size: 0x8, addend: 0x0, symName: __ZNKSt3__16vectorI4LineNS_9allocatorIS1_EEE4sizeB7v160006Ev, symObjAddr: 0x3CC, symBinAddr: 0x100004900, symSize: 0x28 }
  - { offsetInCU: 0x13A5E, offset: 0x13A5E, size: 0x8, addend: 0x0, symName: __ZNSt3__16vectorI4LineNS_9allocatorIS1_EEEixB7v160006Em, symObjAddr: 0x3F4, symBinAddr: 0x100004928, symSize: 0x2C }
  - { offsetInCU: 0x13A95, offset: 0x13A95, size: 0x8, addend: 0x0, symName: __ZN3Box14CalculateLinesEv, symObjAddr: 0x420, symBinAddr: 0x100004954, symSize: 0x66C }
  - { offsetInCU: 0x13B14, offset: 0x13B14, size: 0x8, addend: 0x0, symName: __ZNSt3__16vectorIN3glm3vecILi3EfLNS1_9qualifierE0EEENS_9allocatorIS4_EEED1B7v160006Ev, symObjAddr: 0xA8C, symBinAddr: 0x100004FC0, symSize: 0x2C }
  - { offsetInCU: 0x13B3E, offset: 0x13B3E, size: 0x8, addend: 0x0, symName: __ZNSt3__16vectorI4LineNS_9allocatorIS1_EEED1B7v160006Ev, symObjAddr: 0xAB8, symBinAddr: 0x100004FEC, symSize: 0x2C }
  - { offsetInCU: 0x13B68, offset: 0x13B68, size: 0x8, addend: 0x0, symName: __ZN3BoxC1ERKN3glm3vecILi3EfLNS0_9qualifierE0EEES5_S5_, symObjAddr: 0xAE4, symBinAddr: 0x100005018, symSize: 0x44 }
  - { offsetInCU: 0x13BBE, offset: 0x13BBE, size: 0x8, addend: 0x0, symName: __ZN3Box13IntersectsRayERKN3glm3vecILi3EfLNS0_9qualifierE0EEES5_ffRS3_S6_, symObjAddr: 0xB28, symBinAddr: 0x10000505C, symSize: 0x434 }
  - { offsetInCU: 0x13CB2, offset: 0x13CB2, size: 0x8, addend: 0x0, symName: __ZN3glm3vecILi3EfLNS_9qualifierE0EEC1Efff, symObjAddr: 0xF5C, symBinAddr: 0x100005490, symSize: 0x44 }
  - { offsetInCU: 0x13D08, offset: 0x13D08, size: 0x8, addend: 0x0, symName: __ZNSt3__16vectorIN3glm3vecILi3EfLNS1_9qualifierE0EEENS_9allocatorIS4_EEEixB7v160006Em, symObjAddr: 0xFA0, symBinAddr: 0x1000054D4, symSize: 0x2C }
  - { offsetInCU: 0x13D3F, offset: 0x13D3F, size: 0x8, addend: 0x0, symName: __ZN3Box14GetLongestAxisEv, symObjAddr: 0x10A0, symBinAddr: 0x1000055D4, symSize: 0x178 }
  - { offsetInCU: 0x13DAF, offset: 0x13DAF, size: 0x8, addend: 0x0, symName: __ZN3Box13DrawWireFrameER6ShaderR6Camera, symObjAddr: 0x1218, symBinAddr: 0x10000574C, symSize: 0x84 }
  - { offsetInCU: 0x13E0F, offset: 0x13E0F, size: 0x8, addend: 0x0, symName: __ZNSt3__16vectorIfNS_9allocatorIfEEEC1B7v160006ESt16initializer_listIfE, symObjAddr: 0x129C, symBinAddr: 0x1000057D0, symSize: 0x3C }
  - { offsetInCU: 0x13E4A, offset: 0x13E4A, size: 0x8, addend: 0x0, symName: __ZNSt3__16vectorIfNS_9allocatorIfEEEixB7v160006Em, symObjAddr: 0x12D8, symBinAddr: 0x10000580C, symSize: 0x24 }
  - { offsetInCU: 0x13E81, offset: 0x13E81, size: 0x8, addend: 0x0, symName: __ZNKSt3__16vectorIfNS_9allocatorIfEEE4sizeB7v160006Ev, symObjAddr: 0x12FC, symBinAddr: 0x100005830, symSize: 0x28 }
  - { offsetInCU: 0x13EA7, offset: 0x13EA7, size: 0x8, addend: 0x0, symName: __ZNSt3__16vectorIfNS_9allocatorIfEEED1B7v160006Ev, symObjAddr: 0x1324, symBinAddr: 0x100005858, symSize: 0x2C }
  - { offsetInCU: 0x13ED1, offset: 0x13ED1, size: 0x8, addend: 0x0, symName: __ZN3Box17GetLongestAxisMidEv, symObjAddr: 0x1350, symBinAddr: 0x100005884, symSize: 0x100 }
  - { offsetInCU: 0x13EF9, offset: 0x13EF9, size: 0x8, addend: 0x0, symName: __ZN3glm3vecILi3EfLNS_9qualifierE0EEC1IiiiEET_T0_T1_, symObjAddr: 0x1450, symBinAddr: 0x100005984, symSize: 0x44 }
  - { offsetInCU: 0x13F6A, offset: 0x13F6A, size: 0x8, addend: 0x0, symName: __ZN3glm3vecILi3EfLNS_9qualifierE0EEC2Efff, symObjAddr: 0x1494, symBinAddr: 0x1000059C8, symSize: 0x38 }
  - { offsetInCU: 0x13FC0, offset: 0x13FC0, size: 0x8, addend: 0x0, symName: __ZN3glm3vecILi3EfLNS_9qualifierE0EEC2IiiiEET_T0_T1_, symObjAddr: 0x14CC, symBinAddr: 0x100005A00, symSize: 0x44 }
  - { offsetInCU: 0x14031, offset: 0x14031, size: 0x8, addend: 0x0, symName: __ZNSt3__16vectorI4LineNS_9allocatorIS1_EEEC2B7v160006Ev, symObjAddr: 0x1510, symBinAddr: 0x100005A44, symSize: 0x58 }
  - { offsetInCU: 0x14065, offset: 0x14065, size: 0x8, addend: 0x0, symName: __ZNSt3__117__compressed_pairIP4LineNS_9allocatorIS1_EEEC1B7v160006IDnNS_18__default_init_tagEEEOT_OT0_, symObjAddr: 0x1568, symBinAddr: 0x100005A9C, symSize: 0x3C }
  - { offsetInCU: 0x140BD, offset: 0x140BD, size: 0x8, addend: 0x0, symName: __ZNSt3__117__compressed_pairIP4LineNS_9allocatorIS1_EEEC2B7v160006IDnNS_18__default_init_tagEEEOT_OT0_, symObjAddr: 0x15C0, symBinAddr: 0x100005AF4, symSize: 0x40 }
  - { offsetInCU: 0x14115, offset: 0x14115, size: 0x8, addend: 0x0, symName: __ZNSt3__122__compressed_pair_elemIP4LineLi0ELb0EEC2B7v160006IDnvEEOT_, symObjAddr: 0x1600, symBinAddr: 0x100005B34, symSize: 0x1C }
  - { offsetInCU: 0x14157, offset: 0x14157, size: 0x8, addend: 0x0, symName: __ZNSt3__122__compressed_pair_elemINS_9allocatorI4LineEELi1ELb1EEC2B7v160006ENS_18__default_init_tagE, symObjAddr: 0x161C, symBinAddr: 0x100005B50, symSize: 0x2C }
  - { offsetInCU: 0x1418C, offset: 0x1418C, size: 0x8, addend: 0x0, symName: __ZNSt3__19allocatorI4LineEC2B7v160006Ev, symObjAddr: 0x1648, symBinAddr: 0x100005B7C, symSize: 0x2C }
  - { offsetInCU: 0x141B6, offset: 0x141B6, size: 0x8, addend: 0x0, symName: __ZNSt3__116__non_trivial_ifILb1ENS_9allocatorI4LineEEEC2B7v160006Ev, symObjAddr: 0x1674, symBinAddr: 0x100005BA8, symSize: 0x14 }
  - { offsetInCU: 0x141E0, offset: 0x141E0, size: 0x8, addend: 0x0, symName: __ZNSt3__16vectorIN3glm3vecILi3EfLNS1_9qualifierE0EEENS_9allocatorIS4_EEEC2B7v160006Ev, symObjAddr: 0x1688, symBinAddr: 0x100005BBC, symSize: 0x58 }
  - { offsetInCU: 0x1420A, offset: 0x1420A, size: 0x8, addend: 0x0, symName: __ZNSt3__117__compressed_pairIPN3glm3vecILi3EfLNS1_9qualifierE0EEENS_9allocatorIS4_EEEC1B7v160006IDnNS_18__default_init_tagEEEOT_OT0_, symObjAddr: 0x16E0, symBinAddr: 0x100005C14, symSize: 0x3C }
  - { offsetInCU: 0x14262, offset: 0x14262, size: 0x8, addend: 0x0, symName: __ZNSt3__117__compressed_pairIPN3glm3vecILi3EfLNS1_9qualifierE0EEENS_9allocatorIS4_EEEC2B7v160006IDnNS_18__default_init_tagEEEOT_OT0_, symObjAddr: 0x172C, symBinAddr: 0x100005C60, symSize: 0x40 }
  - { offsetInCU: 0x142BA, offset: 0x142BA, size: 0x8, addend: 0x0, symName: __ZNSt3__122__compressed_pair_elemIPN3glm3vecILi3EfLNS1_9qualifierE0EEELi0ELb0EEC2B7v160006IDnvEEOT_, symObjAddr: 0x176C, symBinAddr: 0x100005CA0, symSize: 0x1C }
  - { offsetInCU: 0x142FC, offset: 0x142FC, size: 0x8, addend: 0x0, symName: __ZNSt3__122__compressed_pair_elemINS_9allocatorIN3glm3vecILi3EfLNS2_9qualifierE0EEEEELi1ELb1EEC2B7v160006ENS_18__default_init_tagE, symObjAddr: 0x1788, symBinAddr: 0x100005CBC, symSize: 0x2C }
  - { offsetInCU: 0x14331, offset: 0x14331, size: 0x8, addend: 0x0, symName: __ZNSt3__19allocatorIN3glm3vecILi3EfLNS1_9qualifierE0EEEEC2B7v160006Ev, symObjAddr: 0x17B4, symBinAddr: 0x100005CE8, symSize: 0x2C }
  - { offsetInCU: 0x1435B, offset: 0x1435B, size: 0x8, addend: 0x0, symName: __ZNSt3__116__non_trivial_ifILb1ENS_9allocatorIN3glm3vecILi3EfLNS2_9qualifierE0EEEEEEC2B7v160006Ev, symObjAddr: 0x17E0, symBinAddr: 0x100005D14, symSize: 0x14 }
  - { offsetInCU: 0x14385, offset: 0x14385, size: 0x8, addend: 0x0, symName: __ZNSt3__16vectorI4LineNS_9allocatorIS1_EEED2B7v160006Ev, symObjAddr: 0x17F4, symBinAddr: 0x100005D28, symSize: 0x44 }
  - { offsetInCU: 0x143AF, offset: 0x143AF, size: 0x8, addend: 0x0, symName: __ZNSt3__16vectorI4LineNS_9allocatorIS1_EEE16__destroy_vectorC1ERS4_, symObjAddr: 0x1838, symBinAddr: 0x100005D6C, symSize: 0x34 }
  - { offsetInCU: 0x143E8, offset: 0x143E8, size: 0x8, addend: 0x0, symName: __ZNSt3__16vectorI4LineNS_9allocatorIS1_EEE16__destroy_vectorclB7v160006Ev, symObjAddr: 0x186C, symBinAddr: 0x100005DA0, symSize: 0x9C }
  - { offsetInCU: 0x1440E, offset: 0x1440E, size: 0x8, addend: 0x0, symName: __ZNSt3__16vectorI4LineNS_9allocatorIS1_EEE16__destroy_vectorC2ERS4_, symObjAddr: 0x1908, symBinAddr: 0x100005E3C, symSize: 0x20 }
  - { offsetInCU: 0x14447, offset: 0x14447, size: 0x8, addend: 0x0, symName: __ZNKSt3__16vectorI4LineNS_9allocatorIS1_EEE17__annotate_deleteB7v160006Ev, symObjAddr: 0x1928, symBinAddr: 0x100005E5C, symSize: 0xD4 }
  - { offsetInCU: 0x1446D, offset: 0x1446D, size: 0x8, addend: 0x0, symName: __ZNSt3__16vectorI4LineNS_9allocatorIS1_EEE7__clearB7v160006Ev, symObjAddr: 0x1A0C, symBinAddr: 0x100005F40, symSize: 0x28 }
  - { offsetInCU: 0x14493, offset: 0x14493, size: 0x8, addend: 0x0, symName: __ZNSt3__116allocator_traitsINS_9allocatorI4LineEEE10deallocateB7v160006ERS3_PS2_m, symObjAddr: 0x1A34, symBinAddr: 0x100005F68, symSize: 0x34 }
  - { offsetInCU: 0x144D5, offset: 0x144D5, size: 0x8, addend: 0x0, symName: __ZNSt3__16vectorI4LineNS_9allocatorIS1_EEE7__allocB7v160006Ev, symObjAddr: 0x1A68, symBinAddr: 0x100005F9C, symSize: 0x28 }
  - { offsetInCU: 0x144FB, offset: 0x144FB, size: 0x8, addend: 0x0, symName: __ZNKSt3__16vectorI4LineNS_9allocatorIS1_EEE8capacityB7v160006Ev, symObjAddr: 0x1A90, symBinAddr: 0x100005FC4, symSize: 0x40 }
  - { offsetInCU: 0x14521, offset: 0x14521, size: 0x8, addend: 0x0, symName: __ZNKSt3__16vectorI4LineNS_9allocatorIS1_EEE31__annotate_contiguous_containerB7v160006EPKvS6_S6_S6_, symObjAddr: 0x1AD0, symBinAddr: 0x100006004, symSize: 0x20 }
  - { offsetInCU: 0x14573, offset: 0x14573, size: 0x8, addend: 0x0, symName: __ZNKSt3__16vectorI4LineNS_9allocatorIS1_EEE4dataB7v160006Ev, symObjAddr: 0x1AF0, symBinAddr: 0x100006024, symSize: 0x28 }
  - { offsetInCU: 0x14599, offset: 0x14599, size: 0x8, addend: 0x0, symName: __ZNSt3__16vectorI4LineNS_9allocatorIS1_EEE22__base_destruct_at_endB7v160006EPS1_, symObjAddr: 0x1B2C, symBinAddr: 0x100006060, symSize: 0x8C }
  - { offsetInCU: 0x145DD, offset: 0x145DD, size: 0x8, addend: 0x0, symName: __ZNSt3__116allocator_traitsINS_9allocatorI4LineEEE7destroyB7v160006IS2_vEEvRS3_PT_, symObjAddr: 0x1BB8, symBinAddr: 0x1000060EC, symSize: 0x2C }
  - { offsetInCU: 0x1461A, offset: 0x1461A, size: 0x8, addend: 0x0, symName: __ZNSt3__19allocatorI4LineE7destroyB7v160006EPS1_, symObjAddr: 0x1BE4, symBinAddr: 0x100006118, symSize: 0x28 }
  - { offsetInCU: 0x1464E, offset: 0x1464E, size: 0x8, addend: 0x0, symName: __ZN4LineD1Ev, symObjAddr: 0x1C0C, symBinAddr: 0x100006140, symSize: 0x2C }
  - { offsetInCU: 0x1467A, offset: 0x1467A, size: 0x8, addend: 0x0, symName: __ZN4LineD2Ev, symObjAddr: 0x1C38, symBinAddr: 0x10000616C, symSize: 0x30 }
  - { offsetInCU: 0x146A6, offset: 0x146A6, size: 0x8, addend: 0x0, symName: __ZNSt3__16vectorI6VertexNS_9allocatorIS1_EEED1B7v160006Ev, symObjAddr: 0x1C68, symBinAddr: 0x10000619C, symSize: 0x2C }
  - { offsetInCU: 0x146D0, offset: 0x146D0, size: 0x8, addend: 0x0, symName: __ZNSt3__16vectorI6VertexNS_9allocatorIS1_EEED2B7v160006Ev, symObjAddr: 0x1C94, symBinAddr: 0x1000061C8, symSize: 0x44 }
  - { offsetInCU: 0x146FA, offset: 0x146FA, size: 0x8, addend: 0x0, symName: __ZNSt3__16vectorI6VertexNS_9allocatorIS1_EEE16__destroy_vectorC1ERS4_, symObjAddr: 0x1CD8, symBinAddr: 0x10000620C, symSize: 0x34 }
  - { offsetInCU: 0x14733, offset: 0x14733, size: 0x8, addend: 0x0, symName: __ZNSt3__16vectorI6VertexNS_9allocatorIS1_EEE16__destroy_vectorclB7v160006Ev, symObjAddr: 0x1D0C, symBinAddr: 0x100006240, symSize: 0x9C }
  - { offsetInCU: 0x14759, offset: 0x14759, size: 0x8, addend: 0x0, symName: __ZNSt3__16vectorI6VertexNS_9allocatorIS1_EEE16__destroy_vectorC2ERS4_, symObjAddr: 0x1DA8, symBinAddr: 0x1000062DC, symSize: 0x20 }
  - { offsetInCU: 0x14792, offset: 0x14792, size: 0x8, addend: 0x0, symName: __ZNKSt3__16vectorI6VertexNS_9allocatorIS1_EEE17__annotate_deleteB7v160006Ev, symObjAddr: 0x1DC8, symBinAddr: 0x1000062FC, symSize: 0xD4 }
  - { offsetInCU: 0x147B8, offset: 0x147B8, size: 0x8, addend: 0x0, symName: __ZNSt3__16vectorI6VertexNS_9allocatorIS1_EEE7__clearB7v160006Ev, symObjAddr: 0x1EAC, symBinAddr: 0x1000063E0, symSize: 0x28 }
  - { offsetInCU: 0x147DE, offset: 0x147DE, size: 0x8, addend: 0x0, symName: __ZNSt3__116allocator_traitsINS_9allocatorI6VertexEEE10deallocateB7v160006ERS3_PS2_m, symObjAddr: 0x1ED4, symBinAddr: 0x100006408, symSize: 0x34 }
  - { offsetInCU: 0x14820, offset: 0x14820, size: 0x8, addend: 0x0, symName: __ZNSt3__16vectorI6VertexNS_9allocatorIS1_EEE7__allocB7v160006Ev, symObjAddr: 0x1F08, symBinAddr: 0x10000643C, symSize: 0x28 }
  - { offsetInCU: 0x14846, offset: 0x14846, size: 0x8, addend: 0x0, symName: __ZNKSt3__16vectorI6VertexNS_9allocatorIS1_EEE8capacityB7v160006Ev, symObjAddr: 0x1F30, symBinAddr: 0x100006464, symSize: 0x40 }
  - { offsetInCU: 0x1486C, offset: 0x1486C, size: 0x8, addend: 0x0, symName: __ZNKSt3__16vectorI6VertexNS_9allocatorIS1_EEE31__annotate_contiguous_containerB7v160006EPKvS6_S6_S6_, symObjAddr: 0x1F70, symBinAddr: 0x1000064A4, symSize: 0x20 }
  - { offsetInCU: 0x148BE, offset: 0x148BE, size: 0x8, addend: 0x0, symName: __ZNKSt3__16vectorI6VertexNS_9allocatorIS1_EEE4dataB7v160006Ev, symObjAddr: 0x1F90, symBinAddr: 0x1000064C4, symSize: 0x28 }
  - { offsetInCU: 0x148E4, offset: 0x148E4, size: 0x8, addend: 0x0, symName: __ZNKSt3__16vectorI6VertexNS_9allocatorIS1_EEE4sizeB7v160006Ev, symObjAddr: 0x1FB8, symBinAddr: 0x1000064EC, symSize: 0x28 }
  - { offsetInCU: 0x1490A, offset: 0x1490A, size: 0x8, addend: 0x0, symName: __ZNSt3__16vectorI6VertexNS_9allocatorIS1_EEE22__base_destruct_at_endB7v160006EPS1_, symObjAddr: 0x1FF4, symBinAddr: 0x100006528, symSize: 0x8C }
  - { offsetInCU: 0x1494E, offset: 0x1494E, size: 0x8, addend: 0x0, symName: __ZNSt3__116allocator_traitsINS_9allocatorI6VertexEEE7destroyB7v160006IS2_vEEvRS3_PT_, symObjAddr: 0x2080, symBinAddr: 0x1000065B4, symSize: 0x2C }
  - { offsetInCU: 0x1498B, offset: 0x1498B, size: 0x8, addend: 0x0, symName: __ZNSt3__19allocatorI6VertexE7destroyB7v160006EPS1_, symObjAddr: 0x20AC, symBinAddr: 0x1000065E0, symSize: 0x14 }
  - { offsetInCU: 0x149BF, offset: 0x149BF, size: 0x8, addend: 0x0, symName: __ZNSt3__19allocatorI6VertexE10deallocateB7v160006EPS1_m, symObjAddr: 0x20C0, symBinAddr: 0x1000065F4, symSize: 0x44 }
  - { offsetInCU: 0x14A01, offset: 0x14A01, size: 0x8, addend: 0x0, symName: __ZNSt3__117__compressed_pairIP6VertexNS_9allocatorIS1_EEE6secondB7v160006Ev, symObjAddr: 0x222C, symBinAddr: 0x100006760, symSize: 0x24 }
  - { offsetInCU: 0x14A27, offset: 0x14A27, size: 0x8, addend: 0x0, symName: __ZNSt3__122__compressed_pair_elemINS_9allocatorI6VertexEELi1ELb1EE5__getB7v160006Ev, symObjAddr: 0x2250, symBinAddr: 0x100006784, symSize: 0x14 }
  - { offsetInCU: 0x14A4D, offset: 0x14A4D, size: 0x8, addend: 0x0, symName: __ZNKSt3__16vectorI6VertexNS_9allocatorIS1_EEE9__end_capB7v160006Ev, symObjAddr: 0x2264, symBinAddr: 0x100006798, symSize: 0x28 }
  - { offsetInCU: 0x14A73, offset: 0x14A73, size: 0x8, addend: 0x0, symName: __ZNKSt3__117__compressed_pairIP6VertexNS_9allocatorIS1_EEE5firstB7v160006Ev, symObjAddr: 0x228C, symBinAddr: 0x1000067C0, symSize: 0x24 }
  - { offsetInCU: 0x14A99, offset: 0x14A99, size: 0x8, addend: 0x0, symName: __ZNKSt3__122__compressed_pair_elemIP6VertexLi0ELb0EE5__getB7v160006Ev, symObjAddr: 0x22B0, symBinAddr: 0x1000067E4, symSize: 0x14 }
  - { offsetInCU: 0x14ABF, offset: 0x14ABF, size: 0x8, addend: 0x0, symName: __ZNSt3__19allocatorI4LineE10deallocateB7v160006EPS1_m, symObjAddr: 0x22C4, symBinAddr: 0x1000067F8, symSize: 0x44 }
  - { offsetInCU: 0x14B01, offset: 0x14B01, size: 0x8, addend: 0x0, symName: __ZNSt3__117__compressed_pairIP4LineNS_9allocatorIS1_EEE6secondB7v160006Ev, symObjAddr: 0x2308, symBinAddr: 0x10000683C, symSize: 0x24 }
  - { offsetInCU: 0x14B27, offset: 0x14B27, size: 0x8, addend: 0x0, symName: __ZNSt3__122__compressed_pair_elemINS_9allocatorI4LineEELi1ELb1EE5__getB7v160006Ev, symObjAddr: 0x232C, symBinAddr: 0x100006860, symSize: 0x14 }
  - { offsetInCU: 0x14B4D, offset: 0x14B4D, size: 0x8, addend: 0x0, symName: __ZNKSt3__16vectorI4LineNS_9allocatorIS1_EEE9__end_capB7v160006Ev, symObjAddr: 0x2340, symBinAddr: 0x100006874, symSize: 0x28 }
  - { offsetInCU: 0x14B73, offset: 0x14B73, size: 0x8, addend: 0x0, symName: __ZNKSt3__117__compressed_pairIP4LineNS_9allocatorIS1_EEE5firstB7v160006Ev, symObjAddr: 0x2368, symBinAddr: 0x10000689C, symSize: 0x24 }
  - { offsetInCU: 0x14B99, offset: 0x14B99, size: 0x8, addend: 0x0, symName: __ZNKSt3__122__compressed_pair_elemIP4LineLi0ELb0EE5__getB7v160006Ev, symObjAddr: 0x238C, symBinAddr: 0x1000068C0, symSize: 0x14 }
  - { offsetInCU: 0x14BBF, offset: 0x14BBF, size: 0x8, addend: 0x0, symName: __ZNSt3__16vectorIN3glm3vecILi3EfLNS1_9qualifierE0EEENS_9allocatorIS4_EEED2B7v160006Ev, symObjAddr: 0x23A0, symBinAddr: 0x1000068D4, symSize: 0x44 }
  - { offsetInCU: 0x14BE9, offset: 0x14BE9, size: 0x8, addend: 0x0, symName: __ZNSt3__16vectorIN3glm3vecILi3EfLNS1_9qualifierE0EEENS_9allocatorIS4_EEE16__destroy_vectorC1ERS7_, symObjAddr: 0x23E4, symBinAddr: 0x100006918, symSize: 0x34 }
  - { offsetInCU: 0x14C22, offset: 0x14C22, size: 0x8, addend: 0x0, symName: __ZNSt3__16vectorIN3glm3vecILi3EfLNS1_9qualifierE0EEENS_9allocatorIS4_EEE16__destroy_vectorclB7v160006Ev, symObjAddr: 0x2418, symBinAddr: 0x10000694C, symSize: 0x9C }
  - { offsetInCU: 0x14C48, offset: 0x14C48, size: 0x8, addend: 0x0, symName: __ZNSt3__16vectorIN3glm3vecILi3EfLNS1_9qualifierE0EEENS_9allocatorIS4_EEE16__destroy_vectorC2ERS7_, symObjAddr: 0x24B4, symBinAddr: 0x1000069E8, symSize: 0x20 }
  - { offsetInCU: 0x14C81, offset: 0x14C81, size: 0x8, addend: 0x0, symName: __ZNKSt3__16vectorIN3glm3vecILi3EfLNS1_9qualifierE0EEENS_9allocatorIS4_EEE17__annotate_deleteB7v160006Ev, symObjAddr: 0x24D4, symBinAddr: 0x100006A08, symSize: 0xD4 }
  - { offsetInCU: 0x14CA7, offset: 0x14CA7, size: 0x8, addend: 0x0, symName: __ZNSt3__16vectorIN3glm3vecILi3EfLNS1_9qualifierE0EEENS_9allocatorIS4_EEE7__clearB7v160006Ev, symObjAddr: 0x25B8, symBinAddr: 0x100006AEC, symSize: 0x28 }
  - { offsetInCU: 0x14CCD, offset: 0x14CCD, size: 0x8, addend: 0x0, symName: __ZNSt3__116allocator_traitsINS_9allocatorIN3glm3vecILi3EfLNS2_9qualifierE0EEEEEE10deallocateB7v160006ERS6_PS5_m, symObjAddr: 0x25E0, symBinAddr: 0x100006B14, symSize: 0x34 }
  - { offsetInCU: 0x14D0F, offset: 0x14D0F, size: 0x8, addend: 0x0, symName: __ZNSt3__16vectorIN3glm3vecILi3EfLNS1_9qualifierE0EEENS_9allocatorIS4_EEE7__allocB7v160006Ev, symObjAddr: 0x2614, symBinAddr: 0x100006B48, symSize: 0x28 }
  - { offsetInCU: 0x14D35, offset: 0x14D35, size: 0x8, addend: 0x0, symName: __ZNKSt3__16vectorIN3glm3vecILi3EfLNS1_9qualifierE0EEENS_9allocatorIS4_EEE8capacityB7v160006Ev, symObjAddr: 0x263C, symBinAddr: 0x100006B70, symSize: 0x40 }
  - { offsetInCU: 0x14D5B, offset: 0x14D5B, size: 0x8, addend: 0x0, symName: __ZNKSt3__16vectorIN3glm3vecILi3EfLNS1_9qualifierE0EEENS_9allocatorIS4_EEE31__annotate_contiguous_containerB7v160006EPKvS9_S9_S9_, symObjAddr: 0x267C, symBinAddr: 0x100006BB0, symSize: 0x20 }
  - { offsetInCU: 0x14DAD, offset: 0x14DAD, size: 0x8, addend: 0x0, symName: __ZNKSt3__16vectorIN3glm3vecILi3EfLNS1_9qualifierE0EEENS_9allocatorIS4_EEE4dataB7v160006Ev, symObjAddr: 0x269C, symBinAddr: 0x100006BD0, symSize: 0x28 }
  - { offsetInCU: 0x14DD3, offset: 0x14DD3, size: 0x8, addend: 0x0, symName: __ZNKSt3__16vectorIN3glm3vecILi3EfLNS1_9qualifierE0EEENS_9allocatorIS4_EEE4sizeB7v160006Ev, symObjAddr: 0x26C4, symBinAddr: 0x100006BF8, symSize: 0x28 }
  - { offsetInCU: 0x14DF9, offset: 0x14DF9, size: 0x8, addend: 0x0, symName: __ZNSt3__16vectorIN3glm3vecILi3EfLNS1_9qualifierE0EEENS_9allocatorIS4_EEE22__base_destruct_at_endB7v160006EPS4_, symObjAddr: 0x2700, symBinAddr: 0x100006C34, symSize: 0x8C }
  - { offsetInCU: 0x14E3D, offset: 0x14E3D, size: 0x8, addend: 0x0, symName: __ZNSt3__116allocator_traitsINS_9allocatorIN3glm3vecILi3EfLNS2_9qualifierE0EEEEEE7destroyB7v160006IS5_vEEvRS6_PT_, symObjAddr: 0x278C, symBinAddr: 0x100006CC0, symSize: 0x2C }
  - { offsetInCU: 0x14E7A, offset: 0x14E7A, size: 0x8, addend: 0x0, symName: __ZNSt3__19allocatorIN3glm3vecILi3EfLNS1_9qualifierE0EEEE7destroyB7v160006EPS4_, symObjAddr: 0x27B8, symBinAddr: 0x100006CEC, symSize: 0x14 }
  - { offsetInCU: 0x14EAE, offset: 0x14EAE, size: 0x8, addend: 0x0, symName: __ZNSt3__19allocatorIN3glm3vecILi3EfLNS1_9qualifierE0EEEE10deallocateB7v160006EPS4_m, symObjAddr: 0x27CC, symBinAddr: 0x100006D00, symSize: 0x44 }
  - { offsetInCU: 0x14EF0, offset: 0x14EF0, size: 0x8, addend: 0x0, symName: __ZNSt3__117__compressed_pairIPN3glm3vecILi3EfLNS1_9qualifierE0EEENS_9allocatorIS4_EEE6secondB7v160006Ev, symObjAddr: 0x2810, symBinAddr: 0x100006D44, symSize: 0x24 }
  - { offsetInCU: 0x14F16, offset: 0x14F16, size: 0x8, addend: 0x0, symName: __ZNSt3__122__compressed_pair_elemINS_9allocatorIN3glm3vecILi3EfLNS2_9qualifierE0EEEEELi1ELb1EE5__getB7v160006Ev, symObjAddr: 0x2834, symBinAddr: 0x100006D68, symSize: 0x14 }
  - { offsetInCU: 0x14F3C, offset: 0x14F3C, size: 0x8, addend: 0x0, symName: __ZNKSt3__16vectorIN3glm3vecILi3EfLNS1_9qualifierE0EEENS_9allocatorIS4_EEE9__end_capB7v160006Ev, symObjAddr: 0x2848, symBinAddr: 0x100006D7C, symSize: 0x28 }
  - { offsetInCU: 0x14F62, offset: 0x14F62, size: 0x8, addend: 0x0, symName: __ZNKSt3__117__compressed_pairIPN3glm3vecILi3EfLNS1_9qualifierE0EEENS_9allocatorIS4_EEE5firstB7v160006Ev, symObjAddr: 0x2870, symBinAddr: 0x100006DA4, symSize: 0x24 }
  - { offsetInCU: 0x14F88, offset: 0x14F88, size: 0x8, addend: 0x0, symName: __ZNKSt3__122__compressed_pair_elemIPN3glm3vecILi3EfLNS1_9qualifierE0EEELi0ELb0EE5__getB7v160006Ev, symObjAddr: 0x2894, symBinAddr: 0x100006DC8, symSize: 0x14 }
  - { offsetInCU: 0x14FAE, offset: 0x14FAE, size: 0x8, addend: 0x0, symName: __ZNSt3__111char_traitsIcE6lengthEPKc, symObjAddr: 0x2A94, symBinAddr: 0x100006FC8, symSize: 0x34 }
  - { offsetInCU: 0x14FEF, offset: 0x14FEF, size: 0x8, addend: 0x0, symName: __ZNKSt3__113basic_ostreamIcNS_11char_traitsIcEEE6sentrycvbB7v160006Ev, symObjAddr: 0x2AC8, symBinAddr: 0x100006FFC, symSize: 0x1C }
  - { offsetInCU: 0x15015, offset: 0x15015, size: 0x8, addend: 0x0, symName: __ZNSt3__119ostreambuf_iteratorIcNS_11char_traitsIcEEEC1B7v160006ERNS_13basic_ostreamIcS2_EE, symObjAddr: 0x2D24, symBinAddr: 0x100007258, symSize: 0x34 }
  - { offsetInCU: 0x1504D, offset: 0x1504D, size: 0x8, addend: 0x0, symName: __ZNKSt3__18ios_base5flagsB7v160006Ev, symObjAddr: 0x2D58, symBinAddr: 0x10000728C, symSize: 0x18 }
  - { offsetInCU: 0x15075, offset: 0x15075, size: 0x8, addend: 0x0, symName: __ZNKSt3__19basic_iosIcNS_11char_traitsIcEEE4fillB7v160006Ev, symObjAddr: 0x2D70, symBinAddr: 0x1000072A4, symSize: 0x64 }
  - { offsetInCU: 0x1509D, offset: 0x1509D, size: 0x8, addend: 0x0, symName: __ZNKSt3__119ostreambuf_iteratorIcNS_11char_traitsIcEEE6failedB7v160006Ev, symObjAddr: 0x2DD4, symBinAddr: 0x100007308, symSize: 0x24 }
  - { offsetInCU: 0x150C3, offset: 0x150C3, size: 0x8, addend: 0x0, symName: __ZNSt3__19basic_iosIcNS_11char_traitsIcEEE8setstateB7v160006Ej, symObjAddr: 0x2DF8, symBinAddr: 0x10000732C, symSize: 0x2C }
  - { offsetInCU: 0x150F8, offset: 0x150F8, size: 0x8, addend: 0x0, symName: __ZNKSt3__18ios_base5widthB7v160006Ev, symObjAddr: 0x2E24, symBinAddr: 0x100007358, symSize: 0x18 }
  - { offsetInCU: 0x15120, offset: 0x15120, size: 0x8, addend: 0x0, symName: __ZNSt3__115basic_streambufIcNS_11char_traitsIcEEE5sputnB7v160006EPKcl, symObjAddr: 0x2E3C, symBinAddr: 0x100007370, symSize: 0x3C }
  - { offsetInCU: 0x15162, offset: 0x15162, size: 0x8, addend: 0x0, symName: __ZNSt3__112basic_stringIcNS_11char_traitsIcEENS_9allocatorIcEEEC1B7v160006Emc, symObjAddr: 0x2E78, symBinAddr: 0x1000073AC, symSize: 0x3C }
  - { offsetInCU: 0x151AA, offset: 0x151AA, size: 0x8, addend: 0x0, symName: __ZNSt3__112basic_stringIcNS_11char_traitsIcEENS_9allocatorIcEEE4dataB7v160006Ev, symObjAddr: 0x2EB4, symBinAddr: 0x1000073E8, symSize: 0x28 }
  - { offsetInCU: 0x151D0, offset: 0x151D0, size: 0x8, addend: 0x0, symName: __ZNSt3__18ios_base5widthB7v160006El, symObjAddr: 0x2EDC, symBinAddr: 0x100007410, symSize: 0x2C }
  - { offsetInCU: 0x15216, offset: 0x15216, size: 0x8, addend: 0x0, symName: __ZNSt3__112basic_stringIcNS_11char_traitsIcEENS_9allocatorIcEEEC2B7v160006Emc, symObjAddr: 0x2F08, symBinAddr: 0x10000743C, symSize: 0x54 }
  - { offsetInCU: 0x1525E, offset: 0x1525E, size: 0x8, addend: 0x0, symName: __ZNSt3__117__compressed_pairINS_12basic_stringIcNS_11char_traitsIcEENS_9allocatorIcEEE5__repES5_EC1B7v160006INS_18__default_init_tagESA_EEOT_OT0_, symObjAddr: 0x2F5C, symBinAddr: 0x100007490, symSize: 0x3C }
  - { offsetInCU: 0x152B6, offset: 0x152B6, size: 0x8, addend: 0x0, symName: __ZNSt3__117__compressed_pairINS_12basic_stringIcNS_11char_traitsIcEENS_9allocatorIcEEE5__repES5_EC2B7v160006INS_18__default_init_tagESA_EEOT_OT0_, symObjAddr: 0x2FA8, symBinAddr: 0x1000074DC, symSize: 0x3C }
  - { offsetInCU: 0x1530E, offset: 0x1530E, size: 0x8, addend: 0x0, symName: __ZNSt3__122__compressed_pair_elemINS_12basic_stringIcNS_11char_traitsIcEENS_9allocatorIcEEE5__repELi0ELb0EEC2B7v160006ENS_18__default_init_tagE, symObjAddr: 0x2FE4, symBinAddr: 0x100007518, symSize: 0x14 }
  - { offsetInCU: 0x15343, offset: 0x15343, size: 0x8, addend: 0x0, symName: __ZNSt3__122__compressed_pair_elemINS_9allocatorIcEELi1ELb1EEC2B7v160006ENS_18__default_init_tagE, symObjAddr: 0x2FF8, symBinAddr: 0x10000752C, symSize: 0x2C }
  - { offsetInCU: 0x15378, offset: 0x15378, size: 0x8, addend: 0x0, symName: __ZNSt3__19allocatorIcEC2B7v160006Ev, symObjAddr: 0x3024, symBinAddr: 0x100007558, symSize: 0x2C }
  - { offsetInCU: 0x153A2, offset: 0x153A2, size: 0x8, addend: 0x0, symName: __ZNSt3__116__non_trivial_ifILb1ENS_9allocatorIcEEEC2B7v160006Ev, symObjAddr: 0x3050, symBinAddr: 0x100007584, symSize: 0x14 }
  - { offsetInCU: 0x153CC, offset: 0x153CC, size: 0x8, addend: 0x0, symName: __ZNSt3__112basic_stringIcNS_11char_traitsIcEENS_9allocatorIcEEE13__get_pointerB7v160006Ev, symObjAddr: 0x3078, symBinAddr: 0x1000075AC, symSize: 0x54 }
  - { offsetInCU: 0x153F2, offset: 0x153F2, size: 0x8, addend: 0x0, symName: __ZNKSt3__112basic_stringIcNS_11char_traitsIcEENS_9allocatorIcEEE9__is_longB7v160006Ev, symObjAddr: 0x30CC, symBinAddr: 0x100007600, symSize: 0x38 }
  - { offsetInCU: 0x15418, offset: 0x15418, size: 0x8, addend: 0x0, symName: __ZNSt3__112basic_stringIcNS_11char_traitsIcEENS_9allocatorIcEEE18__get_long_pointerB7v160006Ev, symObjAddr: 0x3104, symBinAddr: 0x100007638, symSize: 0x28 }
  - { offsetInCU: 0x1543E, offset: 0x1543E, size: 0x8, addend: 0x0, symName: __ZNSt3__112basic_stringIcNS_11char_traitsIcEENS_9allocatorIcEEE19__get_short_pointerB7v160006Ev, symObjAddr: 0x312C, symBinAddr: 0x100007660, symSize: 0x28 }
  - { offsetInCU: 0x15464, offset: 0x15464, size: 0x8, addend: 0x0, symName: __ZNKSt3__117__compressed_pairINS_12basic_stringIcNS_11char_traitsIcEENS_9allocatorIcEEE5__repES5_E5firstB7v160006Ev, symObjAddr: 0x3154, symBinAddr: 0x100007688, symSize: 0x24 }
  - { offsetInCU: 0x1548A, offset: 0x1548A, size: 0x8, addend: 0x0, symName: __ZNKSt3__122__compressed_pair_elemINS_12basic_stringIcNS_11char_traitsIcEENS_9allocatorIcEEE5__repELi0ELb0EE5__getB7v160006Ev, symObjAddr: 0x3178, symBinAddr: 0x1000076AC, symSize: 0x14 }
  - { offsetInCU: 0x154B0, offset: 0x154B0, size: 0x8, addend: 0x0, symName: __ZNSt3__117__compressed_pairINS_12basic_stringIcNS_11char_traitsIcEENS_9allocatorIcEEE5__repES5_E5firstB7v160006Ev, symObjAddr: 0x318C, symBinAddr: 0x1000076C0, symSize: 0x24 }
  - { offsetInCU: 0x154D6, offset: 0x154D6, size: 0x8, addend: 0x0, symName: __ZNSt3__122__compressed_pair_elemINS_12basic_stringIcNS_11char_traitsIcEENS_9allocatorIcEEE5__repELi0ELb0EE5__getB7v160006Ev, symObjAddr: 0x31B0, symBinAddr: 0x1000076E4, symSize: 0x14 }
  - { offsetInCU: 0x154FC, offset: 0x154FC, size: 0x8, addend: 0x0, symName: __ZNSt3__114pointer_traitsIPcE10pointer_toB7v160006ERc, symObjAddr: 0x31C4, symBinAddr: 0x1000076F8, symSize: 0x14 }
  - { offsetInCU: 0x1551F, offset: 0x1551F, size: 0x8, addend: 0x0, symName: __ZNSt3__119ostreambuf_iteratorIcNS_11char_traitsIcEEEC2B7v160006ERNS_13basic_ostreamIcS2_EE, symObjAddr: 0x31D8, symBinAddr: 0x10000770C, symSize: 0x54 }
  - { offsetInCU: 0x15557, offset: 0x15557, size: 0x8, addend: 0x0, symName: __ZNKSt3__19basic_iosIcNS_11char_traitsIcEEE5rdbufB7v160006Ev, symObjAddr: 0x322C, symBinAddr: 0x100007760, symSize: 0x24 }
  - { offsetInCU: 0x1557F, offset: 0x1557F, size: 0x8, addend: 0x0, symName: __ZNKSt3__18ios_base5rdbufB7v160006Ev, symObjAddr: 0x3250, symBinAddr: 0x100007784, symSize: 0x18 }
  - { offsetInCU: 0x155A5, offset: 0x155A5, size: 0x8, addend: 0x0, symName: __ZNSt3__111char_traitsIcE11eq_int_typeEii, symObjAddr: 0x3268, symBinAddr: 0x10000779C, symSize: 0x28 }
  - { offsetInCU: 0x155D6, offset: 0x155D6, size: 0x8, addend: 0x0, symName: __ZNSt3__111char_traitsIcE3eofEv, symObjAddr: 0x3290, symBinAddr: 0x1000077C4, symSize: 0x8 }
  - { offsetInCU: 0x155EA, offset: 0x155EA, size: 0x8, addend: 0x0, symName: __ZNKSt3__19basic_iosIcNS_11char_traitsIcEEE5widenB7v160006Ec, symObjAddr: 0x3298, symBinAddr: 0x1000077CC, symSize: 0x84 }
  - { offsetInCU: 0x15658, offset: 0x15658, size: 0x8, addend: 0x0, symName: __ZNKSt3__15ctypeIcE5widenB7v160006Ec, symObjAddr: 0x3348, symBinAddr: 0x10000787C, symSize: 0x38 }
  - { offsetInCU: 0x1568D, offset: 0x1568D, size: 0x8, addend: 0x0, symName: __ZNSt3__18ios_base8setstateB7v160006Ej, symObjAddr: 0x3380, symBinAddr: 0x1000078B4, symSize: 0x34 }
  - { offsetInCU: 0x156C4, offset: 0x156C4, size: 0x8, addend: 0x0, symName: __ZNSt3__16vectorIN3glm3vecILi3EfLNS1_9qualifierE0EEENS_9allocatorIS4_EEE9__end_capB7v160006Ev, symObjAddr: 0x33D8, symBinAddr: 0x10000790C, symSize: 0x28 }
  - { offsetInCU: 0x156EA, offset: 0x156EA, size: 0x8, addend: 0x0, symName: __ZNSt3__16vectorIN3glm3vecILi3EfLNS1_9qualifierE0EEENS_9allocatorIS4_EEE22__construct_one_at_endB7v160006IJRKS4_EEEvDpOT_, symObjAddr: 0x3400, symBinAddr: 0x100007934, symSize: 0x90 }
  - { offsetInCU: 0x15739, offset: 0x15739, size: 0x8, addend: 0x0, symName: __ZNSt3__16vectorIN3glm3vecILi3EfLNS1_9qualifierE0EEENS_9allocatorIS4_EEE21__push_back_slow_pathIRKS4_EEvOT_, symObjAddr: 0x3490, symBinAddr: 0x1000079C4, symSize: 0xD8 }
  - { offsetInCU: 0x15797, offset: 0x15797, size: 0x8, addend: 0x0, symName: __ZNSt3__117__compressed_pairIPN3glm3vecILi3EfLNS1_9qualifierE0EEENS_9allocatorIS4_EEE5firstB7v160006Ev, symObjAddr: 0x3568, symBinAddr: 0x100007A9C, symSize: 0x24 }
  - { offsetInCU: 0x157BD, offset: 0x157BD, size: 0x8, addend: 0x0, symName: __ZNSt3__122__compressed_pair_elemIPN3glm3vecILi3EfLNS1_9qualifierE0EEELi0ELb0EE5__getB7v160006Ev, symObjAddr: 0x358C, symBinAddr: 0x100007AC0, symSize: 0x14 }
  - { offsetInCU: 0x157FC, offset: 0x157FC, size: 0x8, addend: 0x0, symName: __ZNSt3__16vectorIN3glm3vecILi3EfLNS1_9qualifierE0EEENS_9allocatorIS4_EEE21_ConstructTransactionC1B7v160006ERS7_m, symObjAddr: 0x35A0, symBinAddr: 0x100007AD4, symSize: 0x3C }
  - { offsetInCU: 0x15844, offset: 0x15844, size: 0x8, addend: 0x0, symName: __ZNSt3__116allocator_traitsINS_9allocatorIN3glm3vecILi3EfLNS2_9qualifierE0EEEEEE9constructB7v160006IS5_JRKS5_EvEEvRS6_PT_DpOT0_, symObjAddr: 0x35DC, symBinAddr: 0x100007B10, symSize: 0x34 }
  - { offsetInCU: 0x1589B, offset: 0x1589B, size: 0x8, addend: 0x0, symName: __ZNSt3__16vectorIN3glm3vecILi3EfLNS1_9qualifierE0EEENS_9allocatorIS4_EEE21_ConstructTransactionD1B7v160006Ev, symObjAddr: 0x3610, symBinAddr: 0x100007B44, symSize: 0x2C }
  - { offsetInCU: 0x158C5, offset: 0x158C5, size: 0x8, addend: 0x0, symName: __ZNSt3__16vectorIN3glm3vecILi3EfLNS1_9qualifierE0EEENS_9allocatorIS4_EEE21_ConstructTransactionC2B7v160006ERS7_m, symObjAddr: 0x363C, symBinAddr: 0x100007B70, symSize: 0x4C }
  - { offsetInCU: 0x1590D, offset: 0x1590D, size: 0x8, addend: 0x0, symName: __ZNSt3__19allocatorIN3glm3vecILi3EfLNS1_9qualifierE0EEEE9constructB7v160006IS4_JRKS4_EEEvPT_DpOT0_, symObjAddr: 0x3688, symBinAddr: 0x100007BBC, symSize: 0x30 }
  - { offsetInCU: 0x15963, offset: 0x15963, size: 0x8, addend: 0x0, symName: __ZNSt3__16vectorIN3glm3vecILi3EfLNS1_9qualifierE0EEENS_9allocatorIS4_EEE21_ConstructTransactionD2B7v160006Ev, symObjAddr: 0x36B8, symBinAddr: 0x100007BEC, symSize: 0x20 }
  - { offsetInCU: 0x1598D, offset: 0x1598D, size: 0x8, addend: 0x0, symName: __ZNKSt3__16vectorIN3glm3vecILi3EfLNS1_9qualifierE0EEENS_9allocatorIS4_EEE11__recommendB7v160006Em, symObjAddr: 0x36D8, symBinAddr: 0x100007C0C, symSize: 0xB4 }
  - { offsetInCU: 0x159E2, offset: 0x159E2, size: 0x8, addend: 0x0, symName: __ZNSt3__114__split_bufferIN3glm3vecILi3EfLNS1_9qualifierE0EEERNS_9allocatorIS4_EEEC1EmmS7_, symObjAddr: 0x378C, symBinAddr: 0x100007CC0, symSize: 0x44 }
  - { offsetInCU: 0x15A38, offset: 0x15A38, size: 0x8, addend: 0x0, symName: __ZNSt3__114__split_bufferIN3glm3vecILi3EfLNS1_9qualifierE0EEERNS_9allocatorIS4_EEED1Ev, symObjAddr: 0x38E8, symBinAddr: 0x100007E1C, symSize: 0x2C }
  - { offsetInCU: 0x15A64, offset: 0x15A64, size: 0x8, addend: 0x0, symName: __ZNKSt3__16vectorIN3glm3vecILi3EfLNS1_9qualifierE0EEENS_9allocatorIS4_EEE8max_sizeEv, symObjAddr: 0x3914, symBinAddr: 0x100007E48, symSize: 0x60 }
  - { offsetInCU: 0x15A8C, offset: 0x15A8C, size: 0x8, addend: 0x0, symName: __ZNKSt3__16vectorIN3glm3vecILi3EfLNS1_9qualifierE0EEENS_9allocatorIS4_EEE20__throw_length_errorB7v160006Ev, symObjAddr: 0x3974, symBinAddr: 0x100007EA8, symSize: 0x1C }
  - { offsetInCU: 0x15ABC, offset: 0x15ABC, size: 0x8, addend: 0x0, symName: __ZNSt3__116allocator_traitsINS_9allocatorIN3glm3vecILi3EfLNS2_9qualifierE0EEEEEE8max_sizeB7v160006IS6_vEEmRKS6_, symObjAddr: 0x39E8, symBinAddr: 0x100007F1C, symSize: 0x24 }
  - { offsetInCU: 0x15AEA, offset: 0x15AEA, size: 0x8, addend: 0x0, symName: __ZNKSt3__16vectorIN3glm3vecILi3EfLNS1_9qualifierE0EEENS_9allocatorIS4_EEE7__allocB7v160006Ev, symObjAddr: 0x3A0C, symBinAddr: 0x100007F40, symSize: 0x28 }
  - { offsetInCU: 0x15B10, offset: 0x15B10, size: 0x8, addend: 0x0, symName: __ZNSt3__114numeric_limitsIlE3maxB7v160006Ev, symObjAddr: 0x3A34, symBinAddr: 0x100007F68, symSize: 0x14 }
  - { offsetInCU: 0x15B38, offset: 0x15B38, size: 0x8, addend: 0x0, symName: __ZNKSt3__16__lessImmEclB7v160006ERKmS3_, symObjAddr: 0x3A9C, symBinAddr: 0x100007FD0, symSize: 0x34 }
  - { offsetInCU: 0x15B7A, offset: 0x15B7A, size: 0x8, addend: 0x0, symName: __ZNKSt3__19allocatorIN3glm3vecILi3EfLNS1_9qualifierE0EEEE8max_sizeB7v160006Ev, symObjAddr: 0x3AD0, symBinAddr: 0x100008004, symSize: 0x18 }
  - { offsetInCU: 0x15BA0, offset: 0x15BA0, size: 0x8, addend: 0x0, symName: __ZNKSt3__117__compressed_pairIPN3glm3vecILi3EfLNS1_9qualifierE0EEENS_9allocatorIS4_EEE6secondB7v160006Ev, symObjAddr: 0x3AE8, symBinAddr: 0x10000801C, symSize: 0x24 }
  - { offsetInCU: 0x15BC6, offset: 0x15BC6, size: 0x8, addend: 0x0, symName: __ZNKSt3__122__compressed_pair_elemINS_9allocatorIN3glm3vecILi3EfLNS2_9qualifierE0EEEEELi1ELb1EE5__getB7v160006Ev, symObjAddr: 0x3B0C, symBinAddr: 0x100008040, symSize: 0x14 }
  - { offsetInCU: 0x15BEC, offset: 0x15BEC, size: 0x8, addend: 0x0, symName: __ZNSt3__123__libcpp_numeric_limitsIlLb1EE3maxB7v160006Ev, symObjAddr: 0x3B20, symBinAddr: 0x100008054, symSize: 0x8 }
  - { offsetInCU: 0x15C00, offset: 0x15C00, size: 0x8, addend: 0x0, symName: __ZNSt12length_errorC1B7v160006EPKc, symObjAddr: 0x3B8C, symBinAddr: 0x1000080C0, symSize: 0x34 }
  - { offsetInCU: 0x15C38, offset: 0x15C38, size: 0x8, addend: 0x0, symName: __ZNSt12length_errorC2B7v160006EPKc, symObjAddr: 0x3BC0, symBinAddr: 0x1000080F4, symSize: 0x4C }
  - { offsetInCU: 0x15C70, offset: 0x15C70, size: 0x8, addend: 0x0, symName: __ZNSt3__114__split_bufferIN3glm3vecILi3EfLNS1_9qualifierE0EEERNS_9allocatorIS4_EEEC2EmmS7_, symObjAddr: 0x3C60, symBinAddr: 0x100008194, symSize: 0xE0 }
  - { offsetInCU: 0x15CE3, offset: 0x15CE3, size: 0x8, addend: 0x0, symName: __ZNSt3__117__compressed_pairIPN3glm3vecILi3EfLNS1_9qualifierE0EEERNS_9allocatorIS4_EEEC1B7v160006IDnS8_EEOT_OT0_, symObjAddr: 0x3D40, symBinAddr: 0x100008274, symSize: 0x3C }
  - { offsetInCU: 0x15D3B, offset: 0x15D3B, size: 0x8, addend: 0x0, symName: __ZNSt3__114__split_bufferIN3glm3vecILi3EfLNS1_9qualifierE0EEERNS_9allocatorIS4_EEE7__allocB7v160006Ev, symObjAddr: 0x3DBC, symBinAddr: 0x1000082F0, symSize: 0x28 }
  - { offsetInCU: 0x15D61, offset: 0x15D61, size: 0x8, addend: 0x0, symName: __ZNSt3__114__split_bufferIN3glm3vecILi3EfLNS1_9qualifierE0EEERNS_9allocatorIS4_EEE9__end_capB7v160006Ev, symObjAddr: 0x3DE4, symBinAddr: 0x100008318, symSize: 0x28 }
  - { offsetInCU: 0x15D87, offset: 0x15D87, size: 0x8, addend: 0x0, symName: __ZNSt3__117__compressed_pairIPN3glm3vecILi3EfLNS1_9qualifierE0EEERNS_9allocatorIS4_EEEC2B7v160006IDnS8_EEOT_OT0_, symObjAddr: 0x3E0C, symBinAddr: 0x100008340, symSize: 0x48 }
  - { offsetInCU: 0x15DDF, offset: 0x15DDF, size: 0x8, addend: 0x0, symName: __ZNSt3__122__compressed_pair_elemIRNS_9allocatorIN3glm3vecILi3EfLNS2_9qualifierE0EEEEELi1ELb0EEC2B7v160006IS7_vEEOT_, symObjAddr: 0x3E54, symBinAddr: 0x100008388, symSize: 0x20 }
  - { offsetInCU: 0x15E21, offset: 0x15E21, size: 0x8, addend: 0x0, symName: __ZNSt3__19allocatorIN3glm3vecILi3EfLNS1_9qualifierE0EEEE8allocateB7v160006Em, symObjAddr: 0x3E74, symBinAddr: 0x1000083A8, symSize: 0x5C }
  - { offsetInCU: 0x15E55, offset: 0x15E55, size: 0x8, addend: 0x0, symName: __ZNSt3__117__compressed_pairIPN3glm3vecILi3EfLNS1_9qualifierE0EEERNS_9allocatorIS4_EEE6secondB7v160006Ev, symObjAddr: 0x3FB4, symBinAddr: 0x1000084E8, symSize: 0x28 }
  - { offsetInCU: 0x15E7B, offset: 0x15E7B, size: 0x8, addend: 0x0, symName: __ZNSt3__122__compressed_pair_elemIRNS_9allocatorIN3glm3vecILi3EfLNS2_9qualifierE0EEEEELi1ELb0EE5__getB7v160006Ev, symObjAddr: 0x3FDC, symBinAddr: 0x100008510, symSize: 0x18 }
  - { offsetInCU: 0x15EA1, offset: 0x15EA1, size: 0x8, addend: 0x0, symName: __ZNSt3__117__compressed_pairIPN3glm3vecILi3EfLNS1_9qualifierE0EEERNS_9allocatorIS4_EEE5firstB7v160006Ev, symObjAddr: 0x3FF4, symBinAddr: 0x100008528, symSize: 0x24 }
  - { offsetInCU: 0x15EC7, offset: 0x15EC7, size: 0x8, addend: 0x0, symName: __ZNSt3__116reverse_iteratorIPN3glm3vecILi3EfLNS1_9qualifierE0EEEEC1B7v160006ES5_, symObjAddr: 0x4090, symBinAddr: 0x1000085C4, symSize: 0x34 }
  - { offsetInCU: 0x15EFF, offset: 0x15EFF, size: 0x8, addend: 0x0, symName: __ZNKSt3__116reverse_iteratorIPN3glm3vecILi3EfLNS1_9qualifierE0EEEE4baseB7v160006Ev, symObjAddr: 0x40C4, symBinAddr: 0x1000085F8, symSize: 0x18 }
  - { offsetInCU: 0x15F25, offset: 0x15F25, size: 0x8, addend: 0x0, symName: __ZNKSt3__16vectorIN3glm3vecILi3EfLNS1_9qualifierE0EEENS_9allocatorIS4_EEE14__annotate_newB7v160006Em, symObjAddr: 0x4118, symBinAddr: 0x10000864C, symSize: 0xC8 }
  - { offsetInCU: 0x15F7D, offset: 0x15F7D, size: 0x8, addend: 0x0, symName: __ZNKSt3__111__move_loopINS_17_ClassicAlgPolicyEEclB7v160006INS_16reverse_iteratorIPN3glm3vecILi3EfLNS5_9qualifierE0EEEEESA_SA_EENS_4pairIT_T1_EESC_T0_SD_, symObjAddr: 0x44E0, symBinAddr: 0x100008A14, symSize: 0xA8 }
  - { offsetInCU: 0x15FED, offset: 0x15FED, size: 0x8, addend: 0x0, symName: __ZNSt3__18_IterOpsINS_17_ClassicAlgPolicyEE11__iter_moveB7v160006IRNS_16reverse_iteratorIPN3glm3vecILi3EfLNS5_9qualifierE0EEEEEEENS_9enable_ifIXsr12is_referenceIDTdeclsr3stdE7declvalIRT_EEEEE5valueEDTclsr3stdE4movedeclsr3stdE7declvalISE_EEEEE4typeEOSD_, symObjAddr: 0x471C, symBinAddr: 0x100008C50, symSize: 0x28 }
  - { offsetInCU: 0x16019, offset: 0x16019, size: 0x8, addend: 0x0, symName: __ZNKSt3__116reverse_iteratorIPN3glm3vecILi3EfLNS1_9qualifierE0EEEEdeB7v160006Ev, symObjAddr: 0x4744, symBinAddr: 0x100008C78, symSize: 0x28 }
  - { offsetInCU: 0x1604D, offset: 0x1604D, size: 0x8, addend: 0x0, symName: __ZNSt3__116reverse_iteratorIPN3glm3vecILi3EfLNS1_9qualifierE0EEEEppB7v160006Ev, symObjAddr: 0x476C, symBinAddr: 0x100008CA0, symSize: 0x20 }
  - { offsetInCU: 0x16073, offset: 0x16073, size: 0x8, addend: 0x0, symName: __ZNSt3__18_IterOpsINS_17_ClassicAlgPolicyEE25__validate_iter_referenceB7v160006IRNS_16reverse_iteratorIPN3glm3vecILi3EfLNS5_9qualifierE0EEEEEEEvv, symObjAddr: 0x478C, symBinAddr: 0x100008CC0, symSize: 0x4 }
  - { offsetInCU: 0x16091, offset: 0x16091, size: 0x8, addend: 0x0, symName: __ZNSt3__118__unwrap_iter_implINS_16reverse_iteratorIPN3glm3vecILi3EfLNS2_9qualifierE0EEEEELb0EE8__unwrapB7v160006ES7_, symObjAddr: 0x4790, symBinAddr: 0x100008CC4, symSize: 0x24 }
  - { offsetInCU: 0x160B9, offset: 0x160B9, size: 0x8, addend: 0x0, symName: __ZNSt3__14pairINS_16reverse_iteratorIPN3glm3vecILi3EfLNS2_9qualifierE0EEEEES7_EC1B7v160006IS7_S7_LPv0EEEOT_OT0_, symObjAddr: 0x47B4, symBinAddr: 0x100008CE8, symSize: 0x3C }
  - { offsetInCU: 0x16117, offset: 0x16117, size: 0x8, addend: 0x0, symName: __ZNSt3__14pairINS_16reverse_iteratorIPN3glm3vecILi3EfLNS2_9qualifierE0EEEEES7_EC2B7v160006IS7_S7_LPv0EEEOT_OT0_, symObjAddr: 0x47F0, symBinAddr: 0x100008D24, symSize: 0x34 }
  - { offsetInCU: 0x16175, offset: 0x16175, size: 0x8, addend: 0x0, symName: __ZNSt3__118__unwrap_iter_implINS_16reverse_iteratorIPN3glm3vecILi3EfLNS2_9qualifierE0EEEEELb0EE8__rewrapB7v160006ES7_S7_, symObjAddr: 0x4824, symBinAddr: 0x100008D58, symSize: 0x2C }
  - { offsetInCU: 0x161A3, offset: 0x161A3, size: 0x8, addend: 0x0, symName: __ZNSt3__116reverse_iteratorIPN3glm3vecILi3EfLNS1_9qualifierE0EEEEC2B7v160006ES5_, symObjAddr: 0x4850, symBinAddr: 0x100008D84, symSize: 0x28 }
  - { offsetInCU: 0x161DB, offset: 0x161DB, size: 0x8, addend: 0x0, symName: __ZNSt3__114__split_bufferIN3glm3vecILi3EfLNS1_9qualifierE0EEERNS_9allocatorIS4_EEED2Ev, symObjAddr: 0x4878, symBinAddr: 0x100008DAC, symSize: 0x8C }
  - { offsetInCU: 0x16207, offset: 0x16207, size: 0x8, addend: 0x0, symName: __ZNSt3__114__split_bufferIN3glm3vecILi3EfLNS1_9qualifierE0EEERNS_9allocatorIS4_EEE5clearB7v160006Ev, symObjAddr: 0x4904, symBinAddr: 0x100008E38, symSize: 0x28 }
  - { offsetInCU: 0x1622D, offset: 0x1622D, size: 0x8, addend: 0x0, symName: __ZNKSt3__114__split_bufferIN3glm3vecILi3EfLNS1_9qualifierE0EEERNS_9allocatorIS4_EEE8capacityB7v160006Ev, symObjAddr: 0x492C, symBinAddr: 0x100008E60, symSize: 0x40 }
  - { offsetInCU: 0x16253, offset: 0x16253, size: 0x8, addend: 0x0, symName: __ZNSt3__114__split_bufferIN3glm3vecILi3EfLNS1_9qualifierE0EEERNS_9allocatorIS4_EEE17__destruct_at_endB7v160006EPS4_, symObjAddr: 0x496C, symBinAddr: 0x100008EA0, symSize: 0x2C }
  - { offsetInCU: 0x16287, offset: 0x16287, size: 0x8, addend: 0x0, symName: __ZNSt3__114__split_bufferIN3glm3vecILi3EfLNS1_9qualifierE0EEERNS_9allocatorIS4_EEE17__destruct_at_endB7v160006EPS4_NS_17integral_constantIbLb0EEE, symObjAddr: 0x4998, symBinAddr: 0x100008ECC, symSize: 0x80 }
  - { offsetInCU: 0x162C8, offset: 0x162C8, size: 0x8, addend: 0x0, symName: __ZNKSt3__114__split_bufferIN3glm3vecILi3EfLNS1_9qualifierE0EEERNS_9allocatorIS4_EEE9__end_capB7v160006Ev, symObjAddr: 0x4A18, symBinAddr: 0x100008F4C, symSize: 0x28 }
  - { offsetInCU: 0x162EE, offset: 0x162EE, size: 0x8, addend: 0x0, symName: __ZNKSt3__117__compressed_pairIPN3glm3vecILi3EfLNS1_9qualifierE0EEERNS_9allocatorIS4_EEE5firstB7v160006Ev, symObjAddr: 0x4A40, symBinAddr: 0x100008F74, symSize: 0x24 }
  - { offsetInCU: 0x16314, offset: 0x16314, size: 0x8, addend: 0x0, symName: __ZNSt3__16vectorI4LineNS_9allocatorIS1_EEE8__appendEm, symObjAddr: 0x4A64, symBinAddr: 0x100008F98, symSize: 0x108 }
  - { offsetInCU: 0x1636F, offset: 0x1636F, size: 0x8, addend: 0x0, symName: __ZNSt3__16vectorI4LineNS_9allocatorIS1_EEE17__destruct_at_endB7v160006EPS1_, symObjAddr: 0x4B6C, symBinAddr: 0x1000090A0, symSize: 0x60 }
  - { offsetInCU: 0x163B3, offset: 0x163B3, size: 0x8, addend: 0x0, symName: __ZNSt3__16vectorI4LineNS_9allocatorIS1_EEE9__end_capB7v160006Ev, symObjAddr: 0x4BCC, symBinAddr: 0x100009100, symSize: 0x28 }
  - { offsetInCU: 0x163D9, offset: 0x163D9, size: 0x8, addend: 0x0, symName: __ZNSt3__16vectorI4LineNS_9allocatorIS1_EEE18__construct_at_endEm, symObjAddr: 0x4BF4, symBinAddr: 0x100009128, symSize: 0xC8 }
  - { offsetInCU: 0x1644B, offset: 0x1644B, size: 0x8, addend: 0x0, symName: __ZNKSt3__16vectorI4LineNS_9allocatorIS1_EEE11__recommendB7v160006Em, symObjAddr: 0x4CBC, symBinAddr: 0x1000091F0, symSize: 0xB4 }
  - { offsetInCU: 0x164A0, offset: 0x164A0, size: 0x8, addend: 0x0, symName: __ZNSt3__114__split_bufferI4LineRNS_9allocatorIS1_EEEC1EmmS4_, symObjAddr: 0x4D70, symBinAddr: 0x1000092A4, symSize: 0x44 }
  - { offsetInCU: 0x164F6, offset: 0x164F6, size: 0x8, addend: 0x0, symName: __ZNSt3__114__split_bufferI4LineRNS_9allocatorIS1_EEE18__construct_at_endEm, symObjAddr: 0x4DB4, symBinAddr: 0x1000092E8, symSize: 0xB4 }
  - { offsetInCU: 0x16539, offset: 0x16539, size: 0x8, addend: 0x0, symName: __ZNSt3__114__split_bufferI4LineRNS_9allocatorIS1_EEED1Ev, symObjAddr: 0x4F80, symBinAddr: 0x1000094B4, symSize: 0x2C }
  - { offsetInCU: 0x16565, offset: 0x16565, size: 0x8, addend: 0x0, symName: __ZNSt3__117__compressed_pairIP4LineNS_9allocatorIS1_EEE5firstB7v160006Ev, symObjAddr: 0x4FAC, symBinAddr: 0x1000094E0, symSize: 0x24 }
  - { offsetInCU: 0x1658B, offset: 0x1658B, size: 0x8, addend: 0x0, symName: __ZNSt3__122__compressed_pair_elemIP4LineLi0ELb0EE5__getB7v160006Ev, symObjAddr: 0x4FD0, symBinAddr: 0x100009504, symSize: 0x14 }
  - { offsetInCU: 0x165CA, offset: 0x165CA, size: 0x8, addend: 0x0, symName: __ZNSt3__16vectorI4LineNS_9allocatorIS1_EEE21_ConstructTransactionC1B7v160006ERS4_m, symObjAddr: 0x4FE4, symBinAddr: 0x100009518, symSize: 0x3C }
  - { offsetInCU: 0x16612, offset: 0x16612, size: 0x8, addend: 0x0, symName: __ZNSt3__116allocator_traitsINS_9allocatorI4LineEEE9constructB7v160006IS2_JEvEEvRS3_PT_DpOT0_, symObjAddr: 0x5020, symBinAddr: 0x100009554, symSize: 0x2C }
  - { offsetInCU: 0x16654, offset: 0x16654, size: 0x8, addend: 0x0, symName: __ZNSt3__16vectorI4LineNS_9allocatorIS1_EEE21_ConstructTransactionD1B7v160006Ev, symObjAddr: 0x504C, symBinAddr: 0x100009580, symSize: 0x2C }
  - { offsetInCU: 0x1667E, offset: 0x1667E, size: 0x8, addend: 0x0, symName: __ZNSt3__16vectorI4LineNS_9allocatorIS1_EEE21_ConstructTransactionC2B7v160006ERS4_m, symObjAddr: 0x5078, symBinAddr: 0x1000095AC, symSize: 0x4C }
  - { offsetInCU: 0x166C6, offset: 0x166C6, size: 0x8, addend: 0x0, symName: __ZNSt3__19allocatorI4LineE9constructB7v160006IS1_JEEEvPT_DpOT0_, symObjAddr: 0x50C4, symBinAddr: 0x1000095F8, symSize: 0x28 }
  - { offsetInCU: 0x16708, offset: 0x16708, size: 0x8, addend: 0x0, symName: __ZNSt3__16vectorI4LineNS_9allocatorIS1_EEE21_ConstructTransactionD2B7v160006Ev, symObjAddr: 0x50EC, symBinAddr: 0x100009620, symSize: 0x20 }
  - { offsetInCU: 0x16732, offset: 0x16732, size: 0x8, addend: 0x0, symName: __ZNKSt3__16vectorI4LineNS_9allocatorIS1_EEE8max_sizeEv, symObjAddr: 0x510C, symBinAddr: 0x100009640, symSize: 0x60 }
  - { offsetInCU: 0x1675A, offset: 0x1675A, size: 0x8, addend: 0x0, symName: __ZNKSt3__16vectorI4LineNS_9allocatorIS1_EEE20__throw_length_errorB7v160006Ev, symObjAddr: 0x516C, symBinAddr: 0x1000096A0, symSize: 0x1C }
  - { offsetInCU: 0x1678A, offset: 0x1678A, size: 0x8, addend: 0x0, symName: __ZNSt3__116allocator_traitsINS_9allocatorI4LineEEE8max_sizeB7v160006IS3_vEEmRKS3_, symObjAddr: 0x5188, symBinAddr: 0x1000096BC, symSize: 0x24 }
  - { offsetInCU: 0x167B8, offset: 0x167B8, size: 0x8, addend: 0x0, symName: __ZNKSt3__16vectorI4LineNS_9allocatorIS1_EEE7__allocB7v160006Ev, symObjAddr: 0x51AC, symBinAddr: 0x1000096E0, symSize: 0x28 }
  - { offsetInCU: 0x167DE, offset: 0x167DE, size: 0x8, addend: 0x0, symName: __ZNKSt3__19allocatorI4LineE8max_sizeB7v160006Ev, symObjAddr: 0x51D4, symBinAddr: 0x100009708, symSize: 0x18 }
  - { offsetInCU: 0x16804, offset: 0x16804, size: 0x8, addend: 0x0, symName: __ZNKSt3__117__compressed_pairIP4LineNS_9allocatorIS1_EEE6secondB7v160006Ev, symObjAddr: 0x51EC, symBinAddr: 0x100009720, symSize: 0x24 }
  - { offsetInCU: 0x1682A, offset: 0x1682A, size: 0x8, addend: 0x0, symName: __ZNKSt3__122__compressed_pair_elemINS_9allocatorI4LineEELi1ELb1EE5__getB7v160006Ev, symObjAddr: 0x5210, symBinAddr: 0x100009744, symSize: 0x14 }
  - { offsetInCU: 0x16850, offset: 0x16850, size: 0x8, addend: 0x0, symName: __ZNSt3__114__split_bufferI4LineRNS_9allocatorIS1_EEEC2EmmS4_, symObjAddr: 0x5224, symBinAddr: 0x100009758, symSize: 0xE0 }
  - { offsetInCU: 0x168C3, offset: 0x168C3, size: 0x8, addend: 0x0, symName: __ZNSt3__117__compressed_pairIP4LineRNS_9allocatorIS1_EEEC1B7v160006IDnS5_EEOT_OT0_, symObjAddr: 0x5304, symBinAddr: 0x100009838, symSize: 0x3C }
  - { offsetInCU: 0x1691B, offset: 0x1691B, size: 0x8, addend: 0x0, symName: __ZNSt3__114__split_bufferI4LineRNS_9allocatorIS1_EEE7__allocB7v160006Ev, symObjAddr: 0x5380, symBinAddr: 0x1000098B4, symSize: 0x28 }
  - { offsetInCU: 0x16941, offset: 0x16941, size: 0x8, addend: 0x0, symName: __ZNSt3__114__split_bufferI4LineRNS_9allocatorIS1_EEE9__end_capB7v160006Ev, symObjAddr: 0x53A8, symBinAddr: 0x1000098DC, symSize: 0x28 }
  - { offsetInCU: 0x16967, offset: 0x16967, size: 0x8, addend: 0x0, symName: __ZNSt3__117__compressed_pairIP4LineRNS_9allocatorIS1_EEEC2B7v160006IDnS5_EEOT_OT0_, symObjAddr: 0x53D0, symBinAddr: 0x100009904, symSize: 0x48 }
  - { offsetInCU: 0x169BF, offset: 0x169BF, size: 0x8, addend: 0x0, symName: __ZNSt3__122__compressed_pair_elemIRNS_9allocatorI4LineEELi1ELb0EEC2B7v160006IS4_vEEOT_, symObjAddr: 0x5418, symBinAddr: 0x10000994C, symSize: 0x20 }
  - { offsetInCU: 0x16A01, offset: 0x16A01, size: 0x8, addend: 0x0, symName: __ZNSt3__19allocatorI4LineE8allocateB7v160006Em, symObjAddr: 0x5438, symBinAddr: 0x10000996C, symSize: 0x5C }
  - { offsetInCU: 0x16A35, offset: 0x16A35, size: 0x8, addend: 0x0, symName: __ZNSt3__117__compressed_pairIP4LineRNS_9allocatorIS1_EEE6secondB7v160006Ev, symObjAddr: 0x5494, symBinAddr: 0x1000099C8, symSize: 0x28 }
  - { offsetInCU: 0x16A5B, offset: 0x16A5B, size: 0x8, addend: 0x0, symName: __ZNSt3__122__compressed_pair_elemIRNS_9allocatorI4LineEELi1ELb0EE5__getB7v160006Ev, symObjAddr: 0x54BC, symBinAddr: 0x1000099F0, symSize: 0x18 }
  - { offsetInCU: 0x16A81, offset: 0x16A81, size: 0x8, addend: 0x0, symName: __ZNSt3__117__compressed_pairIP4LineRNS_9allocatorIS1_EEE5firstB7v160006Ev, symObjAddr: 0x54D4, symBinAddr: 0x100009A08, symSize: 0x24 }
  - { offsetInCU: 0x16AB1, offset: 0x16AB1, size: 0x8, addend: 0x0, symName: __ZNSt3__114__split_bufferI4LineRNS_9allocatorIS1_EEE21_ConstructTransactionC1B7v160006EPPS1_m, symObjAddr: 0x54F8, symBinAddr: 0x100009A2C, symSize: 0x3C }
  - { offsetInCU: 0x16AF7, offset: 0x16AF7, size: 0x8, addend: 0x0, symName: __ZNSt3__114__split_bufferI4LineRNS_9allocatorIS1_EEE21_ConstructTransactionD1B7v160006Ev, symObjAddr: 0x5534, symBinAddr: 0x100009A68, symSize: 0x2C }
  - { offsetInCU: 0x16B21, offset: 0x16B21, size: 0x8, addend: 0x0, symName: __ZNSt3__114__split_bufferI4LineRNS_9allocatorIS1_EEE21_ConstructTransactionC2B7v160006EPPS1_m, symObjAddr: 0x5560, symBinAddr: 0x100009A94, symSize: 0x4C }
  - { offsetInCU: 0x16B67, offset: 0x16B67, size: 0x8, addend: 0x0, symName: __ZNSt3__114__split_bufferI4LineRNS_9allocatorIS1_EEE21_ConstructTransactionD2B7v160006Ev, symObjAddr: 0x55AC, symBinAddr: 0x100009AE0, symSize: 0x20 }
  - { offsetInCU: 0x16B91, offset: 0x16B91, size: 0x8, addend: 0x0, symName: __ZNSt3__116reverse_iteratorIP4LineEC1B7v160006ES2_, symObjAddr: 0x56F8, symBinAddr: 0x100009C2C, symSize: 0x34 }
  - { offsetInCU: 0x16BC9, offset: 0x16BC9, size: 0x8, addend: 0x0, symName: __ZNKSt3__116reverse_iteratorIP4LineE4baseB7v160006Ev, symObjAddr: 0x572C, symBinAddr: 0x100009C60, symSize: 0x18 }
  - { offsetInCU: 0x16BEF, offset: 0x16BEF, size: 0x8, addend: 0x0, symName: __ZNKSt3__16vectorI4LineNS_9allocatorIS1_EEE14__annotate_newB7v160006Em, symObjAddr: 0x5780, symBinAddr: 0x100009CB4, symSize: 0xC8 }
  - { offsetInCU: 0x16C24, offset: 0x16C24, size: 0x8, addend: 0x0, symName: __ZNSt3__129_AllocatorDestroyRangeReverseINS_9allocatorI4LineEENS_16reverse_iteratorIPS2_EEEC1B7v160006ERS3_RS6_S9_, symObjAddr: 0x58A4, symBinAddr: 0x100009DD8, symSize: 0x44 }
  - { offsetInCU: 0x16C80, offset: 0x16C80, size: 0x8, addend: 0x0, symName: __ZNSt3__116allocator_traitsINS_9allocatorI4LineEEE9constructB7v160006IS2_JS2_EvEEvRS3_PT_DpOT0_, symObjAddr: 0x5930, symBinAddr: 0x100009E64, symSize: 0x34 }
  - { offsetInCU: 0x16CD7, offset: 0x16CD7, size: 0x8, addend: 0x0, symName: __ZNKSt3__116reverse_iteratorIP4LineEdeB7v160006Ev, symObjAddr: 0x5988, symBinAddr: 0x100009EBC, symSize: 0x28 }
  - { offsetInCU: 0x16D0B, offset: 0x16D0B, size: 0x8, addend: 0x0, symName: __ZNSt3__116reverse_iteratorIP4LineEppB7v160006Ev, symObjAddr: 0x59B0, symBinAddr: 0x100009EE4, symSize: 0x20 }
  - { offsetInCU: 0x16D31, offset: 0x16D31, size: 0x8, addend: 0x0, symName: __ZNSt3__128__exception_guard_exceptionsINS_29_AllocatorDestroyRangeReverseINS_9allocatorI4LineEENS_16reverse_iteratorIPS3_EEEEE10__completeB7v160006Ev, symObjAddr: 0x59D0, symBinAddr: 0x100009F04, symSize: 0x1C }
  - { offsetInCU: 0x16D57, offset: 0x16D57, size: 0x8, addend: 0x0, symName: __ZNSt3__128__exception_guard_exceptionsINS_29_AllocatorDestroyRangeReverseINS_9allocatorI4LineEENS_16reverse_iteratorIPS3_EEEEED1B7v160006Ev, symObjAddr: 0x59EC, symBinAddr: 0x100009F20, symSize: 0x2C }
  - { offsetInCU: 0x16D81, offset: 0x16D81, size: 0x8, addend: 0x0, symName: __ZNSt3__128__exception_guard_exceptionsINS_29_AllocatorDestroyRangeReverseINS_9allocatorI4LineEENS_16reverse_iteratorIPS3_EEEEEC1B7v160006ES8_, symObjAddr: 0x5A18, symBinAddr: 0x100009F4C, symSize: 0x34 }
  - { offsetInCU: 0x16DBA, offset: 0x16DBA, size: 0x8, addend: 0x0, symName: __ZNSt3__128__exception_guard_exceptionsINS_29_AllocatorDestroyRangeReverseINS_9allocatorI4LineEENS_16reverse_iteratorIPS3_EEEEEC2B7v160006ES8_, symObjAddr: 0x5A4C, symBinAddr: 0x100009F80, symSize: 0x30 }
  - { offsetInCU: 0x16DF3, offset: 0x16DF3, size: 0x8, addend: 0x0, symName: __ZNSt3__129_AllocatorDestroyRangeReverseINS_9allocatorI4LineEENS_16reverse_iteratorIPS2_EEEC2B7v160006ERS3_RS6_S9_, symObjAddr: 0x5A7C, symBinAddr: 0x100009FB0, symSize: 0x38 }
  - { offsetInCU: 0x16E4A, offset: 0x16E4A, size: 0x8, addend: 0x0, symName: __ZNSt3__19allocatorI4LineE9constructB7v160006IS1_JS1_EEEvPT_DpOT0_, symObjAddr: 0x5AB4, symBinAddr: 0x100009FE8, symSize: 0x30 }
  - { offsetInCU: 0x16EA0, offset: 0x16EA0, size: 0x8, addend: 0x0, symName: __ZN4LineC1EOS_, symObjAddr: 0x5AE4, symBinAddr: 0x10000A018, symSize: 0x34 }
  - { offsetInCU: 0x16ED5, offset: 0x16ED5, size: 0x8, addend: 0x0, symName: __ZN4LineC2EOS_, symObjAddr: 0x5B18, symBinAddr: 0x10000A04C, symSize: 0x54 }
  - { offsetInCU: 0x16F0A, offset: 0x16F0A, size: 0x8, addend: 0x0, symName: __ZNSt3__16vectorI6VertexNS_9allocatorIS1_EEEC1B7v160006EOS4_, symObjAddr: 0x5B6C, symBinAddr: 0x10000A0A0, symSize: 0x34 }
  - { offsetInCU: 0x16F45, offset: 0x16F45, size: 0x8, addend: 0x0, symName: __ZNSt3__16vectorI6VertexNS_9allocatorIS1_EEEC2B7v160006EOS4_, symObjAddr: 0x5BA0, symBinAddr: 0x10000A0D4, symSize: 0xE0 }
  - { offsetInCU: 0x16F85, offset: 0x16F85, size: 0x8, addend: 0x0, symName: __ZNSt3__117__compressed_pairIP6VertexNS_9allocatorIS1_EEEC1B7v160006IDnS4_EEOT_OT0_, symObjAddr: 0x5C80, symBinAddr: 0x10000A1B4, symSize: 0x3C }
  - { offsetInCU: 0x16FDD, offset: 0x16FDD, size: 0x8, addend: 0x0, symName: __ZNSt3__16vectorI6VertexNS_9allocatorIS1_EEE9__end_capB7v160006Ev, symObjAddr: 0x5CE0, symBinAddr: 0x10000A214, symSize: 0x28 }
  - { offsetInCU: 0x17003, offset: 0x17003, size: 0x8, addend: 0x0, symName: __ZNSt3__117__compressed_pairIP6VertexNS_9allocatorIS1_EEEC2B7v160006IDnS4_EEOT_OT0_, symObjAddr: 0x5D08, symBinAddr: 0x10000A23C, symSize: 0x44 }
  - { offsetInCU: 0x1705B, offset: 0x1705B, size: 0x8, addend: 0x0, symName: __ZNSt3__122__compressed_pair_elemIP6VertexLi0ELb0EEC2B7v160006IDnvEEOT_, symObjAddr: 0x5D4C, symBinAddr: 0x10000A280, symSize: 0x1C }
  - { offsetInCU: 0x1709D, offset: 0x1709D, size: 0x8, addend: 0x0, symName: __ZNSt3__122__compressed_pair_elemINS_9allocatorI6VertexEELi1ELb1EEC2B7v160006IS3_vEEOT_, symObjAddr: 0x5D68, symBinAddr: 0x10000A29C, symSize: 0x18 }
  - { offsetInCU: 0x170DF, offset: 0x170DF, size: 0x8, addend: 0x0, symName: __ZNSt3__117__compressed_pairIP6VertexNS_9allocatorIS1_EEE5firstB7v160006Ev, symObjAddr: 0x5D80, symBinAddr: 0x10000A2B4, symSize: 0x24 }
  - { offsetInCU: 0x17105, offset: 0x17105, size: 0x8, addend: 0x0, symName: __ZNSt3__122__compressed_pair_elemIP6VertexLi0ELb0EE5__getB7v160006Ev, symObjAddr: 0x5DA4, symBinAddr: 0x10000A2D8, symSize: 0x14 }
  - { offsetInCU: 0x17130, offset: 0x17130, size: 0x8, addend: 0x0, symName: __ZNSt3__119__to_address_helperINS_16reverse_iteratorIP4LineEEvE6__callB7v160006ERKS4_, symObjAddr: 0x5DB8, symBinAddr: 0x10000A2EC, symSize: 0x38 }
  - { offsetInCU: 0x17153, offset: 0x17153, size: 0x8, addend: 0x0, symName: __ZNKSt3__116reverse_iteratorIP4LineEptB7v160006Ev, symObjAddr: 0x5DF0, symBinAddr: 0x10000A324, symSize: 0x24 }
  - { offsetInCU: 0x17179, offset: 0x17179, size: 0x8, addend: 0x0, symName: __ZNSt3__128__exception_guard_exceptionsINS_29_AllocatorDestroyRangeReverseINS_9allocatorI4LineEENS_16reverse_iteratorIPS3_EEEEED2B7v160006Ev, symObjAddr: 0x5E14, symBinAddr: 0x10000A348, symSize: 0x50 }
  - { offsetInCU: 0x171A3, offset: 0x171A3, size: 0x8, addend: 0x0, symName: __ZNKSt3__129_AllocatorDestroyRangeReverseINS_9allocatorI4LineEENS_16reverse_iteratorIPS2_EEEclB7v160006Ev, symObjAddr: 0x5E64, symBinAddr: 0x10000A398, symSize: 0xB4 }
  - { offsetInCU: 0x171CA, offset: 0x171CA, size: 0x8, addend: 0x0, symName: __ZNSt3__116reverse_iteratorINS0_IP4LineEEEC1B7v160006ES3_, symObjAddr: 0x5F88, symBinAddr: 0x10000A4BC, symSize: 0x3C }
  - { offsetInCU: 0x17202, offset: 0x17202, size: 0x8, addend: 0x0, symName: __ZNSt3__116reverse_iteratorINS0_IP4LineEEEppB7v160006Ev, symObjAddr: 0x6048, symBinAddr: 0x10000A57C, symSize: 0x30 }
  - { offsetInCU: 0x17228, offset: 0x17228, size: 0x8, addend: 0x0, symName: __ZNKSt3__116reverse_iteratorINS0_IP4LineEEE4baseB7v160006Ev, symObjAddr: 0x6078, symBinAddr: 0x10000A5AC, symSize: 0x24 }
  - { offsetInCU: 0x17253, offset: 0x17253, size: 0x8, addend: 0x0, symName: __ZNSt3__119__to_address_helperINS_16reverse_iteratorINS1_IP4LineEEEEvE6__callB7v160006ERKS5_, symObjAddr: 0x609C, symBinAddr: 0x10000A5D0, symSize: 0x38 }
  - { offsetInCU: 0x17276, offset: 0x17276, size: 0x8, addend: 0x0, symName: __ZNKSt3__116reverse_iteratorINS0_IP4LineEEEptB7v160006Ev, symObjAddr: 0x60D4, symBinAddr: 0x10000A608, symSize: 0x24 }
  - { offsetInCU: 0x1729C, offset: 0x1729C, size: 0x8, addend: 0x0, symName: __ZNKSt3__116reverse_iteratorINS0_IP4LineEEEdeB7v160006Ev, symObjAddr: 0x60F8, symBinAddr: 0x10000A62C, symSize: 0x34 }
  - { offsetInCU: 0x172D0, offset: 0x172D0, size: 0x8, addend: 0x0, symName: __ZNSt3__116reverse_iteratorIP4LineEmmB7v160006Ev, symObjAddr: 0x612C, symBinAddr: 0x10000A660, symSize: 0x20 }
  - { offsetInCU: 0x172F6, offset: 0x172F6, size: 0x8, addend: 0x0, symName: __ZNSt3__116reverse_iteratorINS0_IP4LineEEEC2B7v160006ES3_, symObjAddr: 0x614C, symBinAddr: 0x10000A680, symSize: 0x2C }
  - { offsetInCU: 0x1732E, offset: 0x1732E, size: 0x8, addend: 0x0, symName: __ZNSt3__116reverse_iteratorIP4LineEC2B7v160006ES2_, symObjAddr: 0x6178, symBinAddr: 0x10000A6AC, symSize: 0x28 }
  - { offsetInCU: 0x17366, offset: 0x17366, size: 0x8, addend: 0x0, symName: __ZNSt3__114__split_bufferI4LineRNS_9allocatorIS1_EEED2Ev, symObjAddr: 0x61A0, symBinAddr: 0x10000A6D4, symSize: 0x8C }
  - { offsetInCU: 0x17392, offset: 0x17392, size: 0x8, addend: 0x0, symName: __ZNSt3__114__split_bufferI4LineRNS_9allocatorIS1_EEE5clearB7v160006Ev, symObjAddr: 0x622C, symBinAddr: 0x10000A760, symSize: 0x28 }
  - { offsetInCU: 0x173B8, offset: 0x173B8, size: 0x8, addend: 0x0, symName: __ZNKSt3__114__split_bufferI4LineRNS_9allocatorIS1_EEE8capacityB7v160006Ev, symObjAddr: 0x6254, symBinAddr: 0x10000A788, symSize: 0x40 }
  - { offsetInCU: 0x173DE, offset: 0x173DE, size: 0x8, addend: 0x0, symName: __ZNSt3__114__split_bufferI4LineRNS_9allocatorIS1_EEE17__destruct_at_endB7v160006EPS1_, symObjAddr: 0x6294, symBinAddr: 0x10000A7C8, symSize: 0x2C }
  - { offsetInCU: 0x17412, offset: 0x17412, size: 0x8, addend: 0x0, symName: __ZNSt3__114__split_bufferI4LineRNS_9allocatorIS1_EEE17__destruct_at_endB7v160006EPS1_NS_17integral_constantIbLb0EEE, symObjAddr: 0x62C0, symBinAddr: 0x10000A7F4, symSize: 0x80 }
  - { offsetInCU: 0x17453, offset: 0x17453, size: 0x8, addend: 0x0, symName: __ZNKSt3__114__split_bufferI4LineRNS_9allocatorIS1_EEE9__end_capB7v160006Ev, symObjAddr: 0x6340, symBinAddr: 0x10000A874, symSize: 0x28 }
  - { offsetInCU: 0x17479, offset: 0x17479, size: 0x8, addend: 0x0, symName: __ZNKSt3__117__compressed_pairIP4LineRNS_9allocatorIS1_EEE5firstB7v160006Ev, symObjAddr: 0x6368, symBinAddr: 0x10000A89C, symSize: 0x24 }
  - { offsetInCU: 0x1749F, offset: 0x1749F, size: 0x8, addend: 0x0, symName: __ZNSt3__16vectorI4LineNS_9allocatorIS1_EEE27__invalidate_iterators_pastB7v160006EPS1_, symObjAddr: 0x638C, symBinAddr: 0x10000A8C0, symSize: 0x14 }
  - { offsetInCU: 0x174D6, offset: 0x174D6, size: 0x8, addend: 0x0, symName: __ZNKSt3__16vectorI4LineNS_9allocatorIS1_EEE17__annotate_shrinkB7v160006Em, symObjAddr: 0x63A0, symBinAddr: 0x10000A8D4, symSize: 0xD0 }
  - { offsetInCU: 0x1750B, offset: 0x1750B, size: 0x8, addend: 0x0, symName: __ZNSt3__16vectorIfNS_9allocatorIfEEEC2B7v160006ESt16initializer_listIfE, symObjAddr: 0x6470, symBinAddr: 0x10000A9A4, symSize: 0x124 }
  - { offsetInCU: 0x1755C, offset: 0x1755C, size: 0x8, addend: 0x0, symName: __ZNSt3__117__compressed_pairIPfNS_9allocatorIfEEEC1B7v160006IDnNS_18__default_init_tagEEEOT_OT0_, symObjAddr: 0x6594, symBinAddr: 0x10000AAC8, symSize: 0x3C }
  - { offsetInCU: 0x175B4, offset: 0x175B4, size: 0x8, addend: 0x0, symName: __ZNSt3__16vectorIfNS_9allocatorIfEEE16__destroy_vectorC1ERS3_, symObjAddr: 0x6610, symBinAddr: 0x10000AB44, symSize: 0x34 }
  - { offsetInCU: 0x175ED, offset: 0x175ED, size: 0x8, addend: 0x0, symName: __ZNKSt16initializer_listIfE4sizeB7v160006Ev, symObjAddr: 0x6654, symBinAddr: 0x10000AB88, symSize: 0x18 }
  - { offsetInCU: 0x17613, offset: 0x17613, size: 0x8, addend: 0x0, symName: __ZNSt3__16vectorIfNS_9allocatorIfEEE11__vallocateB7v160006Em, symObjAddr: 0x666C, symBinAddr: 0x10000ABA0, symSize: 0xAC }
  - { offsetInCU: 0x17657, offset: 0x17657, size: 0x8, addend: 0x0, symName: __ZNSt3__16vectorIfNS_9allocatorIfEEE18__construct_at_endIPKfLi0EEEvT_S7_m, symObjAddr: 0x6718, symBinAddr: 0x10000AC4C, symSize: 0x8C }
  - { offsetInCU: 0x176CA, offset: 0x176CA, size: 0x8, addend: 0x0, symName: __ZNKSt16initializer_listIfE5beginB7v160006Ev, symObjAddr: 0x67A4, symBinAddr: 0x10000ACD8, symSize: 0x18 }
  - { offsetInCU: 0x176F0, offset: 0x176F0, size: 0x8, addend: 0x0, symName: __ZNKSt16initializer_listIfE3endB7v160006Ev, symObjAddr: 0x67BC, symBinAddr: 0x10000ACF0, symSize: 0x20 }
  - { offsetInCU: 0x17716, offset: 0x17716, size: 0x8, addend: 0x0, symName: __ZNSt3__128__exception_guard_exceptionsINS_6vectorIfNS_9allocatorIfEEE16__destroy_vectorEE10__completeB7v160006Ev, symObjAddr: 0x67DC, symBinAddr: 0x10000AD10, symSize: 0x1C }
  - { offsetInCU: 0x1773C, offset: 0x1773C, size: 0x8, addend: 0x0, symName: __ZNSt3__128__exception_guard_exceptionsINS_6vectorIfNS_9allocatorIfEEE16__destroy_vectorEED1B7v160006Ev, symObjAddr: 0x67F8, symBinAddr: 0x10000AD2C, symSize: 0x2C }
  - { offsetInCU: 0x17766, offset: 0x17766, size: 0x8, addend: 0x0, symName: __ZNSt3__117__compressed_pairIPfNS_9allocatorIfEEEC2B7v160006IDnNS_18__default_init_tagEEEOT_OT0_, symObjAddr: 0x6824, symBinAddr: 0x10000AD58, symSize: 0x40 }
  - { offsetInCU: 0x177BE, offset: 0x177BE, size: 0x8, addend: 0x0, symName: __ZNSt3__122__compressed_pair_elemIPfLi0ELb0EEC2B7v160006IDnvEEOT_, symObjAddr: 0x6864, symBinAddr: 0x10000AD98, symSize: 0x1C }
  - { offsetInCU: 0x17800, offset: 0x17800, size: 0x8, addend: 0x0, symName: __ZNSt3__122__compressed_pair_elemINS_9allocatorIfEELi1ELb1EEC2B7v160006ENS_18__default_init_tagE, symObjAddr: 0x6880, symBinAddr: 0x10000ADB4, symSize: 0x2C }
  - { offsetInCU: 0x17835, offset: 0x17835, size: 0x8, addend: 0x0, symName: __ZNSt3__19allocatorIfEC2B7v160006Ev, symObjAddr: 0x68AC, symBinAddr: 0x10000ADE0, symSize: 0x2C }
  - { offsetInCU: 0x1785F, offset: 0x1785F, size: 0x8, addend: 0x0, symName: __ZNSt3__116__non_trivial_ifILb1ENS_9allocatorIfEEEC2B7v160006Ev, symObjAddr: 0x68D8, symBinAddr: 0x10000AE0C, symSize: 0x14 }
  - { offsetInCU: 0x17889, offset: 0x17889, size: 0x8, addend: 0x0, symName: __ZNSt3__128__exception_guard_exceptionsINS_6vectorIfNS_9allocatorIfEEE16__destroy_vectorEEC1B7v160006ES5_, symObjAddr: 0x68EC, symBinAddr: 0x10000AE20, symSize: 0x34 }
  - { offsetInCU: 0x178C1, offset: 0x178C1, size: 0x8, addend: 0x0, symName: __ZNSt3__128__exception_guard_exceptionsINS_6vectorIfNS_9allocatorIfEEE16__destroy_vectorEEC2B7v160006ES5_, symObjAddr: 0x6920, symBinAddr: 0x10000AE54, symSize: 0x24 }
  - { offsetInCU: 0x178F9, offset: 0x178F9, size: 0x8, addend: 0x0, symName: __ZNSt3__16vectorIfNS_9allocatorIfEEE16__destroy_vectorC2ERS3_, symObjAddr: 0x6944, symBinAddr: 0x10000AE78, symSize: 0x20 }
  - { offsetInCU: 0x17932, offset: 0x17932, size: 0x8, addend: 0x0, symName: __ZNKSt3__16vectorIfNS_9allocatorIfEEE8max_sizeEv, symObjAddr: 0x6964, symBinAddr: 0x10000AE98, symSize: 0x60 }
  - { offsetInCU: 0x1795A, offset: 0x1795A, size: 0x8, addend: 0x0, symName: __ZNKSt3__16vectorIfNS_9allocatorIfEEE20__throw_length_errorB7v160006Ev, symObjAddr: 0x69C4, symBinAddr: 0x10000AEF8, symSize: 0x1C }
  - { offsetInCU: 0x17980, offset: 0x17980, size: 0x8, addend: 0x0, symName: __ZNSt3__16vectorIfNS_9allocatorIfEEE7__allocB7v160006Ev, symObjAddr: 0x6A20, symBinAddr: 0x10000AF54, symSize: 0x28 }
  - { offsetInCU: 0x179A6, offset: 0x179A6, size: 0x8, addend: 0x0, symName: __ZNSt3__16vectorIfNS_9allocatorIfEEE9__end_capB7v160006Ev, symObjAddr: 0x6A48, symBinAddr: 0x10000AF7C, symSize: 0x28 }
  - { offsetInCU: 0x179CC, offset: 0x179CC, size: 0x8, addend: 0x0, symName: __ZNKSt3__16vectorIfNS_9allocatorIfEEE14__annotate_newB7v160006Em, symObjAddr: 0x6A70, symBinAddr: 0x10000AFA4, symSize: 0xAC }
  - { offsetInCU: 0x17A0B, offset: 0x17A0B, size: 0x8, addend: 0x0, symName: __ZNSt3__116allocator_traitsINS_9allocatorIfEEE8max_sizeB7v160006IS2_vEEmRKS2_, symObjAddr: 0x6B1C, symBinAddr: 0x10000B050, symSize: 0x24 }
  - { offsetInCU: 0x17A39, offset: 0x17A39, size: 0x8, addend: 0x0, symName: __ZNKSt3__16vectorIfNS_9allocatorIfEEE7__allocB7v160006Ev, symObjAddr: 0x6B40, symBinAddr: 0x10000B074, symSize: 0x28 }
  - { offsetInCU: 0x17A5F, offset: 0x17A5F, size: 0x8, addend: 0x0, symName: __ZNKSt3__19allocatorIfE8max_sizeB7v160006Ev, symObjAddr: 0x6B68, symBinAddr: 0x10000B09C, symSize: 0x14 }
  - { offsetInCU: 0x17A85, offset: 0x17A85, size: 0x8, addend: 0x0, symName: __ZNKSt3__117__compressed_pairIPfNS_9allocatorIfEEE6secondB7v160006Ev, symObjAddr: 0x6B7C, symBinAddr: 0x10000B0B0, symSize: 0x24 }
  - { offsetInCU: 0x17AAB, offset: 0x17AAB, size: 0x8, addend: 0x0, symName: __ZNKSt3__122__compressed_pair_elemINS_9allocatorIfEELi1ELb1EE5__getB7v160006Ev, symObjAddr: 0x6BA0, symBinAddr: 0x10000B0D4, symSize: 0x14 }
  - { offsetInCU: 0x17AD1, offset: 0x17AD1, size: 0x8, addend: 0x0, symName: __ZNSt3__19allocatorIfE8allocateB7v160006Em, symObjAddr: 0x6BB4, symBinAddr: 0x10000B0E8, symSize: 0x58 }
  - { offsetInCU: 0x17B05, offset: 0x17B05, size: 0x8, addend: 0x0, symName: __ZNSt3__117__compressed_pairIPfNS_9allocatorIfEEE6secondB7v160006Ev, symObjAddr: 0x6C0C, symBinAddr: 0x10000B140, symSize: 0x24 }
  - { offsetInCU: 0x17B2B, offset: 0x17B2B, size: 0x8, addend: 0x0, symName: __ZNSt3__122__compressed_pair_elemINS_9allocatorIfEELi1ELb1EE5__getB7v160006Ev, symObjAddr: 0x6C30, symBinAddr: 0x10000B164, symSize: 0x14 }
  - { offsetInCU: 0x17B51, offset: 0x17B51, size: 0x8, addend: 0x0, symName: __ZNSt3__117__compressed_pairIPfNS_9allocatorIfEEE5firstB7v160006Ev, symObjAddr: 0x6C44, symBinAddr: 0x10000B178, symSize: 0x24 }
  - { offsetInCU: 0x17B77, offset: 0x17B77, size: 0x8, addend: 0x0, symName: __ZNSt3__122__compressed_pair_elemIPfLi0ELb0EE5__getB7v160006Ev, symObjAddr: 0x6C68, symBinAddr: 0x10000B19C, symSize: 0x14 }
  - { offsetInCU: 0x17B9D, offset: 0x17B9D, size: 0x8, addend: 0x0, symName: __ZNKSt3__16vectorIfNS_9allocatorIfEEE31__annotate_contiguous_containerB7v160006EPKvS5_S5_S5_, symObjAddr: 0x6C7C, symBinAddr: 0x10000B1B0, symSize: 0x20 }
  - { offsetInCU: 0x17BEF, offset: 0x17BEF, size: 0x8, addend: 0x0, symName: __ZNKSt3__16vectorIfNS_9allocatorIfEEE4dataB7v160006Ev, symObjAddr: 0x6C9C, symBinAddr: 0x10000B1D0, symSize: 0x28 }
  - { offsetInCU: 0x17C15, offset: 0x17C15, size: 0x8, addend: 0x0, symName: __ZNKSt3__16vectorIfNS_9allocatorIfEEE8capacityB7v160006Ev, symObjAddr: 0x6CC4, symBinAddr: 0x10000B1F8, symSize: 0x40 }
  - { offsetInCU: 0x17C3B, offset: 0x17C3B, size: 0x8, addend: 0x0, symName: __ZNKSt3__16vectorIfNS_9allocatorIfEEE9__end_capB7v160006Ev, symObjAddr: 0x6D18, symBinAddr: 0x10000B24C, symSize: 0x28 }
  - { offsetInCU: 0x17C61, offset: 0x17C61, size: 0x8, addend: 0x0, symName: __ZNKSt3__117__compressed_pairIPfNS_9allocatorIfEEE5firstB7v160006Ev, symObjAddr: 0x6D40, symBinAddr: 0x10000B274, symSize: 0x24 }
  - { offsetInCU: 0x17C87, offset: 0x17C87, size: 0x8, addend: 0x0, symName: __ZNKSt3__122__compressed_pair_elemIPfLi0ELb0EE5__getB7v160006Ev, symObjAddr: 0x6D64, symBinAddr: 0x10000B298, symSize: 0x14 }
  - { offsetInCU: 0x17CC6, offset: 0x17CC6, size: 0x8, addend: 0x0, symName: __ZNSt3__16vectorIfNS_9allocatorIfEEE21_ConstructTransactionC1B7v160006ERS3_m, symObjAddr: 0x6D78, symBinAddr: 0x10000B2AC, symSize: 0x3C }
  - { offsetInCU: 0x17D0E, offset: 0x17D0E, size: 0x8, addend: 0x0, symName: __ZNSt3__16vectorIfNS_9allocatorIfEEE21_ConstructTransactionD1B7v160006Ev, symObjAddr: 0x6DEC, symBinAddr: 0x10000B320, symSize: 0x2C }
  - { offsetInCU: 0x17D38, offset: 0x17D38, size: 0x8, addend: 0x0, symName: __ZNSt3__16vectorIfNS_9allocatorIfEEE21_ConstructTransactionC2B7v160006ERS3_m, symObjAddr: 0x6E18, symBinAddr: 0x10000B34C, symSize: 0x44 }
  - { offsetInCU: 0x17DA3, offset: 0x17DA3, size: 0x8, addend: 0x0, symName: __ZNKSt3__114__copy_trivialclB7v160006IKffLi0EEENS_4pairIPT_PT0_EES5_S5_S7_, symObjAddr: 0x7038, symBinAddr: 0x10000B56C, symSize: 0x48 }
  - { offsetInCU: 0x17E29, offset: 0x17E29, size: 0x8, addend: 0x0, symName: __ZNSt3__14pairIPKfS2_EC1B7v160006IS2_S2_LPv0EEEOT_OT0_, symObjAddr: 0x71A0, symBinAddr: 0x10000B6D4, symSize: 0x3C }
  - { offsetInCU: 0x17E87, offset: 0x17E87, size: 0x8, addend: 0x0, symName: __ZNSt3__14pairIPKfS2_EC2B7v160006IS2_S2_LPv0EEEOT_OT0_, symObjAddr: 0x71DC, symBinAddr: 0x10000B710, symSize: 0x34 }
  - { offsetInCU: 0x17EE5, offset: 0x17EE5, size: 0x8, addend: 0x0, symName: __ZNSt3__118__unwrap_iter_implIPKfLb1EE8__unwrapB7v160006ES2_, symObjAddr: 0x7210, symBinAddr: 0x10000B744, symSize: 0x24 }
  - { offsetInCU: 0x17F12, offset: 0x17F12, size: 0x8, addend: 0x0, symName: __ZNSt3__14pairIPKfPfEC1B7v160006IRS2_S3_LPv0EEEOT_OT0_, symObjAddr: 0x7304, symBinAddr: 0x10000B838, symSize: 0x3C }
  - { offsetInCU: 0x17F70, offset: 0x17F70, size: 0x8, addend: 0x0, symName: __ZNSt3__14pairIPKfPfEC2B7v160006IRS2_S3_LPv0EEEOT_OT0_, symObjAddr: 0x7340, symBinAddr: 0x10000B874, symSize: 0x34 }
  - { offsetInCU: 0x17FCE, offset: 0x17FCE, size: 0x8, addend: 0x0, symName: __ZNSt3__118__unwrap_iter_implIPfLb1EE8__unwrapB7v160006ES1_, symObjAddr: 0x7374, symBinAddr: 0x10000B8A8, symSize: 0x24 }
  - { offsetInCU: 0x17FF1, offset: 0x17FF1, size: 0x8, addend: 0x0, symName: __ZNSt3__14pairIPKfPfEC1B7v160006IS2_S3_LPv0EEEOT_OT0_, symObjAddr: 0x7398, symBinAddr: 0x10000B8CC, symSize: 0x3C }
  - { offsetInCU: 0x1804F, offset: 0x1804F, size: 0x8, addend: 0x0, symName: __ZNSt3__14pairIPKfPfEC2B7v160006IS2_S3_LPv0EEEOT_OT0_, symObjAddr: 0x73D4, symBinAddr: 0x10000B908, symSize: 0x34 }
  - { offsetInCU: 0x180AD, offset: 0x180AD, size: 0x8, addend: 0x0, symName: __ZNSt3__118__unwrap_iter_implIPKfLb1EE8__rewrapB7v160006ES2_S2_, symObjAddr: 0x7444, symBinAddr: 0x10000B978, symSize: 0x50 }
  - { offsetInCU: 0x180DE, offset: 0x180DE, size: 0x8, addend: 0x0, symName: __ZNSt3__118__unwrap_iter_implIPfLb1EE8__rewrapB7v160006ES1_S1_, symObjAddr: 0x7494, symBinAddr: 0x10000B9C8, symSize: 0x50 }
  - { offsetInCU: 0x1810F, offset: 0x1810F, size: 0x8, addend: 0x0, symName: __ZNSt3__16vectorIfNS_9allocatorIfEEE21_ConstructTransactionD2B7v160006Ev, symObjAddr: 0x74E4, symBinAddr: 0x10000BA18, symSize: 0x20 }
  - { offsetInCU: 0x18139, offset: 0x18139, size: 0x8, addend: 0x0, symName: __ZNSt3__128__exception_guard_exceptionsINS_6vectorIfNS_9allocatorIfEEE16__destroy_vectorEED2B7v160006Ev, symObjAddr: 0x7504, symBinAddr: 0x10000BA38, symSize: 0x50 }
  - { offsetInCU: 0x18163, offset: 0x18163, size: 0x8, addend: 0x0, symName: __ZNSt3__16vectorIfNS_9allocatorIfEEE16__destroy_vectorclB7v160006Ev, symObjAddr: 0x7554, symBinAddr: 0x10000BA88, symSize: 0x9C }
  - { offsetInCU: 0x18189, offset: 0x18189, size: 0x8, addend: 0x0, symName: __ZNKSt3__16vectorIfNS_9allocatorIfEEE17__annotate_deleteB7v160006Ev, symObjAddr: 0x75F0, symBinAddr: 0x10000BB24, symSize: 0xB8 }
  - { offsetInCU: 0x181AF, offset: 0x181AF, size: 0x8, addend: 0x0, symName: __ZNSt3__16vectorIfNS_9allocatorIfEEE7__clearB7v160006Ev, symObjAddr: 0x76B8, symBinAddr: 0x10000BBEC, symSize: 0x28 }
  - { offsetInCU: 0x181D5, offset: 0x181D5, size: 0x8, addend: 0x0, symName: __ZNSt3__116allocator_traitsINS_9allocatorIfEEE10deallocateB7v160006ERS2_Pfm, symObjAddr: 0x76E0, symBinAddr: 0x10000BC14, symSize: 0x34 }
  - { offsetInCU: 0x18217, offset: 0x18217, size: 0x8, addend: 0x0, symName: __ZNSt3__16vectorIfNS_9allocatorIfEEE22__base_destruct_at_endB7v160006EPf, symObjAddr: 0x7714, symBinAddr: 0x10000BC48, symSize: 0x8C }
  - { offsetInCU: 0x1825B, offset: 0x1825B, size: 0x8, addend: 0x0, symName: __ZNSt3__116allocator_traitsINS_9allocatorIfEEE7destroyB7v160006IfvEEvRS2_PT_, symObjAddr: 0x77A0, symBinAddr: 0x10000BCD4, symSize: 0x2C }
  - { offsetInCU: 0x18298, offset: 0x18298, size: 0x8, addend: 0x0, symName: __ZNSt3__19allocatorIfE7destroyB7v160006EPf, symObjAddr: 0x77CC, symBinAddr: 0x10000BD00, symSize: 0x14 }
  - { offsetInCU: 0x182CC, offset: 0x182CC, size: 0x8, addend: 0x0, symName: __ZNSt3__19allocatorIfE10deallocateB7v160006EPfm, symObjAddr: 0x77E0, symBinAddr: 0x10000BD14, symSize: 0x40 }
  - { offsetInCU: 0x1830E, offset: 0x1830E, size: 0x8, addend: 0x0, symName: __ZNSt3__16vectorIfNS_9allocatorIfEEED2B7v160006Ev, symObjAddr: 0x7820, symBinAddr: 0x10000BD54, symSize: 0x44 }
  - { offsetInCU: 0x7C6, offset: 0x18C9E, size: 0x8, addend: 0x0, symName: __ZN3glm6lookAtIfLNS_9qualifierE0EEENS_3matILi4ELi4ET_XT0_EEERKNS_3vecILi3ES3_XT0_EEES8_S8_, symObjAddr: 0x2F8, symBinAddr: 0x10000C04C, symSize: 0x34 }
  - { offsetInCU: 0x821, offset: 0x18CF9, size: 0x8, addend: 0x0, symName: __ZN3glm11perspectiveIfEENS_3matILi4ELi4ET_LNS_9qualifierE0EEES2_S2_S2_S2_, symObjAddr: 0x39C, symBinAddr: 0x10000C080, symSize: 0x3C }
  - { offsetInCU: 0x885, offset: 0x18D5D, size: 0x8, addend: 0x0, symName: __ZN3glm7radiansIfEET_S1_, symObjAddr: 0x3D8, symBinAddr: 0x10000C0BC, symSize: 0x24 }
  - { offsetInCU: 0x8BA, offset: 0x18D92, size: 0x8, addend: 0x0, symName: __ZN3glmmlIfLNS_9qualifierE0EEENS_3matILi4ELi4ET_XT0_EEERKS4_S6_, symObjAddr: 0x3FC, symBinAddr: 0x10000C0E0, symSize: 0x5AC }
  - { offsetInCU: 0x999, offset: 0x18E71, size: 0x8, addend: 0x0, symName: __ZN3glm9value_ptrIfLNS_9qualifierE0EEEPT_RNS_3matILi4ELi4ES2_XT0_EEE, symObjAddr: 0xAB0, symBinAddr: 0x10000C794, symSize: 0x28 }
  - { offsetInCU: 0x9D8, offset: 0x18EB0, size: 0x8, addend: 0x0, symName: __ZN3glmngIfLNS_9qualifierE0EEENS_3vecILi3ET_XT0_EEERKS4_, symObjAddr: 0x1268, symBinAddr: 0x10000CEA0, symSize: 0x54 }
  - { offsetInCU: 0xA19, offset: 0x18EF1, size: 0x8, addend: 0x0, symName: __ZN3glm9normalizeILi3EfLNS_9qualifierE0EEENS_3vecIXT_ET0_XT1_EEERKS4_, symObjAddr: 0x12BC, symBinAddr: 0x10000CEF4, symSize: 0x3C }
  - { offsetInCU: 0xA62, offset: 0x18F3A, size: 0x8, addend: 0x0, symName: __ZN3glm5crossIfLNS_9qualifierE0EEENS_3vecILi3ET_XT0_EEERKS4_S6_, symObjAddr: 0x12F8, symBinAddr: 0x10000CF30, symSize: 0x44 }
  - { offsetInCU: 0xAAF, offset: 0x18F87, size: 0x8, addend: 0x0, symName: __ZN3glm6rotateIfLNS_9qualifierE0EEENS_3vecILi3ET_XT0_EEERKS4_RKS3_S6_, symObjAddr: 0x133C, symBinAddr: 0x10000CF74, symSize: 0x70 }
  - { offsetInCU: 0xB0A, offset: 0x18FE2, size: 0x8, addend: 0x0, symName: __ZN3glm5angleILi3EfLNS_9qualifierE0EEET0_RKNS_3vecIXT_ES2_XT1_EEES6_, symObjAddr: 0x13AC, symBinAddr: 0x10000CFE4, symSize: 0x3C }
  - { offsetInCU: 0xCDE, offset: 0x191B6, size: 0x8, addend: 0x0, symName: __ZN3glm8lookAtRHIfLNS_9qualifierE0EEENS_3matILi4ELi4ET_XT0_EEERKNS_3vecILi3ES3_XT0_EEES8_S8_, symObjAddr: 0x17E4, symBinAddr: 0x10000D3E4, symSize: 0x2E4 }
  - { offsetInCU: 0xD74, offset: 0x1924C, size: 0x8, addend: 0x0, symName: __ZN3glmmiIfLNS_9qualifierE0EEENS_3vecILi3ET_XT0_EEERKS4_S6_, symObjAddr: 0x1AC8, symBinAddr: 0x10000D6C8, symSize: 0x70 }
  - { offsetInCU: 0xDC4, offset: 0x1929C, size: 0x8, addend: 0x0, symName: __ZN3glm3dotILi3EfLNS_9qualifierE0EEET0_RKNS_3vecIXT_ES2_XT1_EEES6_, symObjAddr: 0x1CCC, symBinAddr: 0x10000D8CC, symSize: 0x2C }
  - { offsetInCU: 0xE1B, offset: 0x192F3, size: 0x8, addend: 0x0, symName: __ZN3glmmlIfLNS_9qualifierE0EEENS_3vecILi3ET_XT0_EEERKS4_S6_, symObjAddr: 0x1D54, symBinAddr: 0x10000D954, symSize: 0x70 }
  - { offsetInCU: 0xE6B, offset: 0x19343, size: 0x8, addend: 0x0, symName: __ZN3glm16perspectiveRH_NOIfEENS_3matILi4ELi4ET_LNS_9qualifierE0EEES2_S2_S2_S2_, symObjAddr: 0x1DC4, symBinAddr: 0x10000D9C4, symSize: 0x1C8 }
  - { offsetInCU: 0xEE8, offset: 0x193C0, size: 0x8, addend: 0x0, symName: __ZN3glm3absIfEET_S1_, symObjAddr: 0x1F8C, symBinAddr: 0x10000DB8C, symSize: 0x24 }
  - { offsetInCU: 0xF1F, offset: 0x193F7, size: 0x8, addend: 0x0, symName: __ZN3glmplIfLNS_9qualifierE0EEENS_3vecILi4ET_XT0_EEERKS4_S6_, symObjAddr: 0x20AC, symBinAddr: 0x10000DCAC, symSize: 0x50 }
  - { offsetInCU: 0xF6F, offset: 0x19447, size: 0x8, addend: 0x0, symName: __ZN3glmmlIfLNS_9qualifierE0EEENS_3vecILi4ET_XT0_EEERKS4_RKS3_, symObjAddr: 0x20FC, symBinAddr: 0x10000DCFC, symSize: 0x54 }
  - { offsetInCU: 0xFBF, offset: 0x19497, size: 0x8, addend: 0x0, symName: __ZN3glmmlIfLNS_9qualifierE0EEENS_3vecILi3ET_XT0_EEERKS4_S3_, symObjAddr: 0x30C0, symBinAddr: 0x10000E184, symSize: 0x64 }
  - { offsetInCU: 0x100F, offset: 0x194E7, size: 0x8, addend: 0x0, symName: __ZN3glm11inversesqrtIfEET_S1_, symObjAddr: 0x3124, symBinAddr: 0x10000E1E8, symSize: 0x30 }
  - { offsetInCU: 0x1044, offset: 0x1951C, size: 0x8, addend: 0x0, symName: __ZN3glmmlIfLNS_9qualifierE0EEENS_3matILi3ELi3ET_XT0_EE8col_typeERKS4_RKNS4_8row_typeE, symObjAddr: 0x316C, symBinAddr: 0x10000E230, symSize: 0x1DC }
  - { offsetInCU: 0x1094, offset: 0x1956C, size: 0x8, addend: 0x0, symName: __ZN3glm6rotateIfLNS_9qualifierE0EEENS_3matILi4ELi4ET_XT0_EEES3_RKNS_3vecILi3ES3_XT0_EEE, symObjAddr: 0x3348, symBinAddr: 0x10000E40C, symSize: 0x50 }
  - { offsetInCU: 0x10E1, offset: 0x195B9, size: 0x8, addend: 0x0, symName: __ZN3glm6rotateIfLNS_9qualifierE0EEENS_3matILi4ELi4ET_XT0_EEERKS4_S3_RKNS_3vecILi3ES3_XT0_EEE, symObjAddr: 0x3564, symBinAddr: 0x10000E628, symSize: 0x8C0 }
  - { offsetInCU: 0x11A2, offset: 0x1967A, size: 0x8, addend: 0x0, symName: __ZN3glm5clampIfEET_S1_S1_S1_, symObjAddr: 0x4084, symBinAddr: 0x10000F148, symSize: 0x38 }
  - { offsetInCU: 0x11F7, offset: 0x196CF, size: 0x8, addend: 0x0, symName: __ZN3glm3minIfEET_S1_S1_, symObjAddr: 0x40BC, symBinAddr: 0x10000F180, symSize: 0x48 }
  - { offsetInCU: 0x123A, offset: 0x19712, size: 0x8, addend: 0x0, symName: __ZN3glm3maxIfEET_S1_S1_, symObjAddr: 0x4104, symBinAddr: 0x10000F1C8, symSize: 0x48 }
  - { offsetInCU: 0x5018, offset: 0x1D4F0, size: 0x8, addend: 0x0, symName: __ZNSt3__14endlB7v160006IcNS_11char_traitsIcEEEERNS_13basic_ostreamIT_T0_EES7_, symObjAddr: 0xB4C, symBinAddr: 0x10000C7E8, symSize: 0x58 }
  - { offsetInCU: 0x7613, offset: 0x1FAEB, size: 0x8, addend: 0x0, symName: __ZN6CameraC2EiiN3glm3vecILi3EfLNS0_9qualifierE0EEE, symObjAddr: 0x0, symBinAddr: 0x10000BD98, symSize: 0xE4 }
  - { offsetInCU: 0x7669, offset: 0x1FB41, size: 0x8, addend: 0x0, symName: __ZN3glm3matILi4ELi4EfLNS_9qualifierE0EEC1ERKf, symObjAddr: 0x128, symBinAddr: 0x10000BE7C, symSize: 0x34 }
  - { offsetInCU: 0x76A2, offset: 0x1FB7A, size: 0x8, addend: 0x0, symName: __ZN6CameraC1EiiN3glm3vecILi3EfLNS0_9qualifierE0EEE, symObjAddr: 0x15C, symBinAddr: 0x10000BEB0, symSize: 0x54 }
  - { offsetInCU: 0x76F8, offset: 0x1FBD0, size: 0x8, addend: 0x0, symName: __ZN6Camera12UpdateMatrixEfff, symObjAddr: 0x1B0, symBinAddr: 0x10000BF04, symSize: 0x148 }
  - { offsetInCU: 0x7768, offset: 0x1FC40, size: 0x8, addend: 0x0, symName: __ZN6Camera6MatrixER6ShaderPKc, symObjAddr: 0x9A8, symBinAddr: 0x10000C68C, symSize: 0x108 }
  - { offsetInCU: 0x77BB, offset: 0x1FC93, size: 0x8, addend: 0x0, symName: __ZNSt3__113basic_ostreamIcNS_11char_traitsIcEEElsB7v160006EPFRS3_S4_E, symObjAddr: 0xB20, symBinAddr: 0x10000C7BC, symSize: 0x2C }
  - { offsetInCU: 0x77EE, offset: 0x1FCC6, size: 0x8, addend: 0x0, symName: __ZN6Camera6InputsEP10GLFWwindow, symObjAddr: 0xBA4, symBinAddr: 0x10000C840, symSize: 0x60C }
  - { offsetInCU: 0x787E, offset: 0x1FD56, size: 0x8, addend: 0x0, symName: __ZN3glm3vecILi3EfLNS_9qualifierE0EEpLIfEERS2_RKNS0_ILi3ET_LS1_0EEE, symObjAddr: 0x1214, symBinAddr: 0x10000CE4C, symSize: 0x54 }
  - { offsetInCU: 0x78BC, offset: 0x1FD94, size: 0x8, addend: 0x0, symName: __ZN3glm3matILi4ELi4EfLNS_9qualifierE0EEC2ERKf, symObjAddr: 0x1420, symBinAddr: 0x10000D020, symSize: 0xA8 }
  - { offsetInCU: 0x78F5, offset: 0x1FDCD, size: 0x8, addend: 0x0, symName: __ZN3glm3vecILi4EfLNS_9qualifierE0EEC1IfiiiEET_T0_T1_T2_, symObjAddr: 0x14C8, symBinAddr: 0x10000D0C8, symSize: 0x4C }
  - { offsetInCU: 0x797D, offset: 0x1FE55, size: 0x8, addend: 0x0, symName: __ZN3glm3vecILi4EfLNS_9qualifierE0EEC1IifiiEET_T0_T1_T2_, symObjAddr: 0x1514, symBinAddr: 0x10000D114, symSize: 0x4C }
  - { offsetInCU: 0x7A05, offset: 0x1FEDD, size: 0x8, addend: 0x0, symName: __ZN3glm3vecILi4EfLNS_9qualifierE0EEC1IiifiEET_T0_T1_T2_, symObjAddr: 0x1560, symBinAddr: 0x10000D160, symSize: 0x4C }
  - { offsetInCU: 0x7A8D, offset: 0x1FF65, size: 0x8, addend: 0x0, symName: __ZN3glm3vecILi4EfLNS_9qualifierE0EEC1IiiifEET_T0_T1_T2_, symObjAddr: 0x15AC, symBinAddr: 0x10000D1AC, symSize: 0x4C }
  - { offsetInCU: 0x7B16, offset: 0x1FFEE, size: 0x8, addend: 0x0, symName: __ZN3glm3vecILi4EfLNS_9qualifierE0EEC2IfiiiEET_T0_T1_T2_, symObjAddr: 0x15F8, symBinAddr: 0x10000D1F8, symSize: 0x50 }
  - { offsetInCU: 0x7B9E, offset: 0x20076, size: 0x8, addend: 0x0, symName: __ZN3glm3vecILi4EfLNS_9qualifierE0EEC2IifiiEET_T0_T1_T2_, symObjAddr: 0x1648, symBinAddr: 0x10000D248, symSize: 0x50 }
  - { offsetInCU: 0x7C26, offset: 0x200FE, size: 0x8, addend: 0x0, symName: __ZN3glm3vecILi4EfLNS_9qualifierE0EEC2IiifiEET_T0_T1_T2_, symObjAddr: 0x1698, symBinAddr: 0x10000D298, symSize: 0x50 }
  - { offsetInCU: 0x7CAE, offset: 0x20186, size: 0x8, addend: 0x0, symName: __ZN3glm3vecILi4EfLNS_9qualifierE0EEC2IiiifEET_T0_T1_T2_, symObjAddr: 0x16E8, symBinAddr: 0x10000D2E8, symSize: 0x50 }
  - { offsetInCU: 0x7D36, offset: 0x2020E, size: 0x8, addend: 0x0, symName: __ZN3glm6detail13compute_crossIfLNS_9qualifierE0ELb0EE4callERKNS_3vecILi3EfLS2_0EEES7_, symObjAddr: 0x1738, symBinAddr: 0x10000D338, symSize: 0xAC }
  - { offsetInCU: 0x7D67, offset: 0x2023F, size: 0x8, addend: 0x0, symName: __ZN3glm3matILi4ELi4EfLNS_9qualifierE0EEixEi, symObjAddr: 0x1B38, symBinAddr: 0x10000D738, symSize: 0x78 }
  - { offsetInCU: 0x7D9E, offset: 0x20276, size: 0x8, addend: 0x0, symName: __ZN3glm3vecILi4EfLNS_9qualifierE0EEixEi, symObjAddr: 0x1BB0, symBinAddr: 0x10000D7B0, symSize: 0x10C }
  - { offsetInCU: 0x7DD5, offset: 0x202AD, size: 0x8, addend: 0x0, symName: __ZN3glm3matILi4ELi4EfLNS_9qualifierE0EE6lengthEv, symObjAddr: 0x1CF8, symBinAddr: 0x10000D8F8, symSize: 0x8 }
  - { offsetInCU: 0x7DE9, offset: 0x202C1, size: 0x8, addend: 0x0, symName: __ZN3glm3vecILi4EfLNS_9qualifierE0EE6lengthEv, symObjAddr: 0x1D00, symBinAddr: 0x10000D900, symSize: 0x8 }
  - { offsetInCU: 0x7DFD, offset: 0x202D5, size: 0x8, addend: 0x0, symName: __ZN3glm6detail11compute_dotINS_3vecILi3EfLNS_9qualifierE0EEEfLb0EE4callERKS4_S7_, symObjAddr: 0x1D08, symBinAddr: 0x10000D908, symSize: 0x4C }
  - { offsetInCU: 0x7E4B, offset: 0x20323, size: 0x8, addend: 0x0, symName: __ZNSt3__114numeric_limitsIfE7epsilonB7v160006Ev, symObjAddr: 0x1FB0, symBinAddr: 0x10000DBB0, symSize: 0x14 }
  - { offsetInCU: 0x7E5E, offset: 0x20336, size: 0x8, addend: 0x0, symName: __Z3tanB7v160006f, symObjAddr: 0x1FC4, symBinAddr: 0x10000DBC4, symSize: 0x24 }
  - { offsetInCU: 0x7E8D, offset: 0x20365, size: 0x8, addend: 0x0, symName: __ZN3glm6detail11compute_absIfLb1EE4callEf, symObjAddr: 0x1FE8, symBinAddr: 0x10000DBE8, symSize: 0x44 }
  - { offsetInCU: 0x7EB0, offset: 0x20388, size: 0x8, addend: 0x0, symName: __ZNSt3__123__libcpp_numeric_limitsIfLb1EE7epsilonB7v160006Ev, symObjAddr: 0x202C, symBinAddr: 0x10000DC2C, symSize: 0x8 }
  - { offsetInCU: 0x7EC4, offset: 0x2039C, size: 0x8, addend: 0x0, symName: __ZNK3glm3matILi4ELi4EfLNS_9qualifierE0EEixEi, symObjAddr: 0x2034, symBinAddr: 0x10000DC34, symSize: 0x78 }
  - { offsetInCU: 0x7EFB, offset: 0x203D3, size: 0x8, addend: 0x0, symName: __ZNK3glm3vecILi4EfLNS_9qualifierE0EEixEi, symObjAddr: 0x2150, symBinAddr: 0x10000DD50, symSize: 0x10C }
  - { offsetInCU: 0x7F32, offset: 0x2040A, size: 0x8, addend: 0x0, symName: __ZN3glm3vecILi4EfLNS_9qualifierE0EEpLIfEERS2_RKNS0_ILi4ET_LS1_0EEE, symObjAddr: 0x226C, symBinAddr: 0x10000DE6C, symSize: 0x58 }
  - { offsetInCU: 0x7F73, offset: 0x2044B, size: 0x8, addend: 0x0, symName: __ZN3glm6detail16compute_vec4_addIfLNS_9qualifierE0ELb0EE4callERKNS_3vecILi4EfLS2_0EEES7_, symObjAddr: 0x22C4, symBinAddr: 0x10000DEC4, symSize: 0x88 }
  - { offsetInCU: 0x7FA3, offset: 0x2047B, size: 0x8, addend: 0x0, symName: __ZN3glm3vecILi4EfLNS_9qualifierE0EEC1Effff, symObjAddr: 0x234C, symBinAddr: 0x10000DF4C, symSize: 0x4C }
  - { offsetInCU: 0x8008, offset: 0x204E0, size: 0x8, addend: 0x0, symName: __ZN3glm3vecILi4EfLNS_9qualifierE0EEC2Effff, symObjAddr: 0x2398, symBinAddr: 0x10000DF98, symSize: 0x44 }
  - { offsetInCU: 0x806C, offset: 0x20544, size: 0x8, addend: 0x0, symName: __ZN3glm3vecILi4EfLNS_9qualifierE0EEmLIfEERS2_T_, symObjAddr: 0x23DC, symBinAddr: 0x10000DFDC, symSize: 0x60 }
  - { offsetInCU: 0x80AD, offset: 0x20585, size: 0x8, addend: 0x0, symName: __ZN3glm6detail16compute_vec4_mulIfLNS_9qualifierE0ELb0EE4callERKNS_3vecILi4EfLS2_0EEES7_, symObjAddr: 0x243C, symBinAddr: 0x10000E03C, symSize: 0x88 }
  - { offsetInCU: 0x80DD, offset: 0x205B5, size: 0x8, addend: 0x0, symName: __ZN3glm3vecILi4EfLNS_9qualifierE0EEC1Ef, symObjAddr: 0x24C4, symBinAddr: 0x10000E0C4, symSize: 0x34 }
  - { offsetInCU: 0x8118, offset: 0x205F0, size: 0x8, addend: 0x0, symName: __ZN3glm3vecILi4EfLNS_9qualifierE0EEC2Ef, symObjAddr: 0x24F8, symBinAddr: 0x10000E0F8, symSize: 0x38 }
  - { offsetInCU: 0x8170, offset: 0x20648, size: 0x8, addend: 0x0, symName: __ZN3glm6detail17compute_normalizeILi3EfLNS_9qualifierE0ELb0EE4callERKNS_3vecILi3EfLS2_0EEE, symObjAddr: 0x306C, symBinAddr: 0x10000E130, symSize: 0x54 }
  - { offsetInCU: 0x8193, offset: 0x2066B, size: 0x8, addend: 0x0, symName: __Z4sqrtB7v160006f, symObjAddr: 0x3154, symBinAddr: 0x10000E218, symSize: 0x18 }
  - { offsetInCU: 0x81C0, offset: 0x20698, size: 0x8, addend: 0x0, symName: __ZN3glm3matILi3ELi3EfLNS_9qualifierE0EEC1ERKNS0_ILi4ELi4EfLS1_0EEE, symObjAddr: 0x3398, symBinAddr: 0x10000E45C, symSize: 0x34 }
  - { offsetInCU: 0x81FA, offset: 0x206D2, size: 0x8, addend: 0x0, symName: __ZNK3glm3matILi3ELi3EfLNS_9qualifierE0EEixEi, symObjAddr: 0x33CC, symBinAddr: 0x10000E490, symSize: 0x80 }
  - { offsetInCU: 0x8230, offset: 0x20708, size: 0x8, addend: 0x0, symName: __ZNK3glm3vecILi3EfLNS_9qualifierE0EEixEi, symObjAddr: 0x344C, symBinAddr: 0x10000E510, symSize: 0x108 }
  - { offsetInCU: 0x8267, offset: 0x2073F, size: 0x8, addend: 0x0, symName: __ZN3glm3matILi3ELi3EfLNS_9qualifierE0EE6lengthEv, symObjAddr: 0x3554, symBinAddr: 0x10000E618, symSize: 0x8 }
  - { offsetInCU: 0x827B, offset: 0x20753, size: 0x8, addend: 0x0, symName: __ZN3glm3vecILi3EfLNS_9qualifierE0EE6lengthEv, symObjAddr: 0x355C, symBinAddr: 0x10000E620, symSize: 0x8 }
  - { offsetInCU: 0x828E, offset: 0x20766, size: 0x8, addend: 0x0, symName: __Z3cosB7v160006f, symObjAddr: 0x3E24, symBinAddr: 0x10000EEE8, symSize: 0x24 }
  - { offsetInCU: 0x82BC, offset: 0x20794, size: 0x8, addend: 0x0, symName: __Z3sinB7v160006f, symObjAddr: 0x3E48, symBinAddr: 0x10000EF0C, symSize: 0x24 }
  - { offsetInCU: 0x82EA, offset: 0x207C2, size: 0x8, addend: 0x0, symName: __ZN3glm3vecILi3EfLNS_9qualifierE0EEixEi, symObjAddr: 0x3E6C, symBinAddr: 0x10000EF30, symSize: 0x108 }
  - { offsetInCU: 0x8320, offset: 0x207F8, size: 0x8, addend: 0x0, symName: __ZN3glm3matILi3ELi3EfLNS_9qualifierE0EEC2ERKNS0_ILi4ELi4EfLS1_0EEE, symObjAddr: 0x3F74, symBinAddr: 0x10000F038, symSize: 0x7C }
  - { offsetInCU: 0x835A, offset: 0x20832, size: 0x8, addend: 0x0, symName: __ZN3glm3vecILi3EfLNS_9qualifierE0EEC1IfLS1_0EEERKNS0_ILi4ET_XT0_EEE, symObjAddr: 0x3FF0, symBinAddr: 0x10000F0B4, symSize: 0x34 }
  - { offsetInCU: 0x83A8, offset: 0x20880, size: 0x8, addend: 0x0, symName: __ZN3glm3vecILi3EfLNS_9qualifierE0EEC2IfLS1_0EEERKNS0_ILi4ET_XT0_EEE, symObjAddr: 0x4024, symBinAddr: 0x10000F0E8, symSize: 0x3C }
  - { offsetInCU: 0x83F4, offset: 0x208CC, size: 0x8, addend: 0x0, symName: __Z4acosB7v160006f, symObjAddr: 0x4060, symBinAddr: 0x10000F124, symSize: 0x24 }
  - { offsetInCU: 0x26, offset: 0x20967, size: 0x8, addend: 0x0, symName: __ZN6CircleC2ERK10Primitivesf, symObjAddr: 0x0, symBinAddr: 0x10000F210, symSize: 0x104 }
  - { offsetInCU: 0x323, offset: 0x20C64, size: 0x8, addend: 0x0, symName: __Z3powB7v160006IfiENSt3__19enable_ifIXaasr3std13is_arithmeticIT_EE5valuesr3std13is_arithmeticIT0_EE5valueENS0_9__promoteIS2_S3_vEEE4type4typeES2_S3_, symObjAddr: 0x734, symBinAddr: 0x10000F834, symSize: 0x3C }
  - { offsetInCU: 0x5DD8, offset: 0x26719, size: 0x8, addend: 0x0, symName: __ZN6CircleC2ERK10Primitivesf, symObjAddr: 0x0, symBinAddr: 0x10000F210, symSize: 0x104 }
  - { offsetInCU: 0x5E20, offset: 0x26761, size: 0x8, addend: 0x0, symName: __ZN3glm3vecILi3EfLNS_9qualifierE0EEC1IdiiEET_T0_T1_, symObjAddr: 0x148, symBinAddr: 0x10000F314, symSize: 0x44 }
  - { offsetInCU: 0x5E91, offset: 0x267D2, size: 0x8, addend: 0x0, symName: __ZN3glm3quaIfLNS_9qualifierE0EEC1Effff, symObjAddr: 0x1C0, symBinAddr: 0x10000F358, symSize: 0x4C }
  - { offsetInCU: 0x5EF5, offset: 0x26836, size: 0x8, addend: 0x0, symName: __ZN6CircleC1ERK10Primitivesf, symObjAddr: 0x20C, symBinAddr: 0x10000F3A4, symSize: 0x3C }
  - { offsetInCU: 0x5F3D, offset: 0x2687E, size: 0x8, addend: 0x0, symName: __ZN6Circle6MoveToEN3glm3vecILi3EfLNS0_9qualifierE0EEE, symObjAddr: 0x248, symBinAddr: 0x10000F3E0, symSize: 0x30 }
  - { offsetInCU: 0x5F73, offset: 0x268B4, size: 0x8, addend: 0x0, symName: __ZN6Circle4DrawER6ShaderR6Camera, symObjAddr: 0x278, symBinAddr: 0x10000F410, symSize: 0xD8 }
  - { offsetInCU: 0x5FB7, offset: 0x268F8, size: 0x8, addend: 0x0, symName: __ZN6Circle10ApplyForceEN3glm3vecILi3EfLNS0_9qualifierE0EEE, symObjAddr: 0x350, symBinAddr: 0x10000F4E8, symSize: 0x38 }
  - { offsetInCU: 0x5FEC, offset: 0x2692D, size: 0x8, addend: 0x0, symName: __ZN6Circle6UpdateEv, symObjAddr: 0x3DC, symBinAddr: 0x10000F520, symSize: 0x10 }
  - { offsetInCU: 0x6014, offset: 0x26955, size: 0x8, addend: 0x0, symName: __ZN6Circle9TranslateEN3glm3vecILi3EfLNS0_9qualifierE0EEE, symObjAddr: 0x3EC, symBinAddr: 0x10000F530, symSize: 0x38 }
  - { offsetInCU: 0x604A, offset: 0x2698B, size: 0x8, addend: 0x0, symName: __ZN6Circle13ResetPositionEv, symObjAddr: 0x424, symBinAddr: 0x10000F568, symSize: 0x78 }
  - { offsetInCU: 0x6072, offset: 0x269B3, size: 0x8, addend: 0x0, symName: __ZN3glm3vecILi3EfLNS_9qualifierE0EEC1IfiiEET_T0_T1_, symObjAddr: 0x49C, symBinAddr: 0x10000F5E0, symSize: 0x44 }
  - { offsetInCU: 0x60E3, offset: 0x26A24, size: 0x8, addend: 0x0, symName: __ZN6Circle14CheckCollisionERK9Rectangle, symObjAddr: 0x524, symBinAddr: 0x10000F624, symSize: 0x1F8 }
  - { offsetInCU: 0x6135, offset: 0x26A76, size: 0x8, addend: 0x0, symName: __Z3absB7v160006f, symObjAddr: 0x71C, symBinAddr: 0x10000F81C, symSize: 0x18 }
  - { offsetInCU: 0x6161, offset: 0x26AA2, size: 0x8, addend: 0x0, symName: __ZN3glm3vecILi3EfLNS_9qualifierE0EEC2IdiiEET_T0_T1_, symObjAddr: 0x7A8, symBinAddr: 0x10000F870, symSize: 0x44 }
  - { offsetInCU: 0x61D2, offset: 0x26B13, size: 0x8, addend: 0x0, symName: __ZN3glm3quaIfLNS_9qualifierE0EEC2Effff, symObjAddr: 0xB04, symBinAddr: 0x10000F8B4, symSize: 0x44 }
  - { offsetInCU: 0x6236, offset: 0x26B77, size: 0x8, addend: 0x0, symName: __ZN3glm3vecILi3EfLNS_9qualifierE0EEC2IfiiEET_T0_T1_, symObjAddr: 0xB48, symBinAddr: 0x10000F8F8, symSize: 0x40 }
  - { offsetInCU: 0x63EA, offset: 0x2CFDC, size: 0x8, addend: 0x0, symName: __ZNSt3__119__debug_db_insert_cB7v160006INS_6vectorIP4LineNS_9allocatorIS3_EEEEEEvPT_, symObjAddr: 0xEB4, symBinAddr: 0x100010798, symSize: 0x10 }
  - { offsetInCU: 0x641B, offset: 0x2D00D, size: 0x8, addend: 0x0, symName: __ZNSt3__119__debug_db_insert_cB7v160006INS_6vectorIP6CircleNS_9allocatorIS3_EEEEEEvPT_, symObjAddr: 0x1020, symBinAddr: 0x100010904, symSize: 0x10 }
  - { offsetInCU: 0x644C, offset: 0x2D03E, size: 0x8, addend: 0x0, symName: __ZNSt3__118__debug_db_erase_cB7v160006INS_6vectorIP4LineNS_9allocatorIS3_EEEEEEvPT_, symObjAddr: 0x12E4, symBinAddr: 0x100010BC8, symSize: 0x10 }
  - { offsetInCU: 0x647D, offset: 0x2D06F, size: 0x8, addend: 0x0, symName: __ZNSt3__112__to_addressB7v160006IP4LineEEPT_S4_, symObjAddr: 0x1400, symBinAddr: 0x100010CE4, symSize: 0x14 }
  - { offsetInCU: 0x64B2, offset: 0x2D0A4, size: 0x8, addend: 0x0, symName: __ZNSt3__118__debug_db_erase_cB7v160006INS_6vectorIP6CircleNS_9allocatorIS3_EEEEEEvPT_, symObjAddr: 0x18CC, symBinAddr: 0x100011088, symSize: 0x10 }
  - { offsetInCU: 0x64E3, offset: 0x2D0D5, size: 0x8, addend: 0x0, symName: __ZNSt3__112__to_addressB7v160006IP6CircleEEPT_S4_, symObjAddr: 0x19E8, symBinAddr: 0x1000111A4, symSize: 0x14 }
  - { offsetInCU: 0x6518, offset: 0x2D10A, size: 0x8, addend: 0x0, symName: __ZNSt3__119__allocate_at_leastB7v160006INS_9allocatorIP4LineEEEENS_19__allocation_resultINS_16allocator_traitsIT_E7pointerEEERS7_m, symObjAddr: 0x2524, symBinAddr: 0x100011AAC, symSize: 0x40 }
  - { offsetInCU: 0x655B, offset: 0x2D14D, size: 0x8, addend: 0x0, symName: __ZNSt3__142__uninitialized_allocator_move_if_noexceptB7v160006INS_9allocatorIP4LineEENS_16reverse_iteratorIPS3_EES7_S3_vEET1_RT_T0_SB_S8_, symObjAddr: 0x27BC, symBinAddr: 0x100011C60, symSize: 0x78 }
  - { offsetInCU: 0x65D8, offset: 0x2D1CA, size: 0x8, addend: 0x0, symName: __ZNSt3__14swapB7v160006IPP4LineEENS_9enable_ifIXaasr21is_move_constructibleIT_EE5valuesr18is_move_assignableIS5_EE5valueEvE4typeERS5_S8_, symObjAddr: 0x2880, symBinAddr: 0x100011D24, symSize: 0x3C }
  - { offsetInCU: 0x6629, offset: 0x2D21B, size: 0x8, addend: 0x0, symName: __ZNSt3__125__debug_db_invalidate_allB7v160006INS_6vectorIP4LineNS_9allocatorIS3_EEEEEEvPT_, symObjAddr: 0x2968, symBinAddr: 0x100011E0C, symSize: 0x10 }
  - { offsetInCU: 0x665A, offset: 0x2D24C, size: 0x8, addend: 0x0, symName: __ZNSt3__14moveB7v160006INS_16reverse_iteratorIPP4LineEES5_EET0_T_S7_S6_, symObjAddr: 0x2978, symBinAddr: 0x100011E1C, symSize: 0x78 }
  - { offsetInCU: 0x66B4, offset: 0x2D2A6, size: 0x8, addend: 0x0, symName: __ZNSt3__16__moveB7v160006INS_17_ClassicAlgPolicyENS_16reverse_iteratorIPP4LineEES6_S6_EENS_4pairIT0_T2_EES8_T1_S9_, symObjAddr: 0x29F0, symBinAddr: 0x100011E94, symSize: 0x64 }
  - { offsetInCU: 0x6720, offset: 0x2D312, size: 0x8, addend: 0x0, symName: __ZNSt3__123__dispatch_copy_or_moveB7v160006INS_17_ClassicAlgPolicyENS_11__move_loopIS1_EENS_14__move_trivialENS_16reverse_iteratorIPP4LineEES9_S9_EENS_4pairIT2_T4_EESB_T3_SC_, symObjAddr: 0x2A54, symBinAddr: 0x100011EF8, symSize: 0x64 }
  - { offsetInCU: 0x679E, offset: 0x2D390, size: 0x8, addend: 0x0, symName: __ZNSt3__121__unwrap_and_dispatchB7v160006INS_10__overloadINS_11__move_loopINS_17_ClassicAlgPolicyEEENS_14__move_trivialEEENS_16reverse_iteratorIPP4LineEESB_SB_Li0EEENS_4pairIT0_T2_EESD_T1_SE_, symObjAddr: 0x2AB8, symBinAddr: 0x100011F5C, symSize: 0x12C }
  - { offsetInCU: 0x682E, offset: 0x2D420, size: 0x8, addend: 0x0, symName: __ZNSt3__114__unwrap_rangeB7v160006INS_16reverse_iteratorIPP4LineEES5_EENS_4pairIT0_S7_EET_S9_, symObjAddr: 0x2BE4, symBinAddr: 0x100012088, symSize: 0x84 }
  - { offsetInCU: 0x69DF, offset: 0x2D5D1, size: 0x8, addend: 0x0, symName: __ZNSt3__113__unwrap_iterB7v160006INS_16reverse_iteratorIPP4LineEENS_18__unwrap_iter_implIS5_Lb0EEELi0EEEDTclsrT0_8__unwrapclsr3stdE7declvalIT_EEEES9_, symObjAddr: 0x2D08, symBinAddr: 0x1000121AC, symSize: 0x44 }
  - { offsetInCU: 0x6A23, offset: 0x2D615, size: 0x8, addend: 0x0, symName: __ZNSt3__19make_pairB7v160006INS_16reverse_iteratorIPP4LineEES5_EENS_4pairINS_18__unwrap_ref_decayIT_E4typeENS7_IT0_E4typeEEEOS8_OSB_, symObjAddr: 0x2D4C, symBinAddr: 0x1000121F0, symSize: 0x38 }
  - { offsetInCU: 0x6A72, offset: 0x2D664, size: 0x8, addend: 0x0, symName: __ZNSt3__114__rewrap_rangeB7v160006INS_16reverse_iteratorIPP4LineEES5_EET_S6_T0_, symObjAddr: 0x2D84, symBinAddr: 0x100012228, symSize: 0x5C }
  - { offsetInCU: 0x6ABE, offset: 0x2D6B0, size: 0x8, addend: 0x0, symName: __ZNSt3__113__rewrap_iterB7v160006INS_16reverse_iteratorIPP4LineEES5_NS_18__unwrap_iter_implIS5_Lb0EEEEET_S8_T0_, symObjAddr: 0x2DE0, symBinAddr: 0x100012284, symSize: 0x74 }
  - { offsetInCU: 0x6B13, offset: 0x2D705, size: 0x8, addend: 0x0, symName: __ZNSt3__1neB7v160006IPP4LineS3_EEbRKNS_16reverse_iteratorIT_EERKNS4_IT0_EE, symObjAddr: 0x2E54, symBinAddr: 0x1000122F8, symSize: 0x48 }
  - { offsetInCU: 0x6C44, offset: 0x2D836, size: 0x8, addend: 0x0, symName: __ZNSt3__119__allocate_at_leastB7v160006INS_9allocatorIP6CircleEEEENS_19__allocation_resultINS_16allocator_traitsIT_E7pointerEEERS7_m, symObjAddr: 0x3934, symBinAddr: 0x100012DD8, symSize: 0x40 }
  - { offsetInCU: 0x6C87, offset: 0x2D879, size: 0x8, addend: 0x0, symName: __ZNSt3__142__uninitialized_allocator_move_if_noexceptB7v160006INS_9allocatorIP6CircleEENS_16reverse_iteratorIPS3_EES7_S3_vEET1_RT_T0_SB_S8_, symObjAddr: 0x3AE8, symBinAddr: 0x100012F8C, symSize: 0x78 }
  - { offsetInCU: 0x6D04, offset: 0x2D8F6, size: 0x8, addend: 0x0, symName: __ZNSt3__14swapB7v160006IPP6CircleEENS_9enable_ifIXaasr21is_move_constructibleIT_EE5valuesr18is_move_assignableIS5_EE5valueEvE4typeERS5_S8_, symObjAddr: 0x3BAC, symBinAddr: 0x100013050, symSize: 0x3C }
  - { offsetInCU: 0x6D55, offset: 0x2D947, size: 0x8, addend: 0x0, symName: __ZNSt3__125__debug_db_invalidate_allB7v160006INS_6vectorIP6CircleNS_9allocatorIS3_EEEEEEvPT_, symObjAddr: 0x3C94, symBinAddr: 0x100013138, symSize: 0x10 }
  - { offsetInCU: 0x6D86, offset: 0x2D978, size: 0x8, addend: 0x0, symName: __ZNSt3__14moveB7v160006INS_16reverse_iteratorIPP6CircleEES5_EET0_T_S7_S6_, symObjAddr: 0x3CA4, symBinAddr: 0x100013148, symSize: 0x78 }
  - { offsetInCU: 0x6DE0, offset: 0x2D9D2, size: 0x8, addend: 0x0, symName: __ZNSt3__16__moveB7v160006INS_17_ClassicAlgPolicyENS_16reverse_iteratorIPP6CircleEES6_S6_EENS_4pairIT0_T2_EES8_T1_S9_, symObjAddr: 0x3D1C, symBinAddr: 0x1000131C0, symSize: 0x64 }
  - { offsetInCU: 0x6E4C, offset: 0x2DA3E, size: 0x8, addend: 0x0, symName: __ZNSt3__123__dispatch_copy_or_moveB7v160006INS_17_ClassicAlgPolicyENS_11__move_loopIS1_EENS_14__move_trivialENS_16reverse_iteratorIPP6CircleEES9_S9_EENS_4pairIT2_T4_EESB_T3_SC_, symObjAddr: 0x3D80, symBinAddr: 0x100013224, symSize: 0x64 }
  - { offsetInCU: 0x6ECA, offset: 0x2DABC, size: 0x8, addend: 0x0, symName: __ZNSt3__121__unwrap_and_dispatchB7v160006INS_10__overloadINS_11__move_loopINS_17_ClassicAlgPolicyEEENS_14__move_trivialEEENS_16reverse_iteratorIPP6CircleEESB_SB_Li0EEENS_4pairIT0_T2_EESD_T1_SE_, symObjAddr: 0x3DE4, symBinAddr: 0x100013288, symSize: 0x12C }
  - { offsetInCU: 0x6F5A, offset: 0x2DB4C, size: 0x8, addend: 0x0, symName: __ZNSt3__114__unwrap_rangeB7v160006INS_16reverse_iteratorIPP6CircleEES5_EENS_4pairIT0_S7_EET_S9_, symObjAddr: 0x3F10, symBinAddr: 0x1000133B4, symSize: 0x84 }
  - { offsetInCU: 0x707A, offset: 0x2DC6C, size: 0x8, addend: 0x0, symName: __ZNSt3__113__unwrap_iterB7v160006INS_16reverse_iteratorIPP6CircleEENS_18__unwrap_iter_implIS5_Lb0EEELi0EEEDTclsrT0_8__unwrapclsr3stdE7declvalIT_EEEES9_, symObjAddr: 0x4034, symBinAddr: 0x1000134D8, symSize: 0x44 }
  - { offsetInCU: 0x70BE, offset: 0x2DCB0, size: 0x8, addend: 0x0, symName: __ZNSt3__19make_pairB7v160006INS_16reverse_iteratorIPP6CircleEES5_EENS_4pairINS_18__unwrap_ref_decayIT_E4typeENS7_IT0_E4typeEEEOS8_OSB_, symObjAddr: 0x4078, symBinAddr: 0x10001351C, symSize: 0x38 }
  - { offsetInCU: 0x710D, offset: 0x2DCFF, size: 0x8, addend: 0x0, symName: __ZNSt3__114__rewrap_rangeB7v160006INS_16reverse_iteratorIPP6CircleEES5_EET_S6_T0_, symObjAddr: 0x40B0, symBinAddr: 0x100013554, symSize: 0x5C }
  - { offsetInCU: 0x7159, offset: 0x2DD4B, size: 0x8, addend: 0x0, symName: __ZNSt3__113__rewrap_iterB7v160006INS_16reverse_iteratorIPP6CircleEES5_NS_18__unwrap_iter_implIS5_Lb0EEEEET_S8_T0_, symObjAddr: 0x410C, symBinAddr: 0x1000135B0, symSize: 0x74 }
  - { offsetInCU: 0x71AE, offset: 0x2DDA0, size: 0x8, addend: 0x0, symName: __ZNSt3__1neB7v160006IPP6CircleS3_EEbRKNS_16reverse_iteratorIT_EERKNS4_IT0_EE, symObjAddr: 0x4180, symBinAddr: 0x100013624, symSize: 0x48 }
  - { offsetInCU: 0x7D21, offset: 0x2E913, size: 0x8, addend: 0x0, symName: __ZNSt3__16vectorIP4LineNS_9allocatorIS2_EEE26__swap_out_circular_bufferERNS_14__split_bufferIS2_RS4_EE, symObjAddr: 0x1F88, symBinAddr: 0x100011744, symSize: 0x118 }
  - { offsetInCU: 0x7D78, offset: 0x2E96A, size: 0x8, addend: 0x0, symName: __ZNSt3__16vectorIP6CircleNS_9allocatorIS2_EEE26__swap_out_circular_bufferERNS_14__split_bufferIS2_RS4_EE, symObjAddr: 0x35CC, symBinAddr: 0x100012A70, symSize: 0x118 }
  - { offsetInCU: 0x9DB9, offset: 0x309AB, size: 0x8, addend: 0x0, symName: __ZN14DoublePendulumC2ERK10PrimitivesN3glm3vecILi3EfLNS3_9qualifierE0EEE, symObjAddr: 0x0, symBinAddr: 0x10000F938, symSize: 0x2CC }
  - { offsetInCU: 0x9E01, offset: 0x309F3, size: 0x8, addend: 0x0, symName: __ZNSt3__16vectorIP4LineNS_9allocatorIS2_EEEC1B7v160006Ev, symObjAddr: 0x2CC, symBinAddr: 0x10000FC04, symSize: 0x2C }
  - { offsetInCU: 0x9E2B, offset: 0x30A1D, size: 0x8, addend: 0x0, symName: __ZNSt3__16vectorIP6CircleNS_9allocatorIS2_EEEC1B7v160006Ev, symObjAddr: 0x2F8, symBinAddr: 0x10000FC30, symSize: 0x2C }
  - { offsetInCU: 0x9E55, offset: 0x30A47, size: 0x8, addend: 0x0, symName: __ZNSt3__16vectorIP4LineNS_9allocatorIS2_EEE9push_backB7v160006EOS2_, symObjAddr: 0x324, symBinAddr: 0x10000FC5C, symSize: 0x6C }
  - { offsetInCU: 0x9E8C, offset: 0x30A7E, size: 0x8, addend: 0x0, symName: __ZNSt3__16vectorIP6CircleNS_9allocatorIS2_EEE9push_backB7v160006EOS2_, symObjAddr: 0x390, symBinAddr: 0x10000FCC8, symSize: 0x6C }
  - { offsetInCU: 0x9EC4, offset: 0x30AB6, size: 0x8, addend: 0x0, symName: __ZN14DoublePendulum22_calculateBobPositionsEv, symObjAddr: 0x3FC, symBinAddr: 0x10000FD34, symSize: 0x23C }
  - { offsetInCU: 0x9F07, offset: 0x30AF9, size: 0x8, addend: 0x0, symName: __ZNSt3__16vectorIP6CircleNS_9allocatorIS2_EEED1B7v160006Ev, symObjAddr: 0x638, symBinAddr: 0x10000FF70, symSize: 0x2C }
  - { offsetInCU: 0x9F31, offset: 0x30B23, size: 0x8, addend: 0x0, symName: __ZNSt3__16vectorIP4LineNS_9allocatorIS2_EEED1B7v160006Ev, symObjAddr: 0x664, symBinAddr: 0x10000FF9C, symSize: 0x2C }
  - { offsetInCU: 0x9F5B, offset: 0x30B4D, size: 0x8, addend: 0x0, symName: __ZN14DoublePendulumC1ERK10PrimitivesN3glm3vecILi3EfLNS3_9qualifierE0EEE, symObjAddr: 0x690, symBinAddr: 0x10000FFC8, symSize: 0x4C }
  - { offsetInCU: 0x9FA4, offset: 0x30B96, size: 0x8, addend: 0x0, symName: __ZNKSt3__16vectorIP4LineNS_9allocatorIS2_EEE4sizeB7v160006Ev, symObjAddr: 0x724, symBinAddr: 0x100010014, symSize: 0x28 }
  - { offsetInCU: 0x9FCA, offset: 0x30BBC, size: 0x8, addend: 0x0, symName: __ZNKSt3__16vectorIP6CircleNS_9allocatorIS2_EEE4sizeB7v160006Ev, symObjAddr: 0x74C, symBinAddr: 0x10001003C, symSize: 0x28 }
  - { offsetInCU: 0x9FF0, offset: 0x30BE2, size: 0x8, addend: 0x0, symName: __ZNSt3__16vectorIP4LineNS_9allocatorIS2_EEEixB7v160006Em, symObjAddr: 0x774, symBinAddr: 0x100010064, symSize: 0x24 }
  - { offsetInCU: 0xA027, offset: 0x30C19, size: 0x8, addend: 0x0, symName: __ZNSt3__16vectorIP6CircleNS_9allocatorIS2_EEEixB7v160006Em, symObjAddr: 0x798, symBinAddr: 0x100010088, symSize: 0x24 }
  - { offsetInCU: 0xA05E, offset: 0x30C50, size: 0x8, addend: 0x0, symName: __ZN14DoublePendulum4DrawER6ShaderR6Camera, symObjAddr: 0x7BC, symBinAddr: 0x1000100AC, symSize: 0xB0 }
  - { offsetInCU: 0xA0BE, offset: 0x30CB0, size: 0x8, addend: 0x0, symName: __ZN14DoublePendulum4DrawER6ShaderS1_R6Camera, symObjAddr: 0x86C, symBinAddr: 0x10001015C, symSize: 0xF8 }
  - { offsetInCU: 0xA148, offset: 0x30D3A, size: 0x8, addend: 0x0, symName: __ZN14DoublePendulum12SetAngle1DegEf, symObjAddr: 0x964, symBinAddr: 0x100010254, symSize: 0x44 }
  - { offsetInCU: 0xA17E, offset: 0x30D70, size: 0x8, addend: 0x0, symName: __ZN14DoublePendulum12SetAngle2DegEf, symObjAddr: 0x9A8, symBinAddr: 0x100010298, symSize: 0x44 }
  - { offsetInCU: 0xA1B4, offset: 0x30DA6, size: 0x8, addend: 0x0, symName: __ZN14DoublePendulum6UpdateEv, symObjAddr: 0x9EC, symBinAddr: 0x1000102DC, symSize: 0x368 }
  - { offsetInCU: 0xA2DE, offset: 0x30ED0, size: 0x8, addend: 0x0, symName: __ZN11Mathematics5ClampEfff, symObjAddr: 0xD54, symBinAddr: 0x100010644, symSize: 0x74 }
  - { offsetInCU: 0xA31D, offset: 0x30F0F, size: 0x8, addend: 0x0, symName: __ZN14DoublePendulum14GetBobPositionEv, symObjAddr: 0xDC8, symBinAddr: 0x1000106B8, symSize: 0x4C }
  - { offsetInCU: 0xA344, offset: 0x30F36, size: 0x8, addend: 0x0, symName: __ZNSt3__16vectorIP4LineNS_9allocatorIS2_EEEC2B7v160006Ev, symObjAddr: 0xE14, symBinAddr: 0x100010704, symSize: 0x58 }
  - { offsetInCU: 0xA378, offset: 0x30F6A, size: 0x8, addend: 0x0, symName: __ZNSt3__117__compressed_pairIPP4LineNS_9allocatorIS2_EEEC1B7v160006IDnNS_18__default_init_tagEEEOT_OT0_, symObjAddr: 0xE6C, symBinAddr: 0x10001075C, symSize: 0x3C }
  - { offsetInCU: 0xA3D0, offset: 0x30FC2, size: 0x8, addend: 0x0, symName: __ZNSt3__117__compressed_pairIPP4LineNS_9allocatorIS2_EEEC2B7v160006IDnNS_18__default_init_tagEEEOT_OT0_, symObjAddr: 0xEC4, symBinAddr: 0x1000107A8, symSize: 0x40 }
  - { offsetInCU: 0xA429, offset: 0x3101B, size: 0x8, addend: 0x0, symName: __ZNSt3__122__compressed_pair_elemIPP4LineLi0ELb0EEC2B7v160006IDnvEEOT_, symObjAddr: 0xF04, symBinAddr: 0x1000107E8, symSize: 0x1C }
  - { offsetInCU: 0xA46A, offset: 0x3105C, size: 0x8, addend: 0x0, symName: __ZNSt3__122__compressed_pair_elemINS_9allocatorIP4LineEELi1ELb1EEC2B7v160006ENS_18__default_init_tagE, symObjAddr: 0xF20, symBinAddr: 0x100010804, symSize: 0x2C }
  - { offsetInCU: 0xA49F, offset: 0x31091, size: 0x8, addend: 0x0, symName: __ZNSt3__19allocatorIP4LineEC2B7v160006Ev, symObjAddr: 0xF4C, symBinAddr: 0x100010830, symSize: 0x2C }
  - { offsetInCU: 0xA4CA, offset: 0x310BC, size: 0x8, addend: 0x0, symName: __ZNSt3__116__non_trivial_ifILb1ENS_9allocatorIP4LineEEEC2B7v160006Ev, symObjAddr: 0xF78, symBinAddr: 0x10001085C, symSize: 0x14 }
  - { offsetInCU: 0xA4F3, offset: 0x310E5, size: 0x8, addend: 0x0, symName: __ZNSt3__16vectorIP6CircleNS_9allocatorIS2_EEEC2B7v160006Ev, symObjAddr: 0xF8C, symBinAddr: 0x100010870, symSize: 0x58 }
  - { offsetInCU: 0xA51D, offset: 0x3110F, size: 0x8, addend: 0x0, symName: __ZNSt3__117__compressed_pairIPP6CircleNS_9allocatorIS2_EEEC1B7v160006IDnNS_18__default_init_tagEEEOT_OT0_, symObjAddr: 0xFE4, symBinAddr: 0x1000108C8, symSize: 0x3C }
  - { offsetInCU: 0xA575, offset: 0x31167, size: 0x8, addend: 0x0, symName: __ZNSt3__117__compressed_pairIPP6CircleNS_9allocatorIS2_EEEC2B7v160006IDnNS_18__default_init_tagEEEOT_OT0_, symObjAddr: 0x1030, symBinAddr: 0x100010914, symSize: 0x40 }
  - { offsetInCU: 0xA5CE, offset: 0x311C0, size: 0x8, addend: 0x0, symName: __ZNSt3__122__compressed_pair_elemIPP6CircleLi0ELb0EEC2B7v160006IDnvEEOT_, symObjAddr: 0x1070, symBinAddr: 0x100010954, symSize: 0x1C }
  - { offsetInCU: 0xA60F, offset: 0x31201, size: 0x8, addend: 0x0, symName: __ZNSt3__122__compressed_pair_elemINS_9allocatorIP6CircleEELi1ELb1EEC2B7v160006ENS_18__default_init_tagE, symObjAddr: 0x108C, symBinAddr: 0x100010970, symSize: 0x2C }
  - { offsetInCU: 0xA644, offset: 0x31236, size: 0x8, addend: 0x0, symName: __ZNSt3__19allocatorIP6CircleEC2B7v160006Ev, symObjAddr: 0x10B8, symBinAddr: 0x10001099C, symSize: 0x2C }
  - { offsetInCU: 0xA66F, offset: 0x31261, size: 0x8, addend: 0x0, symName: __ZNSt3__116__non_trivial_ifILb1ENS_9allocatorIP6CircleEEEC2B7v160006Ev, symObjAddr: 0x10E4, symBinAddr: 0x1000109C8, symSize: 0x14 }
  - { offsetInCU: 0xA698, offset: 0x3128A, size: 0x8, addend: 0x0, symName: __ZNSt3__16vectorIP4LineNS_9allocatorIS2_EEED2B7v160006Ev, symObjAddr: 0x10F8, symBinAddr: 0x1000109DC, symSize: 0x44 }
  - { offsetInCU: 0xA6C2, offset: 0x312B4, size: 0x8, addend: 0x0, symName: __ZNSt3__16vectorIP4LineNS_9allocatorIS2_EEE16__destroy_vectorC1ERS5_, symObjAddr: 0x113C, symBinAddr: 0x100010A20, symSize: 0x34 }
  - { offsetInCU: 0xA6FC, offset: 0x312EE, size: 0x8, addend: 0x0, symName: __ZNSt3__16vectorIP4LineNS_9allocatorIS2_EEE16__destroy_vectorclB7v160006Ev, symObjAddr: 0x1170, symBinAddr: 0x100010A54, symSize: 0x9C }
  - { offsetInCU: 0xA722, offset: 0x31314, size: 0x8, addend: 0x0, symName: __ZNSt3__16vectorIP4LineNS_9allocatorIS2_EEE16__destroy_vectorC2ERS5_, symObjAddr: 0x120C, symBinAddr: 0x100010AF0, symSize: 0x20 }
  - { offsetInCU: 0xA75B, offset: 0x3134D, size: 0x8, addend: 0x0, symName: __ZNKSt3__16vectorIP4LineNS_9allocatorIS2_EEE17__annotate_deleteB7v160006Ev, symObjAddr: 0x122C, symBinAddr: 0x100010B10, symSize: 0xB8 }
  - { offsetInCU: 0xA781, offset: 0x31373, size: 0x8, addend: 0x0, symName: __ZNSt3__16vectorIP4LineNS_9allocatorIS2_EEE7__clearB7v160006Ev, symObjAddr: 0x12F4, symBinAddr: 0x100010BD8, symSize: 0x28 }
  - { offsetInCU: 0xA7A7, offset: 0x31399, size: 0x8, addend: 0x0, symName: __ZNSt3__116allocator_traitsINS_9allocatorIP4LineEEE10deallocateB7v160006ERS4_PS3_m, symObjAddr: 0x131C, symBinAddr: 0x100010C00, symSize: 0x34 }
  - { offsetInCU: 0xA7E9, offset: 0x313DB, size: 0x8, addend: 0x0, symName: __ZNSt3__16vectorIP4LineNS_9allocatorIS2_EEE7__allocB7v160006Ev, symObjAddr: 0x1350, symBinAddr: 0x100010C34, symSize: 0x28 }
  - { offsetInCU: 0xA80F, offset: 0x31401, size: 0x8, addend: 0x0, symName: __ZNKSt3__16vectorIP4LineNS_9allocatorIS2_EEE8capacityB7v160006Ev, symObjAddr: 0x1378, symBinAddr: 0x100010C5C, symSize: 0x40 }
  - { offsetInCU: 0xA835, offset: 0x31427, size: 0x8, addend: 0x0, symName: __ZNKSt3__16vectorIP4LineNS_9allocatorIS2_EEE31__annotate_contiguous_containerB7v160006EPKvS7_S7_S7_, symObjAddr: 0x13B8, symBinAddr: 0x100010C9C, symSize: 0x20 }
  - { offsetInCU: 0xA887, offset: 0x31479, size: 0x8, addend: 0x0, symName: __ZNKSt3__16vectorIP4LineNS_9allocatorIS2_EEE4dataB7v160006Ev, symObjAddr: 0x13D8, symBinAddr: 0x100010CBC, symSize: 0x28 }
  - { offsetInCU: 0xA8AD, offset: 0x3149F, size: 0x8, addend: 0x0, symName: __ZNSt3__16vectorIP4LineNS_9allocatorIS2_EEE22__base_destruct_at_endB7v160006EPS2_, symObjAddr: 0x1414, symBinAddr: 0x100010CF8, symSize: 0x8C }
  - { offsetInCU: 0xA8F1, offset: 0x314E3, size: 0x8, addend: 0x0, symName: __ZNSt3__116allocator_traitsINS_9allocatorIP4LineEEE7destroyB7v160006IS3_vEEvRS4_PT_, symObjAddr: 0x14A0, symBinAddr: 0x100010D84, symSize: 0x2C }
  - { offsetInCU: 0xA92E, offset: 0x31520, size: 0x8, addend: 0x0, symName: __ZNSt3__19allocatorIP4LineE7destroyB7v160006EPS2_, symObjAddr: 0x14CC, symBinAddr: 0x100010DB0, symSize: 0x14 }
  - { offsetInCU: 0xA962, offset: 0x31554, size: 0x8, addend: 0x0, symName: __ZNSt3__19allocatorIP4LineE10deallocateB7v160006EPS2_m, symObjAddr: 0x14E0, symBinAddr: 0x100010DC4, symSize: 0x40 }
  - { offsetInCU: 0xA9A4, offset: 0x31596, size: 0x8, addend: 0x0, symName: __ZNSt3__117__compressed_pairIPP4LineNS_9allocatorIS2_EEE6secondB7v160006Ev, symObjAddr: 0x1648, symBinAddr: 0x100010E04, symSize: 0x24 }
  - { offsetInCU: 0xA9CA, offset: 0x315BC, size: 0x8, addend: 0x0, symName: __ZNSt3__122__compressed_pair_elemINS_9allocatorIP4LineEELi1ELb1EE5__getB7v160006Ev, symObjAddr: 0x166C, symBinAddr: 0x100010E28, symSize: 0x14 }
  - { offsetInCU: 0xA9F0, offset: 0x315E2, size: 0x8, addend: 0x0, symName: __ZNKSt3__16vectorIP4LineNS_9allocatorIS2_EEE9__end_capB7v160006Ev, symObjAddr: 0x1680, symBinAddr: 0x100010E3C, symSize: 0x28 }
  - { offsetInCU: 0xAA16, offset: 0x31608, size: 0x8, addend: 0x0, symName: __ZNKSt3__117__compressed_pairIPP4LineNS_9allocatorIS2_EEE5firstB7v160006Ev, symObjAddr: 0x16A8, symBinAddr: 0x100010E64, symSize: 0x24 }
  - { offsetInCU: 0xAA3C, offset: 0x3162E, size: 0x8, addend: 0x0, symName: __ZNKSt3__122__compressed_pair_elemIPP4LineLi0ELb0EE5__getB7v160006Ev, symObjAddr: 0x16CC, symBinAddr: 0x100010E88, symSize: 0x14 }
  - { offsetInCU: 0xAA61, offset: 0x31653, size: 0x8, addend: 0x0, symName: __ZNSt3__16vectorIP6CircleNS_9allocatorIS2_EEED2B7v160006Ev, symObjAddr: 0x16E0, symBinAddr: 0x100010E9C, symSize: 0x44 }
  - { offsetInCU: 0xAA8B, offset: 0x3167D, size: 0x8, addend: 0x0, symName: __ZNSt3__16vectorIP6CircleNS_9allocatorIS2_EEE16__destroy_vectorC1ERS5_, symObjAddr: 0x1724, symBinAddr: 0x100010EE0, symSize: 0x34 }
  - { offsetInCU: 0xAAC5, offset: 0x316B7, size: 0x8, addend: 0x0, symName: __ZNSt3__16vectorIP6CircleNS_9allocatorIS2_EEE16__destroy_vectorclB7v160006Ev, symObjAddr: 0x1758, symBinAddr: 0x100010F14, symSize: 0x9C }
  - { offsetInCU: 0xAAEB, offset: 0x316DD, size: 0x8, addend: 0x0, symName: __ZNSt3__16vectorIP6CircleNS_9allocatorIS2_EEE16__destroy_vectorC2ERS5_, symObjAddr: 0x17F4, symBinAddr: 0x100010FB0, symSize: 0x20 }
  - { offsetInCU: 0xAB24, offset: 0x31716, size: 0x8, addend: 0x0, symName: __ZNKSt3__16vectorIP6CircleNS_9allocatorIS2_EEE17__annotate_deleteB7v160006Ev, symObjAddr: 0x1814, symBinAddr: 0x100010FD0, symSize: 0xB8 }
  - { offsetInCU: 0xAB4A, offset: 0x3173C, size: 0x8, addend: 0x0, symName: __ZNSt3__16vectorIP6CircleNS_9allocatorIS2_EEE7__clearB7v160006Ev, symObjAddr: 0x18DC, symBinAddr: 0x100011098, symSize: 0x28 }
  - { offsetInCU: 0xAB70, offset: 0x31762, size: 0x8, addend: 0x0, symName: __ZNSt3__116allocator_traitsINS_9allocatorIP6CircleEEE10deallocateB7v160006ERS4_PS3_m, symObjAddr: 0x1904, symBinAddr: 0x1000110C0, symSize: 0x34 }
  - { offsetInCU: 0xABB2, offset: 0x317A4, size: 0x8, addend: 0x0, symName: __ZNSt3__16vectorIP6CircleNS_9allocatorIS2_EEE7__allocB7v160006Ev, symObjAddr: 0x1938, symBinAddr: 0x1000110F4, symSize: 0x28 }
  - { offsetInCU: 0xABD8, offset: 0x317CA, size: 0x8, addend: 0x0, symName: __ZNKSt3__16vectorIP6CircleNS_9allocatorIS2_EEE8capacityB7v160006Ev, symObjAddr: 0x1960, symBinAddr: 0x10001111C, symSize: 0x40 }
  - { offsetInCU: 0xABFE, offset: 0x317F0, size: 0x8, addend: 0x0, symName: __ZNKSt3__16vectorIP6CircleNS_9allocatorIS2_EEE31__annotate_contiguous_containerB7v160006EPKvS7_S7_S7_, symObjAddr: 0x19A0, symBinAddr: 0x10001115C, symSize: 0x20 }
  - { offsetInCU: 0xAC50, offset: 0x31842, size: 0x8, addend: 0x0, symName: __ZNKSt3__16vectorIP6CircleNS_9allocatorIS2_EEE4dataB7v160006Ev, symObjAddr: 0x19C0, symBinAddr: 0x10001117C, symSize: 0x28 }
  - { offsetInCU: 0xAC76, offset: 0x31868, size: 0x8, addend: 0x0, symName: __ZNSt3__16vectorIP6CircleNS_9allocatorIS2_EEE22__base_destruct_at_endB7v160006EPS2_, symObjAddr: 0x19FC, symBinAddr: 0x1000111B8, symSize: 0x8C }
  - { offsetInCU: 0xACBA, offset: 0x318AC, size: 0x8, addend: 0x0, symName: __ZNSt3__116allocator_traitsINS_9allocatorIP6CircleEEE7destroyB7v160006IS3_vEEvRS4_PT_, symObjAddr: 0x1A88, symBinAddr: 0x100011244, symSize: 0x2C }
  - { offsetInCU: 0xACF7, offset: 0x318E9, size: 0x8, addend: 0x0, symName: __ZNSt3__19allocatorIP6CircleE7destroyB7v160006EPS2_, symObjAddr: 0x1AB4, symBinAddr: 0x100011270, symSize: 0x14 }
  - { offsetInCU: 0xAD2B, offset: 0x3191D, size: 0x8, addend: 0x0, symName: __ZNSt3__19allocatorIP6CircleE10deallocateB7v160006EPS2_m, symObjAddr: 0x1AC8, symBinAddr: 0x100011284, symSize: 0x40 }
  - { offsetInCU: 0xAD6D, offset: 0x3195F, size: 0x8, addend: 0x0, symName: __ZNSt3__117__compressed_pairIPP6CircleNS_9allocatorIS2_EEE6secondB7v160006Ev, symObjAddr: 0x1B08, symBinAddr: 0x1000112C4, symSize: 0x24 }
  - { offsetInCU: 0xAD93, offset: 0x31985, size: 0x8, addend: 0x0, symName: __ZNSt3__122__compressed_pair_elemINS_9allocatorIP6CircleEELi1ELb1EE5__getB7v160006Ev, symObjAddr: 0x1B2C, symBinAddr: 0x1000112E8, symSize: 0x14 }
  - { offsetInCU: 0xADB9, offset: 0x319AB, size: 0x8, addend: 0x0, symName: __ZNKSt3__16vectorIP6CircleNS_9allocatorIS2_EEE9__end_capB7v160006Ev, symObjAddr: 0x1B40, symBinAddr: 0x1000112FC, symSize: 0x28 }
  - { offsetInCU: 0xADDF, offset: 0x319D1, size: 0x8, addend: 0x0, symName: __ZNKSt3__117__compressed_pairIPP6CircleNS_9allocatorIS2_EEE5firstB7v160006Ev, symObjAddr: 0x1B68, symBinAddr: 0x100011324, symSize: 0x24 }
  - { offsetInCU: 0xAE05, offset: 0x319F7, size: 0x8, addend: 0x0, symName: __ZNKSt3__122__compressed_pair_elemIPP6CircleLi0ELb0EE5__getB7v160006Ev, symObjAddr: 0x1B8C, symBinAddr: 0x100011348, symSize: 0x14 }
  - { offsetInCU: 0xAE2B, offset: 0x31A1D, size: 0x8, addend: 0x0, symName: __ZNSt3__16vectorIP4LineNS_9allocatorIS2_EEE9__end_capB7v160006Ev, symObjAddr: 0x1BA0, symBinAddr: 0x10001135C, symSize: 0x28 }
  - { offsetInCU: 0xAE56, offset: 0x31A48, size: 0x8, addend: 0x0, symName: __ZNSt3__16vectorIP4LineNS_9allocatorIS2_EEE22__construct_one_at_endB7v160006IJS2_EEEvDpOT_, symObjAddr: 0x1BC8, symBinAddr: 0x100011384, symSize: 0x90 }
  - { offsetInCU: 0xAEA4, offset: 0x31A96, size: 0x8, addend: 0x0, symName: __ZNSt3__16vectorIP4LineNS_9allocatorIS2_EEE21__push_back_slow_pathIS2_EEvOT_, symObjAddr: 0x1C58, symBinAddr: 0x100011414, symSize: 0xD8 }
  - { offsetInCU: 0xAF03, offset: 0x31AF5, size: 0x8, addend: 0x0, symName: __ZNSt3__117__compressed_pairIPP4LineNS_9allocatorIS2_EEE5firstB7v160006Ev, symObjAddr: 0x1D30, symBinAddr: 0x1000114EC, symSize: 0x24 }
  - { offsetInCU: 0xAF29, offset: 0x31B1B, size: 0x8, addend: 0x0, symName: __ZNSt3__122__compressed_pair_elemIPP4LineLi0ELb0EE5__getB7v160006Ev, symObjAddr: 0x1D54, symBinAddr: 0x100011510, symSize: 0x14 }
  - { offsetInCU: 0xAF67, offset: 0x31B59, size: 0x8, addend: 0x0, symName: __ZNSt3__16vectorIP4LineNS_9allocatorIS2_EEE21_ConstructTransactionC1B7v160006ERS5_m, symObjAddr: 0x1D68, symBinAddr: 0x100011524, symSize: 0x3C }
  - { offsetInCU: 0xAFB0, offset: 0x31BA2, size: 0x8, addend: 0x0, symName: __ZNSt3__116allocator_traitsINS_9allocatorIP4LineEEE9constructB7v160006IS3_JS3_EvEEvRS4_PT_DpOT0_, symObjAddr: 0x1DA4, symBinAddr: 0x100011560, symSize: 0x34 }
  - { offsetInCU: 0xB006, offset: 0x31BF8, size: 0x8, addend: 0x0, symName: __ZNSt3__16vectorIP4LineNS_9allocatorIS2_EEE21_ConstructTransactionD1B7v160006Ev, symObjAddr: 0x1DD8, symBinAddr: 0x100011594, symSize: 0x2C }
  - { offsetInCU: 0xB031, offset: 0x31C23, size: 0x8, addend: 0x0, symName: __ZNSt3__16vectorIP4LineNS_9allocatorIS2_EEE21_ConstructTransactionC2B7v160006ERS5_m, symObjAddr: 0x1E04, symBinAddr: 0x1000115C0, symSize: 0x44 }
  - { offsetInCU: 0xB079, offset: 0x31C6B, size: 0x8, addend: 0x0, symName: __ZNSt3__19allocatorIP4LineE9constructB7v160006IS2_JS2_EEEvPT_DpOT0_, symObjAddr: 0x1E48, symBinAddr: 0x100011604, symSize: 0x28 }
  - { offsetInCU: 0xB0CF, offset: 0x31CC1, size: 0x8, addend: 0x0, symName: __ZNSt3__16vectorIP4LineNS_9allocatorIS2_EEE21_ConstructTransactionD2B7v160006Ev, symObjAddr: 0x1E70, symBinAddr: 0x10001162C, symSize: 0x20 }
  - { offsetInCU: 0xB0F8, offset: 0x31CEA, size: 0x8, addend: 0x0, symName: __ZNKSt3__16vectorIP4LineNS_9allocatorIS2_EEE11__recommendB7v160006Em, symObjAddr: 0x1E90, symBinAddr: 0x10001164C, symSize: 0xB4 }
  - { offsetInCU: 0xB14E, offset: 0x31D40, size: 0x8, addend: 0x0, symName: __ZNSt3__114__split_bufferIP4LineRNS_9allocatorIS2_EEEC1EmmS5_, symObjAddr: 0x1F44, symBinAddr: 0x100011700, symSize: 0x44 }
  - { offsetInCU: 0xB1A4, offset: 0x31D96, size: 0x8, addend: 0x0, symName: __ZNSt3__114__split_bufferIP4LineRNS_9allocatorIS2_EEED1Ev, symObjAddr: 0x20A0, symBinAddr: 0x10001185C, symSize: 0x2C }
  - { offsetInCU: 0xB1CF, offset: 0x31DC1, size: 0x8, addend: 0x0, symName: __ZNKSt3__16vectorIP4LineNS_9allocatorIS2_EEE8max_sizeEv, symObjAddr: 0x20CC, symBinAddr: 0x100011888, symSize: 0x60 }
  - { offsetInCU: 0xB1F8, offset: 0x31DEA, size: 0x8, addend: 0x0, symName: __ZNKSt3__16vectorIP4LineNS_9allocatorIS2_EEE20__throw_length_errorB7v160006Ev, symObjAddr: 0x212C, symBinAddr: 0x1000118E8, symSize: 0x1C }
  - { offsetInCU: 0xB228, offset: 0x31E1A, size: 0x8, addend: 0x0, symName: __ZNSt3__116allocator_traitsINS_9allocatorIP4LineEEE8max_sizeB7v160006IS4_vEEmRKS4_, symObjAddr: 0x21A0, symBinAddr: 0x100011904, symSize: 0x24 }
  - { offsetInCU: 0xB256, offset: 0x31E48, size: 0x8, addend: 0x0, symName: __ZNKSt3__16vectorIP4LineNS_9allocatorIS2_EEE7__allocB7v160006Ev, symObjAddr: 0x21C4, symBinAddr: 0x100011928, symSize: 0x28 }
  - { offsetInCU: 0xB27C, offset: 0x31E6E, size: 0x8, addend: 0x0, symName: __ZNKSt3__19allocatorIP4LineE8max_sizeB7v160006Ev, symObjAddr: 0x2288, symBinAddr: 0x100011950, symSize: 0x14 }
  - { offsetInCU: 0xB2A2, offset: 0x31E94, size: 0x8, addend: 0x0, symName: __ZNKSt3__117__compressed_pairIPP4LineNS_9allocatorIS2_EEE6secondB7v160006Ev, symObjAddr: 0x229C, symBinAddr: 0x100011964, symSize: 0x24 }
  - { offsetInCU: 0xB2C8, offset: 0x31EBA, size: 0x8, addend: 0x0, symName: __ZNKSt3__122__compressed_pair_elemINS_9allocatorIP4LineEELi1ELb1EE5__getB7v160006Ev, symObjAddr: 0x22C0, symBinAddr: 0x100011988, symSize: 0x14 }
  - { offsetInCU: 0xB2EE, offset: 0x31EE0, size: 0x8, addend: 0x0, symName: __ZNSt3__114__split_bufferIP4LineRNS_9allocatorIS2_EEEC2EmmS5_, symObjAddr: 0x2414, symBinAddr: 0x10001199C, symSize: 0xD4 }
  - { offsetInCU: 0xB360, offset: 0x31F52, size: 0x8, addend: 0x0, symName: __ZNSt3__117__compressed_pairIPP4LineRNS_9allocatorIS2_EEEC1B7v160006IDnS6_EEOT_OT0_, symObjAddr: 0x24E8, symBinAddr: 0x100011A70, symSize: 0x3C }
  - { offsetInCU: 0xB3B9, offset: 0x31FAB, size: 0x8, addend: 0x0, symName: __ZNSt3__114__split_bufferIP4LineRNS_9allocatorIS2_EEE7__allocB7v160006Ev, symObjAddr: 0x2564, symBinAddr: 0x100011AEC, symSize: 0x28 }
  - { offsetInCU: 0xB3DF, offset: 0x31FD1, size: 0x8, addend: 0x0, symName: __ZNSt3__114__split_bufferIP4LineRNS_9allocatorIS2_EEE9__end_capB7v160006Ev, symObjAddr: 0x258C, symBinAddr: 0x100011B14, symSize: 0x28 }
  - { offsetInCU: 0xB404, offset: 0x31FF6, size: 0x8, addend: 0x0, symName: __ZNSt3__117__compressed_pairIPP4LineRNS_9allocatorIS2_EEEC2B7v160006IDnS6_EEOT_OT0_, symObjAddr: 0x25B4, symBinAddr: 0x100011B3C, symSize: 0x48 }
  - { offsetInCU: 0xB45D, offset: 0x3204F, size: 0x8, addend: 0x0, symName: __ZNSt3__122__compressed_pair_elemIRNS_9allocatorIP4LineEELi1ELb0EEC2B7v160006IS5_vEEOT_, symObjAddr: 0x25FC, symBinAddr: 0x100011B84, symSize: 0x20 }
  - { offsetInCU: 0xB49F, offset: 0x32091, size: 0x8, addend: 0x0, symName: __ZNSt3__19allocatorIP4LineE8allocateB7v160006Em, symObjAddr: 0x261C, symBinAddr: 0x100011BA4, symSize: 0x58 }
  - { offsetInCU: 0xB4D3, offset: 0x320C5, size: 0x8, addend: 0x0, symName: __ZNSt3__117__compressed_pairIPP4LineRNS_9allocatorIS2_EEE6secondB7v160006Ev, symObjAddr: 0x2758, symBinAddr: 0x100011BFC, symSize: 0x28 }
  - { offsetInCU: 0xB4F9, offset: 0x320EB, size: 0x8, addend: 0x0, symName: __ZNSt3__122__compressed_pair_elemIRNS_9allocatorIP4LineEELi1ELb0EE5__getB7v160006Ev, symObjAddr: 0x2780, symBinAddr: 0x100011C24, symSize: 0x18 }
  - { offsetInCU: 0xB51F, offset: 0x32111, size: 0x8, addend: 0x0, symName: __ZNSt3__117__compressed_pairIPP4LineRNS_9allocatorIS2_EEE5firstB7v160006Ev, symObjAddr: 0x2798, symBinAddr: 0x100011C3C, symSize: 0x24 }
  - { offsetInCU: 0xB544, offset: 0x32136, size: 0x8, addend: 0x0, symName: __ZNSt3__116reverse_iteratorIPP4LineEC1B7v160006ES3_, symObjAddr: 0x2834, symBinAddr: 0x100011CD8, symSize: 0x34 }
  - { offsetInCU: 0xB57D, offset: 0x3216F, size: 0x8, addend: 0x0, symName: __ZNKSt3__116reverse_iteratorIPP4LineE4baseB7v160006Ev, symObjAddr: 0x2868, symBinAddr: 0x100011D0C, symSize: 0x18 }
  - { offsetInCU: 0xB5A3, offset: 0x32195, size: 0x8, addend: 0x0, symName: __ZNKSt3__16vectorIP4LineNS_9allocatorIS2_EEE14__annotate_newB7v160006Em, symObjAddr: 0x28BC, symBinAddr: 0x100011D60, symSize: 0xAC }
  - { offsetInCU: 0xB5FB, offset: 0x321ED, size: 0x8, addend: 0x0, symName: __ZNKSt3__111__move_loopINS_17_ClassicAlgPolicyEEclB7v160006INS_16reverse_iteratorIPP4LineEES8_S8_EENS_4pairIT_T1_EESA_T0_SB_, symObjAddr: 0x2C68, symBinAddr: 0x10001210C, symSize: 0xA0 }
  - { offsetInCU: 0xB666, offset: 0x32258, size: 0x8, addend: 0x0, symName: __ZNSt3__18_IterOpsINS_17_ClassicAlgPolicyEE11__iter_moveB7v160006IRNS_16reverse_iteratorIPP4LineEEEENS_9enable_ifIXsr12is_referenceIDTdeclsr3stdE7declvalIRT_EEEEE5valueEDTclsr3stdE4movedeclsr3stdE7declvalISC_EEEEE4typeEOSB_, symObjAddr: 0x2E9C, symBinAddr: 0x100012340, symSize: 0x28 }
  - { offsetInCU: 0xB692, offset: 0x32284, size: 0x8, addend: 0x0, symName: __ZNKSt3__116reverse_iteratorIPP4LineEdeB7v160006Ev, symObjAddr: 0x2EC4, symBinAddr: 0x100012368, symSize: 0x28 }
  - { offsetInCU: 0xB6C6, offset: 0x322B8, size: 0x8, addend: 0x0, symName: __ZNSt3__116reverse_iteratorIPP4LineEppB7v160006Ev, symObjAddr: 0x2EEC, symBinAddr: 0x100012390, symSize: 0x20 }
  - { offsetInCU: 0xB6EC, offset: 0x322DE, size: 0x8, addend: 0x0, symName: __ZNSt3__18_IterOpsINS_17_ClassicAlgPolicyEE25__validate_iter_referenceB7v160006IRNS_16reverse_iteratorIPP4LineEEEEvv, symObjAddr: 0x2F0C, symBinAddr: 0x1000123B0, symSize: 0x4 }
  - { offsetInCU: 0xB70A, offset: 0x322FC, size: 0x8, addend: 0x0, symName: __ZNSt3__118__unwrap_iter_implINS_16reverse_iteratorIPP4LineEELb0EE8__unwrapB7v160006ES5_, symObjAddr: 0x2F10, symBinAddr: 0x1000123B4, symSize: 0x24 }
  - { offsetInCU: 0xB731, offset: 0x32323, size: 0x8, addend: 0x0, symName: __ZNSt3__14pairINS_16reverse_iteratorIPP4LineEES5_EC1B7v160006IS5_S5_LPv0EEEOT_OT0_, symObjAddr: 0x2F34, symBinAddr: 0x1000123D8, symSize: 0x3C }
  - { offsetInCU: 0xB790, offset: 0x32382, size: 0x8, addend: 0x0, symName: __ZNSt3__14pairINS_16reverse_iteratorIPP4LineEES5_EC2B7v160006IS5_S5_LPv0EEEOT_OT0_, symObjAddr: 0x2F70, symBinAddr: 0x100012414, symSize: 0x34 }
  - { offsetInCU: 0xB7EE, offset: 0x323E0, size: 0x8, addend: 0x0, symName: __ZNSt3__118__unwrap_iter_implINS_16reverse_iteratorIPP4LineEELb0EE8__rewrapB7v160006ES5_S5_, symObjAddr: 0x2FA4, symBinAddr: 0x100012448, symSize: 0x2C }
  - { offsetInCU: 0xB81C, offset: 0x3240E, size: 0x8, addend: 0x0, symName: __ZNSt3__116reverse_iteratorIPP4LineEC2B7v160006ES3_, symObjAddr: 0x2FD0, symBinAddr: 0x100012474, symSize: 0x28 }
  - { offsetInCU: 0xB854, offset: 0x32446, size: 0x8, addend: 0x0, symName: __ZNSt3__114__split_bufferIP4LineRNS_9allocatorIS2_EEED2Ev, symObjAddr: 0x2FF8, symBinAddr: 0x10001249C, symSize: 0x8C }
  - { offsetInCU: 0xB880, offset: 0x32472, size: 0x8, addend: 0x0, symName: __ZNSt3__114__split_bufferIP4LineRNS_9allocatorIS2_EEE5clearB7v160006Ev, symObjAddr: 0x3084, symBinAddr: 0x100012528, symSize: 0x28 }
  - { offsetInCU: 0xB8A6, offset: 0x32498, size: 0x8, addend: 0x0, symName: __ZNKSt3__114__split_bufferIP4LineRNS_9allocatorIS2_EEE8capacityB7v160006Ev, symObjAddr: 0x30AC, symBinAddr: 0x100012550, symSize: 0x40 }
  - { offsetInCU: 0xB8CC, offset: 0x324BE, size: 0x8, addend: 0x0, symName: __ZNSt3__114__split_bufferIP4LineRNS_9allocatorIS2_EEE17__destruct_at_endB7v160006EPS2_, symObjAddr: 0x30EC, symBinAddr: 0x100012590, symSize: 0x2C }
  - { offsetInCU: 0xB8FF, offset: 0x324F1, size: 0x8, addend: 0x0, symName: __ZNSt3__114__split_bufferIP4LineRNS_9allocatorIS2_EEE17__destruct_at_endB7v160006EPS2_NS_17integral_constantIbLb0EEE, symObjAddr: 0x3118, symBinAddr: 0x1000125BC, symSize: 0x80 }
  - { offsetInCU: 0xB941, offset: 0x32533, size: 0x8, addend: 0x0, symName: __ZNKSt3__114__split_bufferIP4LineRNS_9allocatorIS2_EEE9__end_capB7v160006Ev, symObjAddr: 0x3198, symBinAddr: 0x10001263C, symSize: 0x28 }
  - { offsetInCU: 0xB967, offset: 0x32559, size: 0x8, addend: 0x0, symName: __ZNKSt3__117__compressed_pairIPP4LineRNS_9allocatorIS2_EEE5firstB7v160006Ev, symObjAddr: 0x31C0, symBinAddr: 0x100012664, symSize: 0x24 }
  - { offsetInCU: 0xB98D, offset: 0x3257F, size: 0x8, addend: 0x0, symName: __ZNSt3__16vectorIP6CircleNS_9allocatorIS2_EEE9__end_capB7v160006Ev, symObjAddr: 0x31E4, symBinAddr: 0x100012688, symSize: 0x28 }
  - { offsetInCU: 0xB9B8, offset: 0x325AA, size: 0x8, addend: 0x0, symName: __ZNSt3__16vectorIP6CircleNS_9allocatorIS2_EEE22__construct_one_at_endB7v160006IJS2_EEEvDpOT_, symObjAddr: 0x320C, symBinAddr: 0x1000126B0, symSize: 0x90 }
  - { offsetInCU: 0xBA06, offset: 0x325F8, size: 0x8, addend: 0x0, symName: __ZNSt3__16vectorIP6CircleNS_9allocatorIS2_EEE21__push_back_slow_pathIS2_EEvOT_, symObjAddr: 0x329C, symBinAddr: 0x100012740, symSize: 0xD8 }
  - { offsetInCU: 0xBA65, offset: 0x32657, size: 0x8, addend: 0x0, symName: __ZNSt3__117__compressed_pairIPP6CircleNS_9allocatorIS2_EEE5firstB7v160006Ev, symObjAddr: 0x3374, symBinAddr: 0x100012818, symSize: 0x24 }
  - { offsetInCU: 0xBA8B, offset: 0x3267D, size: 0x8, addend: 0x0, symName: __ZNSt3__122__compressed_pair_elemIPP6CircleLi0ELb0EE5__getB7v160006Ev, symObjAddr: 0x3398, symBinAddr: 0x10001283C, symSize: 0x14 }
  - { offsetInCU: 0xBAC9, offset: 0x326BB, size: 0x8, addend: 0x0, symName: __ZNSt3__16vectorIP6CircleNS_9allocatorIS2_EEE21_ConstructTransactionC1B7v160006ERS5_m, symObjAddr: 0x33AC, symBinAddr: 0x100012850, symSize: 0x3C }
  - { offsetInCU: 0xBB12, offset: 0x32704, size: 0x8, addend: 0x0, symName: __ZNSt3__116allocator_traitsINS_9allocatorIP6CircleEEE9constructB7v160006IS3_JS3_EvEEvRS4_PT_DpOT0_, symObjAddr: 0x33E8, symBinAddr: 0x10001288C, symSize: 0x34 }
  - { offsetInCU: 0xBB68, offset: 0x3275A, size: 0x8, addend: 0x0, symName: __ZNSt3__16vectorIP6CircleNS_9allocatorIS2_EEE21_ConstructTransactionD1B7v160006Ev, symObjAddr: 0x341C, symBinAddr: 0x1000128C0, symSize: 0x2C }
  - { offsetInCU: 0xBB93, offset: 0x32785, size: 0x8, addend: 0x0, symName: __ZNSt3__16vectorIP6CircleNS_9allocatorIS2_EEE21_ConstructTransactionC2B7v160006ERS5_m, symObjAddr: 0x3448, symBinAddr: 0x1000128EC, symSize: 0x44 }
  - { offsetInCU: 0xBBDB, offset: 0x327CD, size: 0x8, addend: 0x0, symName: __ZNSt3__19allocatorIP6CircleE9constructB7v160006IS2_JS2_EEEvPT_DpOT0_, symObjAddr: 0x348C, symBinAddr: 0x100012930, symSize: 0x28 }
  - { offsetInCU: 0xBC31, offset: 0x32823, size: 0x8, addend: 0x0, symName: __ZNSt3__16vectorIP6CircleNS_9allocatorIS2_EEE21_ConstructTransactionD2B7v160006Ev, symObjAddr: 0x34B4, symBinAddr: 0x100012958, symSize: 0x20 }
  - { offsetInCU: 0xBC5A, offset: 0x3284C, size: 0x8, addend: 0x0, symName: __ZNKSt3__16vectorIP6CircleNS_9allocatorIS2_EEE11__recommendB7v160006Em, symObjAddr: 0x34D4, symBinAddr: 0x100012978, symSize: 0xB4 }
  - { offsetInCU: 0xBCB0, offset: 0x328A2, size: 0x8, addend: 0x0, symName: __ZNSt3__114__split_bufferIP6CircleRNS_9allocatorIS2_EEEC1EmmS5_, symObjAddr: 0x3588, symBinAddr: 0x100012A2C, symSize: 0x44 }
  - { offsetInCU: 0xBD06, offset: 0x328F8, size: 0x8, addend: 0x0, symName: __ZNSt3__114__split_bufferIP6CircleRNS_9allocatorIS2_EEED1Ev, symObjAddr: 0x36E4, symBinAddr: 0x100012B88, symSize: 0x2C }
  - { offsetInCU: 0xBD31, offset: 0x32923, size: 0x8, addend: 0x0, symName: __ZNKSt3__16vectorIP6CircleNS_9allocatorIS2_EEE8max_sizeEv, symObjAddr: 0x3710, symBinAddr: 0x100012BB4, symSize: 0x60 }
  - { offsetInCU: 0xBD5A, offset: 0x3294C, size: 0x8, addend: 0x0, symName: __ZNKSt3__16vectorIP6CircleNS_9allocatorIS2_EEE20__throw_length_errorB7v160006Ev, symObjAddr: 0x3770, symBinAddr: 0x100012C14, symSize: 0x1C }
  - { offsetInCU: 0xBD8A, offset: 0x3297C, size: 0x8, addend: 0x0, symName: __ZNSt3__116allocator_traitsINS_9allocatorIP6CircleEEE8max_sizeB7v160006IS4_vEEmRKS4_, symObjAddr: 0x378C, symBinAddr: 0x100012C30, symSize: 0x24 }
  - { offsetInCU: 0xBDB8, offset: 0x329AA, size: 0x8, addend: 0x0, symName: __ZNKSt3__16vectorIP6CircleNS_9allocatorIS2_EEE7__allocB7v160006Ev, symObjAddr: 0x37B0, symBinAddr: 0x100012C54, symSize: 0x28 }
  - { offsetInCU: 0xBDDE, offset: 0x329D0, size: 0x8, addend: 0x0, symName: __ZNKSt3__19allocatorIP6CircleE8max_sizeB7v160006Ev, symObjAddr: 0x37D8, symBinAddr: 0x100012C7C, symSize: 0x14 }
  - { offsetInCU: 0xBE04, offset: 0x329F6, size: 0x8, addend: 0x0, symName: __ZNKSt3__117__compressed_pairIPP6CircleNS_9allocatorIS2_EEE6secondB7v160006Ev, symObjAddr: 0x37EC, symBinAddr: 0x100012C90, symSize: 0x24 }
  - { offsetInCU: 0xBE2A, offset: 0x32A1C, size: 0x8, addend: 0x0, symName: __ZNKSt3__122__compressed_pair_elemINS_9allocatorIP6CircleEELi1ELb1EE5__getB7v160006Ev, symObjAddr: 0x3810, symBinAddr: 0x100012CB4, symSize: 0x14 }
  - { offsetInCU: 0xBE50, offset: 0x32A42, size: 0x8, addend: 0x0, symName: __ZNSt3__114__split_bufferIP6CircleRNS_9allocatorIS2_EEEC2EmmS5_, symObjAddr: 0x3824, symBinAddr: 0x100012CC8, symSize: 0xD4 }
  - { offsetInCU: 0xBEC2, offset: 0x32AB4, size: 0x8, addend: 0x0, symName: __ZNSt3__117__compressed_pairIPP6CircleRNS_9allocatorIS2_EEEC1B7v160006IDnS6_EEOT_OT0_, symObjAddr: 0x38F8, symBinAddr: 0x100012D9C, symSize: 0x3C }
  - { offsetInCU: 0xBF1B, offset: 0x32B0D, size: 0x8, addend: 0x0, symName: __ZNSt3__114__split_bufferIP6CircleRNS_9allocatorIS2_EEE7__allocB7v160006Ev, symObjAddr: 0x3974, symBinAddr: 0x100012E18, symSize: 0x28 }
  - { offsetInCU: 0xBF41, offset: 0x32B33, size: 0x8, addend: 0x0, symName: __ZNSt3__114__split_bufferIP6CircleRNS_9allocatorIS2_EEE9__end_capB7v160006Ev, symObjAddr: 0x399C, symBinAddr: 0x100012E40, symSize: 0x28 }
  - { offsetInCU: 0xBF66, offset: 0x32B58, size: 0x8, addend: 0x0, symName: __ZNSt3__117__compressed_pairIPP6CircleRNS_9allocatorIS2_EEEC2B7v160006IDnS6_EEOT_OT0_, symObjAddr: 0x39C4, symBinAddr: 0x100012E68, symSize: 0x48 }
  - { offsetInCU: 0xBFBF, offset: 0x32BB1, size: 0x8, addend: 0x0, symName: __ZNSt3__122__compressed_pair_elemIRNS_9allocatorIP6CircleEELi1ELb0EEC2B7v160006IS5_vEEOT_, symObjAddr: 0x3A0C, symBinAddr: 0x100012EB0, symSize: 0x20 }
  - { offsetInCU: 0xC001, offset: 0x32BF3, size: 0x8, addend: 0x0, symName: __ZNSt3__19allocatorIP6CircleE8allocateB7v160006Em, symObjAddr: 0x3A2C, symBinAddr: 0x100012ED0, symSize: 0x58 }
  - { offsetInCU: 0xC035, offset: 0x32C27, size: 0x8, addend: 0x0, symName: __ZNSt3__117__compressed_pairIPP6CircleRNS_9allocatorIS2_EEE6secondB7v160006Ev, symObjAddr: 0x3A84, symBinAddr: 0x100012F28, symSize: 0x28 }
  - { offsetInCU: 0xC05B, offset: 0x32C4D, size: 0x8, addend: 0x0, symName: __ZNSt3__122__compressed_pair_elemIRNS_9allocatorIP6CircleEELi1ELb0EE5__getB7v160006Ev, symObjAddr: 0x3AAC, symBinAddr: 0x100012F50, symSize: 0x18 }
  - { offsetInCU: 0xC081, offset: 0x32C73, size: 0x8, addend: 0x0, symName: __ZNSt3__117__compressed_pairIPP6CircleRNS_9allocatorIS2_EEE5firstB7v160006Ev, symObjAddr: 0x3AC4, symBinAddr: 0x100012F68, symSize: 0x24 }
  - { offsetInCU: 0xC0A6, offset: 0x32C98, size: 0x8, addend: 0x0, symName: __ZNSt3__116reverse_iteratorIPP6CircleEC1B7v160006ES3_, symObjAddr: 0x3B60, symBinAddr: 0x100013004, symSize: 0x34 }
  - { offsetInCU: 0xC0DF, offset: 0x32CD1, size: 0x8, addend: 0x0, symName: __ZNKSt3__116reverse_iteratorIPP6CircleE4baseB7v160006Ev, symObjAddr: 0x3B94, symBinAddr: 0x100013038, symSize: 0x18 }
  - { offsetInCU: 0xC105, offset: 0x32CF7, size: 0x8, addend: 0x0, symName: __ZNKSt3__16vectorIP6CircleNS_9allocatorIS2_EEE14__annotate_newB7v160006Em, symObjAddr: 0x3BE8, symBinAddr: 0x10001308C, symSize: 0xAC }
  - { offsetInCU: 0xC153, offset: 0x32D45, size: 0x8, addend: 0x0, symName: __ZNKSt3__111__move_loopINS_17_ClassicAlgPolicyEEclB7v160006INS_16reverse_iteratorIPP6CircleEES8_S8_EENS_4pairIT_T1_EESA_T0_SB_, symObjAddr: 0x3F94, symBinAddr: 0x100013438, symSize: 0xA0 }
  - { offsetInCU: 0xC1BE, offset: 0x32DB0, size: 0x8, addend: 0x0, symName: __ZNSt3__18_IterOpsINS_17_ClassicAlgPolicyEE11__iter_moveB7v160006IRNS_16reverse_iteratorIPP6CircleEEEENS_9enable_ifIXsr12is_referenceIDTdeclsr3stdE7declvalIRT_EEEEE5valueEDTclsr3stdE4movedeclsr3stdE7declvalISC_EEEEE4typeEOSB_, symObjAddr: 0x41C8, symBinAddr: 0x10001366C, symSize: 0x28 }
  - { offsetInCU: 0xC1EA, offset: 0x32DDC, size: 0x8, addend: 0x0, symName: __ZNKSt3__116reverse_iteratorIPP6CircleEdeB7v160006Ev, symObjAddr: 0x41F0, symBinAddr: 0x100013694, symSize: 0x28 }
  - { offsetInCU: 0xC21E, offset: 0x32E10, size: 0x8, addend: 0x0, symName: __ZNSt3__116reverse_iteratorIPP6CircleEppB7v160006Ev, symObjAddr: 0x4218, symBinAddr: 0x1000136BC, symSize: 0x20 }
  - { offsetInCU: 0xC244, offset: 0x32E36, size: 0x8, addend: 0x0, symName: __ZNSt3__18_IterOpsINS_17_ClassicAlgPolicyEE25__validate_iter_referenceB7v160006IRNS_16reverse_iteratorIPP6CircleEEEEvv, symObjAddr: 0x4238, symBinAddr: 0x1000136DC, symSize: 0x4 }
  - { offsetInCU: 0xC262, offset: 0x32E54, size: 0x8, addend: 0x0, symName: __ZNSt3__118__unwrap_iter_implINS_16reverse_iteratorIPP6CircleEELb0EE8__unwrapB7v160006ES5_, symObjAddr: 0x423C, symBinAddr: 0x1000136E0, symSize: 0x24 }
  - { offsetInCU: 0xC289, offset: 0x32E7B, size: 0x8, addend: 0x0, symName: __ZNSt3__14pairINS_16reverse_iteratorIPP6CircleEES5_EC1B7v160006IS5_S5_LPv0EEEOT_OT0_, symObjAddr: 0x4260, symBinAddr: 0x100013704, symSize: 0x3C }
  - { offsetInCU: 0xC2E8, offset: 0x32EDA, size: 0x8, addend: 0x0, symName: __ZNSt3__14pairINS_16reverse_iteratorIPP6CircleEES5_EC2B7v160006IS5_S5_LPv0EEEOT_OT0_, symObjAddr: 0x429C, symBinAddr: 0x100013740, symSize: 0x34 }
  - { offsetInCU: 0xC346, offset: 0x32F38, size: 0x8, addend: 0x0, symName: __ZNSt3__118__unwrap_iter_implINS_16reverse_iteratorIPP6CircleEELb0EE8__rewrapB7v160006ES5_S5_, symObjAddr: 0x42D0, symBinAddr: 0x100013774, symSize: 0x2C }
  - { offsetInCU: 0xC374, offset: 0x32F66, size: 0x8, addend: 0x0, symName: __ZNSt3__116reverse_iteratorIPP6CircleEC2B7v160006ES3_, symObjAddr: 0x42FC, symBinAddr: 0x1000137A0, symSize: 0x28 }
  - { offsetInCU: 0xC3AC, offset: 0x32F9E, size: 0x8, addend: 0x0, symName: __ZNSt3__114__split_bufferIP6CircleRNS_9allocatorIS2_EEED2Ev, symObjAddr: 0x4324, symBinAddr: 0x1000137C8, symSize: 0x8C }
  - { offsetInCU: 0xC3D8, offset: 0x32FCA, size: 0x8, addend: 0x0, symName: __ZNSt3__114__split_bufferIP6CircleRNS_9allocatorIS2_EEE5clearB7v160006Ev, symObjAddr: 0x43B0, symBinAddr: 0x100013854, symSize: 0x28 }
  - { offsetInCU: 0xC3FE, offset: 0x32FF0, size: 0x8, addend: 0x0, symName: __ZNKSt3__114__split_bufferIP6CircleRNS_9allocatorIS2_EEE8capacityB7v160006Ev, symObjAddr: 0x43D8, symBinAddr: 0x10001387C, symSize: 0x40 }
  - { offsetInCU: 0xC424, offset: 0x33016, size: 0x8, addend: 0x0, symName: __ZNSt3__114__split_bufferIP6CircleRNS_9allocatorIS2_EEE17__destruct_at_endB7v160006EPS2_, symObjAddr: 0x4418, symBinAddr: 0x1000138BC, symSize: 0x2C }
  - { offsetInCU: 0xC457, offset: 0x33049, size: 0x8, addend: 0x0, symName: __ZNSt3__114__split_bufferIP6CircleRNS_9allocatorIS2_EEE17__destruct_at_endB7v160006EPS2_NS_17integral_constantIbLb0EEE, symObjAddr: 0x4444, symBinAddr: 0x1000138E8, symSize: 0x80 }
  - { offsetInCU: 0xC499, offset: 0x3308B, size: 0x8, addend: 0x0, symName: __ZNKSt3__114__split_bufferIP6CircleRNS_9allocatorIS2_EEE9__end_capB7v160006Ev, symObjAddr: 0x44C4, symBinAddr: 0x100013968, symSize: 0x28 }
  - { offsetInCU: 0xC4BF, offset: 0x330B1, size: 0x8, addend: 0x0, symName: __ZNKSt3__117__compressed_pairIPP6CircleRNS_9allocatorIS2_EEE5firstB7v160006Ev, symObjAddr: 0x44EC, symBinAddr: 0x100013990, symSize: 0x24 }
  - { offsetInCU: 0x26, offset: 0x331BA, size: 0x8, addend: 0x0, symName: __ZN3EBOC2ERNSt3__16vectorIjNS0_9allocatorIjEEEE, symObjAddr: 0x0, symBinAddr: 0x1000139B4, symSize: 0xA0 }
  - { offsetInCU: 0x1532, offset: 0x346C6, size: 0x8, addend: 0x0, symName: __ZNSt3__112__to_addressB7v160006IjEEPT_S2_, symObjAddr: 0x1C4, symBinAddr: 0x100013B78, symSize: 0x14 }
  - { offsetInCU: 0x351F, offset: 0x366B3, size: 0x8, addend: 0x0, symName: __ZN3EBOC2ERNSt3__16vectorIjNS0_9allocatorIjEEEE, symObjAddr: 0x0, symBinAddr: 0x1000139B4, symSize: 0xA0 }
  - { offsetInCU: 0x3559, offset: 0x366ED, size: 0x8, addend: 0x0, symName: __ZNKSt3__16vectorIjNS_9allocatorIjEEE4sizeB7v160006Ev, symObjAddr: 0xA0, symBinAddr: 0x100013A54, symSize: 0x28 }
  - { offsetInCU: 0x357F, offset: 0x36713, size: 0x8, addend: 0x0, symName: __ZNSt3__16vectorIjNS_9allocatorIjEEE4dataB7v160006Ev, symObjAddr: 0xC8, symBinAddr: 0x100013A7C, symSize: 0x28 }
  - { offsetInCU: 0x35A5, offset: 0x36739, size: 0x8, addend: 0x0, symName: __ZN3EBOC1ERNSt3__16vectorIjNS0_9allocatorIjEEEE, symObjAddr: 0xF0, symBinAddr: 0x100013AA4, symSize: 0x34 }
  - { offsetInCU: 0x35DF, offset: 0x36773, size: 0x8, addend: 0x0, symName: __ZN3EBO4BindEv, symObjAddr: 0x124, symBinAddr: 0x100013AD8, symSize: 0x38 }
  - { offsetInCU: 0x3607, offset: 0x3679B, size: 0x8, addend: 0x0, symName: __ZN3EBO6UnbindEv, symObjAddr: 0x15C, symBinAddr: 0x100013B10, symSize: 0x34 }
  - { offsetInCU: 0x362F, offset: 0x367C3, size: 0x8, addend: 0x0, symName: __ZN3EBO6DeleteEv, symObjAddr: 0x190, symBinAddr: 0x100013B44, symSize: 0x34 }
  - { offsetInCU: 0x39, offset: 0x36833, size: 0x8, addend: 0x0, symName: __ZN7Globals11kBG_COLOR_RE, symObjAddr: 0x0, symBinAddr: 0x1000A1D60, symSize: 0x0 }
  - { offsetInCU: 0x53, offset: 0x3684D, size: 0x8, addend: 0x0, symName: __ZN7Globals11kBG_COLOR_GE, symObjAddr: 0x4, symBinAddr: 0x1000A1D64, symSize: 0x0 }
  - { offsetInCU: 0x6D, offset: 0x36867, size: 0x8, addend: 0x0, symName: __ZN7Globals11kBG_COLOR_BE, symObjAddr: 0x8, symBinAddr: 0x1000A1D68, symSize: 0x0 }
  - { offsetInCU: 0x87, offset: 0x36881, size: 0x8, addend: 0x0, symName: __ZN7Globals11kBG_COLOR_AE, symObjAddr: 0xC, symBinAddr: 0x1000A1D6C, symSize: 0x0 }
  - { offsetInCU: 0xA1, offset: 0x3689B, size: 0x8, addend: 0x0, symName: __ZN7Globals11CIRCLE_STEPE, symObjAddr: 0x10, symBinAddr: 0x1000A1D70, symSize: 0x0 }
  - { offsetInCU: 0xBB, offset: 0x368B5, size: 0x8, addend: 0x0, symName: __ZN7Globals14DEFAULT_ANGLE1E, symObjAddr: 0x14, symBinAddr: 0x1000A1D74, symSize: 0x0 }
  - { offsetInCU: 0xD5, offset: 0x368CF, size: 0x8, addend: 0x0, symName: __ZN7Globals14DEFAULT_ANGLE2E, symObjAddr: 0x18, symBinAddr: 0x1000A1D78, symSize: 0x0 }
  - { offsetInCU: 0xEF, offset: 0x368E9, size: 0x8, addend: 0x0, symName: __ZN7Globals7LENGTH1E, symObjAddr: 0x1C, symBinAddr: 0x1000A1D7C, symSize: 0x0 }
  - { offsetInCU: 0x109, offset: 0x36903, size: 0x8, addend: 0x0, symName: __ZN7Globals7LENGTH2E, symObjAddr: 0x20, symBinAddr: 0x1000A1D80, symSize: 0x0 }
  - { offsetInCU: 0x123, offset: 0x3691D, size: 0x8, addend: 0x0, symName: __ZN7Globals5MASS1E, symObjAddr: 0x24, symBinAddr: 0x1000A1D84, symSize: 0x0 }
  - { offsetInCU: 0x13D, offset: 0x36937, size: 0x8, addend: 0x0, symName: __ZN7Globals5MASS2E, symObjAddr: 0x28, symBinAddr: 0x1000A1D88, symSize: 0x0 }
  - { offsetInCU: 0x157, offset: 0x36951, size: 0x8, addend: 0x0, symName: __ZN7Globals14ROPE_THICKNESSE, symObjAddr: 0x2C, symBinAddr: 0x1000A1D8C, symSize: 0x0 }
  - { offsetInCU: 0x171, offset: 0x3696B, size: 0x8, addend: 0x0, symName: __ZN7Globals20MAX_ANGULAR_VELOCITYE, symObjAddr: 0x30, symBinAddr: 0x1000A1D90, symSize: 0x0 }
  - { offsetInCU: 0x18B, offset: 0x36985, size: 0x8, addend: 0x0, symName: __ZN7Globals7GRAVITYE, symObjAddr: 0x34, symBinAddr: 0x1000A1D94, symSize: 0x0 }
  - { offsetInCU: 0x1A5, offset: 0x3699F, size: 0x8, addend: 0x0, symName: __ZN7Globals16MAX_TRAIL_POINTSE, symObjAddr: 0x38, symBinAddr: 0x1000A1D98, symSize: 0x0 }
  - { offsetInCU: 0x63, offset: 0x393FB, size: 0x8, addend: 0x0, symName: __ZN3glm6lengthILi3EfLNS_9qualifierE0EEET0_RKNS_3vecIXT_ES2_XT1_EEE, symObjAddr: 0xFA4, symBinAddr: 0x100014A28, symSize: 0x24 }
  - { offsetInCU: 0x3746, offset: 0x3CADE, size: 0x8, addend: 0x0, symName: __ZNSt3__119__allocate_at_leastB7v160006INS_9allocatorI6VertexEEEENS_19__allocation_resultINS_16allocator_traitsIT_E7pointerEEERS6_m, symObjAddr: 0x24AC, symBinAddr: 0x100015574, symSize: 0x40 }
  - { offsetInCU: 0x3789, offset: 0x3CB21, size: 0x8, addend: 0x0, symName: __ZNSt3__142__uninitialized_allocator_move_if_noexceptB7v160006INS_9allocatorI6VertexEENS_16reverse_iteratorIPS2_EES6_S2_vEET1_RT_T0_SA_S7_, symObjAddr: 0x281C, symBinAddr: 0x100015800, symSize: 0x78 }
  - { offsetInCU: 0x3806, offset: 0x3CB9E, size: 0x8, addend: 0x0, symName: __ZNSt3__14swapB7v160006IP6VertexEENS_9enable_ifIXaasr21is_move_constructibleIT_EE5valuesr18is_move_assignableIS4_EE5valueEvE4typeERS4_S7_, symObjAddr: 0x28E0, symBinAddr: 0x1000158C4, symSize: 0x3C }
  - { offsetInCU: 0x3857, offset: 0x3CBEF, size: 0x8, addend: 0x0, symName: __ZNSt3__125__debug_db_invalidate_allB7v160006INS_6vectorI6VertexNS_9allocatorIS2_EEEEEEvPT_, symObjAddr: 0x29E4, symBinAddr: 0x1000159C8, symSize: 0x10 }
  - { offsetInCU: 0x3888, offset: 0x3CC20, size: 0x8, addend: 0x0, symName: __ZNSt3__14moveB7v160006INS_16reverse_iteratorIP6VertexEES4_EET0_T_S6_S5_, symObjAddr: 0x29F4, symBinAddr: 0x1000159D8, symSize: 0x78 }
  - { offsetInCU: 0x38E2, offset: 0x3CC7A, size: 0x8, addend: 0x0, symName: __ZNSt3__16__moveB7v160006INS_17_ClassicAlgPolicyENS_16reverse_iteratorIP6VertexEES5_S5_EENS_4pairIT0_T2_EES7_T1_S8_, symObjAddr: 0x2A6C, symBinAddr: 0x100015A50, symSize: 0x64 }
  - { offsetInCU: 0x394E, offset: 0x3CCE6, size: 0x8, addend: 0x0, symName: __ZNSt3__123__dispatch_copy_or_moveB7v160006INS_17_ClassicAlgPolicyENS_11__move_loopIS1_EENS_14__move_trivialENS_16reverse_iteratorIP6VertexEES8_S8_EENS_4pairIT2_T4_EESA_T3_SB_, symObjAddr: 0x2AD0, symBinAddr: 0x100015AB4, symSize: 0x64 }
  - { offsetInCU: 0x39CC, offset: 0x3CD64, size: 0x8, addend: 0x0, symName: __ZNSt3__121__unwrap_and_dispatchB7v160006INS_10__overloadINS_11__move_loopINS_17_ClassicAlgPolicyEEENS_14__move_trivialEEENS_16reverse_iteratorIP6VertexEESA_SA_Li0EEENS_4pairIT0_T2_EESC_T1_SD_, symObjAddr: 0x2B34, symBinAddr: 0x100015B18, symSize: 0x12C }
  - { offsetInCU: 0x3A5C, offset: 0x3CDF4, size: 0x8, addend: 0x0, symName: __ZNSt3__114__unwrap_rangeB7v160006INS_16reverse_iteratorIP6VertexEES4_EENS_4pairIT0_S6_EET_S8_, symObjAddr: 0x2C60, symBinAddr: 0x100015C44, symSize: 0x84 }
  - { offsetInCU: 0x3BCE, offset: 0x3CF66, size: 0x8, addend: 0x0, symName: __ZNSt3__113__unwrap_iterB7v160006INS_16reverse_iteratorIP6VertexEENS_18__unwrap_iter_implIS4_Lb0EEELi0EEEDTclsrT0_8__unwrapclsr3stdE7declvalIT_EEEES8_, symObjAddr: 0x2D80, symBinAddr: 0x100015D64, symSize: 0x44 }
  - { offsetInCU: 0x3C12, offset: 0x3CFAA, size: 0x8, addend: 0x0, symName: __ZNSt3__19make_pairB7v160006INS_16reverse_iteratorIP6VertexEES4_EENS_4pairINS_18__unwrap_ref_decayIT_E4typeENS6_IT0_E4typeEEEOS7_OSA_, symObjAddr: 0x2DC4, symBinAddr: 0x100015DA8, symSize: 0x38 }
  - { offsetInCU: 0x3C61, offset: 0x3CFF9, size: 0x8, addend: 0x0, symName: __ZNSt3__114__rewrap_rangeB7v160006INS_16reverse_iteratorIP6VertexEES4_EET_S5_T0_, symObjAddr: 0x2DFC, symBinAddr: 0x100015DE0, symSize: 0x5C }
  - { offsetInCU: 0x3CAD, offset: 0x3D045, size: 0x8, addend: 0x0, symName: __ZNSt3__113__rewrap_iterB7v160006INS_16reverse_iteratorIP6VertexEES4_NS_18__unwrap_iter_implIS4_Lb0EEEEET_S7_T0_, symObjAddr: 0x2E58, symBinAddr: 0x100015E3C, symSize: 0x74 }
  - { offsetInCU: 0x3D02, offset: 0x3D09A, size: 0x8, addend: 0x0, symName: __ZNSt3__1neB7v160006IP6VertexS2_EEbRKNS_16reverse_iteratorIT_EERKNS3_IT0_EE, symObjAddr: 0x2ECC, symBinAddr: 0x100015EB0, symSize: 0x48 }
  - { offsetInCU: 0x3FC7, offset: 0x3D35F, size: 0x8, addend: 0x0, symName: __ZNSt3__16vectorI6VertexNS_9allocatorIS1_EEE26__swap_out_circular_bufferERNS_14__split_bufferIS1_RS3_EE, symObjAddr: 0x1D90, symBinAddr: 0x1000150C4, symSize: 0x118 }
  - { offsetInCU: 0x64EB, offset: 0x3F883, size: 0x8, addend: 0x0, symName: __ZN4LineC2Ev, symObjAddr: 0x0, symBinAddr: 0x100013B8C, symSize: 0xA0 }
  - { offsetInCU: 0x652C, offset: 0x3F8C4, size: 0x8, addend: 0x0, symName: __ZNSt3__16vectorI6VertexNS_9allocatorIS1_EEEC1B7v160006Ev, symObjAddr: 0xA0, symBinAddr: 0x100013C2C, symSize: 0x2C }
  - { offsetInCU: 0x6556, offset: 0x3F8EE, size: 0x8, addend: 0x0, symName: __ZN4Line15_createGLBufferERKN3glm3vecILi3EfLNS0_9qualifierE0EEES5_S5_, symObjAddr: 0xCC, symBinAddr: 0x100013C58, symSize: 0x1F8 }
  - { offsetInCU: 0x65A7, offset: 0x3F93F, size: 0x8, addend: 0x0, symName: __ZN4LineC1Ev, symObjAddr: 0x2F0, symBinAddr: 0x100013E50, symSize: 0x2C }
  - { offsetInCU: 0x65D3, offset: 0x3F96B, size: 0x8, addend: 0x0, symName: __ZN4LineC2ERKN3glm3vecILi3EfLNS0_9qualifierE0EEES5_S5_, symObjAddr: 0x31C, symBinAddr: 0x100013E7C, symSize: 0x94 }
  - { offsetInCU: 0x6629, offset: 0x3F9C1, size: 0x8, addend: 0x0, symName: __ZN4LineC1ERKN3glm3vecILi3EfLNS0_9qualifierE0EEES5_S5_, symObjAddr: 0x3B0, symBinAddr: 0x100013F10, symSize: 0x44 }
  - { offsetInCU: 0x667F, offset: 0x3FA17, size: 0x8, addend: 0x0, symName: __ZN4LineC2ERK10PrimitivesRKN3glm3vecILi3EfLNS3_9qualifierE0EEES8_f, symObjAddr: 0x3F4, symBinAddr: 0x100013F54, symSize: 0x138 }
  - { offsetInCU: 0x66E3, offset: 0x3FA7B, size: 0x8, addend: 0x0, symName: __ZNSt3__16vectorI6VertexNS_9allocatorIS1_EEE6resizeEm, symObjAddr: 0x52C, symBinAddr: 0x10001408C, symSize: 0x9C }
  - { offsetInCU: 0x672A, offset: 0x3FAC2, size: 0x8, addend: 0x0, symName: __ZN4Line9SetPointsEN3glm3vecILi3EfLNS0_9qualifierE0EEES3_, symObjAddr: 0x5C8, symBinAddr: 0x100014128, symSize: 0x80 }
  - { offsetInCU: 0x676D, offset: 0x3FB05, size: 0x8, addend: 0x0, symName: __ZN4LineC1ERK10PrimitivesRKN3glm3vecILi3EfLNS3_9qualifierE0EEES8_f, symObjAddr: 0x648, symBinAddr: 0x1000141A8, symSize: 0x4C }
  - { offsetInCU: 0x67D2, offset: 0x3FB6A, size: 0x8, addend: 0x0, symName: __ZN4Line16SetStartPositionEN3glm3vecILi3EfLNS0_9qualifierE0EEE, symObjAddr: 0x694, symBinAddr: 0x1000141F4, symSize: 0x9C }
  - { offsetInCU: 0x6808, offset: 0x3FBA0, size: 0x8, addend: 0x0, symName: __ZNSt3__16vectorI6VertexNS_9allocatorIS1_EEEixB7v160006Em, symObjAddr: 0x730, symBinAddr: 0x100014290, symSize: 0x2C }
  - { offsetInCU: 0x683F, offset: 0x3FBD7, size: 0x8, addend: 0x0, symName: __ZN4Line16_adjustRectangleEv, symObjAddr: 0x75C, symBinAddr: 0x1000142BC, symSize: 0x174 }
  - { offsetInCU: 0x68A0, offset: 0x3FC38, size: 0x8, addend: 0x0, symName: __ZN4Line14SetEndPositionEN3glm3vecILi3EfLNS0_9qualifierE0EEE, symObjAddr: 0x8D0, symBinAddr: 0x100014430, symSize: 0x9C }
  - { offsetInCU: 0x68D6, offset: 0x3FC6E, size: 0x8, addend: 0x0, symName: __ZN4Line16GetStartPositionEv, symObjAddr: 0x96C, symBinAddr: 0x1000144CC, symSize: 0x48 }
  - { offsetInCU: 0x68FE, offset: 0x3FC96, size: 0x8, addend: 0x0, symName: __ZN4Line14GetEndPositionEv, symObjAddr: 0x9B4, symBinAddr: 0x100014514, symSize: 0x48 }
  - { offsetInCU: 0x6926, offset: 0x3FCBE, size: 0x8, addend: 0x0, symName: __ZN4Line4DrawER6ShaderR6Camera, symObjAddr: 0x9FC, symBinAddr: 0x10001455C, symSize: 0x2FC }
  - { offsetInCU: 0x69B3, offset: 0x3FD4B, size: 0x8, addend: 0x0, symName: __ZNSt3__16vectorI6VertexNS_9allocatorIS1_EEE9push_backB7v160006EOS1_, symObjAddr: 0xD20, symBinAddr: 0x100014858, symSize: 0x6C }
  - { offsetInCU: 0x69EA, offset: 0x3FD82, size: 0x8, addend: 0x0, symName: __ZN3glm3vecILi2EfLNS_9qualifierE0EEC1Eff, symObjAddr: 0xDD0, symBinAddr: 0x1000148C4, symSize: 0x3C }
  - { offsetInCU: 0x6A33, offset: 0x3FDCB, size: 0x8, addend: 0x0, symName: __ZN4Line8SetColorEN3glm3vecILi3EfLNS0_9qualifierE0EEE, symObjAddr: 0xE0C, symBinAddr: 0x100014900, symSize: 0xC4 }
  - { offsetInCU: 0x6A69, offset: 0x3FE01, size: 0x8, addend: 0x0, symName: __ZN4Line9GetLengthEv, symObjAddr: 0xED0, symBinAddr: 0x1000149C4, symSize: 0x64 }
  - { offsetInCU: 0x6A9F, offset: 0x3FE37, size: 0x8, addend: 0x0, symName: __ZN4Line11GetMidPointEv, symObjAddr: 0xFC8, symBinAddr: 0x100014A4C, symSize: 0x104 }
  - { offsetInCU: 0x6AC6, offset: 0x3FE5E, size: 0x8, addend: 0x0, symName: __Z5atan2B7v160006ff, symObjAddr: 0x1138, symBinAddr: 0x100014B50, symSize: 0x2C }
  - { offsetInCU: 0x6B04, offset: 0x3FE9C, size: 0x8, addend: 0x0, symName: __ZN3glm3vecILi2EfLNS_9qualifierE0EEC2Eff, symObjAddr: 0x119C, symBinAddr: 0x100014B7C, symSize: 0x2C }
  - { offsetInCU: 0x6B4C, offset: 0x3FEE4, size: 0x8, addend: 0x0, symName: __ZNSt3__16vectorI6VertexNS_9allocatorIS1_EEEC2B7v160006Ev, symObjAddr: 0x120C, symBinAddr: 0x100014BA8, symSize: 0x58 }
  - { offsetInCU: 0x6B80, offset: 0x3FF18, size: 0x8, addend: 0x0, symName: __ZNSt3__117__compressed_pairIP6VertexNS_9allocatorIS1_EEEC1B7v160006IDnNS_18__default_init_tagEEEOT_OT0_, symObjAddr: 0x1264, symBinAddr: 0x100014C00, symSize: 0x3C }
  - { offsetInCU: 0x6BD8, offset: 0x3FF70, size: 0x8, addend: 0x0, symName: __ZNSt3__117__compressed_pairIP6VertexNS_9allocatorIS1_EEEC2B7v160006IDnNS_18__default_init_tagEEEOT_OT0_, symObjAddr: 0x12BC, symBinAddr: 0x100014C3C, symSize: 0x40 }
  - { offsetInCU: 0x6C30, offset: 0x3FFC8, size: 0x8, addend: 0x0, symName: __ZNSt3__122__compressed_pair_elemINS_9allocatorI6VertexEELi1ELb1EEC2B7v160006ENS_18__default_init_tagE, symObjAddr: 0x1318, symBinAddr: 0x100014C7C, symSize: 0x2C }
  - { offsetInCU: 0x6C65, offset: 0x3FFFD, size: 0x8, addend: 0x0, symName: __ZNSt3__19allocatorI6VertexEC2B7v160006Ev, symObjAddr: 0x1344, symBinAddr: 0x100014CA8, symSize: 0x2C }
  - { offsetInCU: 0x6C8F, offset: 0x40027, size: 0x8, addend: 0x0, symName: __ZNSt3__116__non_trivial_ifILb1ENS_9allocatorI6VertexEEEC2B7v160006Ev, symObjAddr: 0x1370, symBinAddr: 0x100014CD4, symSize: 0x14 }
  - { offsetInCU: 0x6CB8, offset: 0x40050, size: 0x8, addend: 0x0, symName: __ZNSt3__16vectorI6VertexNS_9allocatorIS1_EEE8__appendEm, symObjAddr: 0x198C, symBinAddr: 0x100014CE8, symSize: 0x108 }
  - { offsetInCU: 0x6D14, offset: 0x400AC, size: 0x8, addend: 0x0, symName: __ZNSt3__16vectorI6VertexNS_9allocatorIS1_EEE17__destruct_at_endB7v160006EPS1_, symObjAddr: 0x1A94, symBinAddr: 0x100014DF0, symSize: 0x60 }
  - { offsetInCU: 0x6D57, offset: 0x400EF, size: 0x8, addend: 0x0, symName: __ZNSt3__16vectorI6VertexNS_9allocatorIS1_EEE18__construct_at_endEm, symObjAddr: 0x1B1C, symBinAddr: 0x100014E50, symSize: 0xC8 }
  - { offsetInCU: 0x6DC9, offset: 0x40161, size: 0x8, addend: 0x0, symName: __ZNKSt3__16vectorI6VertexNS_9allocatorIS1_EEE11__recommendB7v160006Em, symObjAddr: 0x1BE4, symBinAddr: 0x100014F18, symSize: 0xB4 }
  - { offsetInCU: 0x6E1F, offset: 0x401B7, size: 0x8, addend: 0x0, symName: __ZNSt3__114__split_bufferI6VertexRNS_9allocatorIS1_EEEC1EmmS4_, symObjAddr: 0x1C98, symBinAddr: 0x100014FCC, symSize: 0x44 }
  - { offsetInCU: 0x6E75, offset: 0x4020D, size: 0x8, addend: 0x0, symName: __ZNSt3__114__split_bufferI6VertexRNS_9allocatorIS1_EEE18__construct_at_endEm, symObjAddr: 0x1CDC, symBinAddr: 0x100015010, symSize: 0xB4 }
  - { offsetInCU: 0x6EB8, offset: 0x40250, size: 0x8, addend: 0x0, symName: __ZNSt3__114__split_bufferI6VertexRNS_9allocatorIS1_EEED1Ev, symObjAddr: 0x1EA8, symBinAddr: 0x1000151DC, symSize: 0x2C }
  - { offsetInCU: 0x6EFD, offset: 0x40295, size: 0x8, addend: 0x0, symName: __ZNSt3__16vectorI6VertexNS_9allocatorIS1_EEE21_ConstructTransactionC1B7v160006ERS4_m, symObjAddr: 0x1F0C, symBinAddr: 0x100015208, symSize: 0x3C }
  - { offsetInCU: 0x6F45, offset: 0x402DD, size: 0x8, addend: 0x0, symName: __ZNSt3__116allocator_traitsINS_9allocatorI6VertexEEE9constructB7v160006IS2_JEvEEvRS3_PT_DpOT0_, symObjAddr: 0x1F48, symBinAddr: 0x100015244, symSize: 0x2C }
  - { offsetInCU: 0x6F87, offset: 0x4031F, size: 0x8, addend: 0x0, symName: __ZNSt3__16vectorI6VertexNS_9allocatorIS1_EEE21_ConstructTransactionD1B7v160006Ev, symObjAddr: 0x1F74, symBinAddr: 0x100015270, symSize: 0x2C }
  - { offsetInCU: 0x6FB1, offset: 0x40349, size: 0x8, addend: 0x0, symName: __ZNSt3__16vectorI6VertexNS_9allocatorIS1_EEE21_ConstructTransactionC2B7v160006ERS4_m, symObjAddr: 0x1FA0, symBinAddr: 0x10001529C, symSize: 0x4C }
  - { offsetInCU: 0x6FF9, offset: 0x40391, size: 0x8, addend: 0x0, symName: __ZNSt3__19allocatorI6VertexE9constructB7v160006IS1_JEEEvPT_DpOT0_, symObjAddr: 0x1FEC, symBinAddr: 0x1000152E8, symSize: 0x30 }
  - { offsetInCU: 0x703B, offset: 0x403D3, size: 0x8, addend: 0x0, symName: __ZNSt3__16vectorI6VertexNS_9allocatorIS1_EEE21_ConstructTransactionD2B7v160006Ev, symObjAddr: 0x201C, symBinAddr: 0x100015318, symSize: 0x20 }
  - { offsetInCU: 0x7064, offset: 0x403FC, size: 0x8, addend: 0x0, symName: __ZNKSt3__16vectorI6VertexNS_9allocatorIS1_EEE8max_sizeEv, symObjAddr: 0x203C, symBinAddr: 0x100015338, symSize: 0x60 }
  - { offsetInCU: 0x708D, offset: 0x40425, size: 0x8, addend: 0x0, symName: __ZNKSt3__16vectorI6VertexNS_9allocatorIS1_EEE20__throw_length_errorB7v160006Ev, symObjAddr: 0x209C, symBinAddr: 0x100015398, symSize: 0x1C }
  - { offsetInCU: 0x70BD, offset: 0x40455, size: 0x8, addend: 0x0, symName: __ZNSt3__116allocator_traitsINS_9allocatorI6VertexEEE8max_sizeB7v160006IS3_vEEmRKS3_, symObjAddr: 0x2110, symBinAddr: 0x1000153B4, symSize: 0x24 }
  - { offsetInCU: 0x70EB, offset: 0x40483, size: 0x8, addend: 0x0, symName: __ZNKSt3__16vectorI6VertexNS_9allocatorIS1_EEE7__allocB7v160006Ev, symObjAddr: 0x2134, symBinAddr: 0x1000153D8, symSize: 0x28 }
  - { offsetInCU: 0x7111, offset: 0x404A9, size: 0x8, addend: 0x0, symName: __ZNKSt3__19allocatorI6VertexE8max_sizeB7v160006Ev, symObjAddr: 0x21F8, symBinAddr: 0x100015400, symSize: 0x20 }
  - { offsetInCU: 0x7137, offset: 0x404CF, size: 0x8, addend: 0x0, symName: __ZNKSt3__117__compressed_pairIP6VertexNS_9allocatorIS1_EEE6secondB7v160006Ev, symObjAddr: 0x2218, symBinAddr: 0x100015420, symSize: 0x24 }
  - { offsetInCU: 0x715D, offset: 0x404F5, size: 0x8, addend: 0x0, symName: __ZNKSt3__122__compressed_pair_elemINS_9allocatorI6VertexEELi1ELb1EE5__getB7v160006Ev, symObjAddr: 0x223C, symBinAddr: 0x100015444, symSize: 0x14 }
  - { offsetInCU: 0x7183, offset: 0x4051B, size: 0x8, addend: 0x0, symName: __ZNSt3__114__split_bufferI6VertexRNS_9allocatorIS1_EEEC2EmmS4_, symObjAddr: 0x2390, symBinAddr: 0x100015458, symSize: 0xE0 }
  - { offsetInCU: 0x71F6, offset: 0x4058E, size: 0x8, addend: 0x0, symName: __ZNSt3__117__compressed_pairIP6VertexRNS_9allocatorIS1_EEEC1B7v160006IDnS5_EEOT_OT0_, symObjAddr: 0x2470, symBinAddr: 0x100015538, symSize: 0x3C }
  - { offsetInCU: 0x724E, offset: 0x405E6, size: 0x8, addend: 0x0, symName: __ZNSt3__114__split_bufferI6VertexRNS_9allocatorIS1_EEE7__allocB7v160006Ev, symObjAddr: 0x24EC, symBinAddr: 0x1000155B4, symSize: 0x28 }
  - { offsetInCU: 0x7274, offset: 0x4060C, size: 0x8, addend: 0x0, symName: __ZNSt3__114__split_bufferI6VertexRNS_9allocatorIS1_EEE9__end_capB7v160006Ev, symObjAddr: 0x2514, symBinAddr: 0x1000155DC, symSize: 0x28 }
  - { offsetInCU: 0x729A, offset: 0x40632, size: 0x8, addend: 0x0, symName: __ZNSt3__117__compressed_pairIP6VertexRNS_9allocatorIS1_EEEC2B7v160006IDnS5_EEOT_OT0_, symObjAddr: 0x253C, symBinAddr: 0x100015604, symSize: 0x48 }
  - { offsetInCU: 0x72F2, offset: 0x4068A, size: 0x8, addend: 0x0, symName: __ZNSt3__122__compressed_pair_elemIRNS_9allocatorI6VertexEELi1ELb0EEC2B7v160006IS4_vEEOT_, symObjAddr: 0x2584, symBinAddr: 0x10001564C, symSize: 0x20 }
  - { offsetInCU: 0x7334, offset: 0x406CC, size: 0x8, addend: 0x0, symName: __ZNSt3__19allocatorI6VertexE8allocateB7v160006Em, symObjAddr: 0x25A4, symBinAddr: 0x10001566C, symSize: 0x5C }
  - { offsetInCU: 0x7368, offset: 0x40700, size: 0x8, addend: 0x0, symName: __ZNSt3__117__compressed_pairIP6VertexRNS_9allocatorIS1_EEE6secondB7v160006Ev, symObjAddr: 0x26E4, symBinAddr: 0x1000156C8, symSize: 0x28 }
  - { offsetInCU: 0x738E, offset: 0x40726, size: 0x8, addend: 0x0, symName: __ZNSt3__122__compressed_pair_elemIRNS_9allocatorI6VertexEELi1ELb0EE5__getB7v160006Ev, symObjAddr: 0x270C, symBinAddr: 0x1000156F0, symSize: 0x18 }
  - { offsetInCU: 0x73B4, offset: 0x4074C, size: 0x8, addend: 0x0, symName: __ZNSt3__117__compressed_pairIP6VertexRNS_9allocatorIS1_EEE5firstB7v160006Ev, symObjAddr: 0x2724, symBinAddr: 0x100015708, symSize: 0x24 }
  - { offsetInCU: 0x73E4, offset: 0x4077C, size: 0x8, addend: 0x0, symName: __ZNSt3__114__split_bufferI6VertexRNS_9allocatorIS1_EEE21_ConstructTransactionC1B7v160006EPPS1_m, symObjAddr: 0x2748, symBinAddr: 0x10001572C, symSize: 0x3C }
  - { offsetInCU: 0x742A, offset: 0x407C2, size: 0x8, addend: 0x0, symName: __ZNSt3__114__split_bufferI6VertexRNS_9allocatorIS1_EEE21_ConstructTransactionD1B7v160006Ev, symObjAddr: 0x2784, symBinAddr: 0x100015768, symSize: 0x2C }
  - { offsetInCU: 0x7454, offset: 0x407EC, size: 0x8, addend: 0x0, symName: __ZNSt3__114__split_bufferI6VertexRNS_9allocatorIS1_EEE21_ConstructTransactionC2B7v160006EPPS1_m, symObjAddr: 0x27B0, symBinAddr: 0x100015794, symSize: 0x4C }
  - { offsetInCU: 0x749A, offset: 0x40832, size: 0x8, addend: 0x0, symName: __ZNSt3__114__split_bufferI6VertexRNS_9allocatorIS1_EEE21_ConstructTransactionD2B7v160006Ev, symObjAddr: 0x27FC, symBinAddr: 0x1000157E0, symSize: 0x20 }
  - { offsetInCU: 0x74C4, offset: 0x4085C, size: 0x8, addend: 0x0, symName: __ZNSt3__116reverse_iteratorIP6VertexEC1B7v160006ES2_, symObjAddr: 0x2894, symBinAddr: 0x100015878, symSize: 0x34 }
  - { offsetInCU: 0x74FC, offset: 0x40894, size: 0x8, addend: 0x0, symName: __ZNKSt3__116reverse_iteratorIP6VertexE4baseB7v160006Ev, symObjAddr: 0x28C8, symBinAddr: 0x1000158AC, symSize: 0x18 }
  - { offsetInCU: 0x7522, offset: 0x408BA, size: 0x8, addend: 0x0, symName: __ZNKSt3__16vectorI6VertexNS_9allocatorIS1_EEE14__annotate_newB7v160006Em, symObjAddr: 0x291C, symBinAddr: 0x100015900, symSize: 0xC8 }
  - { offsetInCU: 0x757A, offset: 0x40912, size: 0x8, addend: 0x0, symName: __ZNKSt3__111__move_loopINS_17_ClassicAlgPolicyEEclB7v160006INS_16reverse_iteratorIP6VertexEES7_S7_EENS_4pairIT_T1_EES9_T0_SA_, symObjAddr: 0x2CE4, symBinAddr: 0x100015CC8, symSize: 0x9C }
  - { offsetInCU: 0x75EA, offset: 0x40982, size: 0x8, addend: 0x0, symName: __ZNSt3__18_IterOpsINS_17_ClassicAlgPolicyEE11__iter_moveB7v160006IRNS_16reverse_iteratorIP6VertexEEEENS_9enable_ifIXsr12is_referenceIDTdeclsr3stdE7declvalIRT_EEEEE5valueEDTclsr3stdE4movedeclsr3stdE7declvalISB_EEEEE4typeEOSA_, symObjAddr: 0x2F14, symBinAddr: 0x100015EF8, symSize: 0x28 }
  - { offsetInCU: 0x7616, offset: 0x409AE, size: 0x8, addend: 0x0, symName: __ZNKSt3__116reverse_iteratorIP6VertexEdeB7v160006Ev, symObjAddr: 0x2F3C, symBinAddr: 0x100015F20, symSize: 0x28 }
  - { offsetInCU: 0x764A, offset: 0x409E2, size: 0x8, addend: 0x0, symName: __ZNSt3__116reverse_iteratorIP6VertexEppB7v160006Ev, symObjAddr: 0x2F64, symBinAddr: 0x100015F48, symSize: 0x20 }
  - { offsetInCU: 0x7670, offset: 0x40A08, size: 0x8, addend: 0x0, symName: __ZNSt3__18_IterOpsINS_17_ClassicAlgPolicyEE25__validate_iter_referenceB7v160006IRNS_16reverse_iteratorIP6VertexEEEEvv, symObjAddr: 0x2F84, symBinAddr: 0x100015F68, symSize: 0x4 }
  - { offsetInCU: 0x768E, offset: 0x40A26, size: 0x8, addend: 0x0, symName: __ZNSt3__118__unwrap_iter_implINS_16reverse_iteratorIP6VertexEELb0EE8__unwrapB7v160006ES4_, symObjAddr: 0x2F88, symBinAddr: 0x100015F6C, symSize: 0x24 }
  - { offsetInCU: 0x76B6, offset: 0x40A4E, size: 0x8, addend: 0x0, symName: __ZNSt3__14pairINS_16reverse_iteratorIP6VertexEES4_EC1B7v160006IS4_S4_LPv0EEEOT_OT0_, symObjAddr: 0x2FAC, symBinAddr: 0x100015F90, symSize: 0x3C }
  - { offsetInCU: 0x7714, offset: 0x40AAC, size: 0x8, addend: 0x0, symName: __ZNSt3__14pairINS_16reverse_iteratorIP6VertexEES4_EC2B7v160006IS4_S4_LPv0EEEOT_OT0_, symObjAddr: 0x2FE8, symBinAddr: 0x100015FCC, symSize: 0x34 }
  - { offsetInCU: 0x7772, offset: 0x40B0A, size: 0x8, addend: 0x0, symName: __ZNSt3__118__unwrap_iter_implINS_16reverse_iteratorIP6VertexEELb0EE8__rewrapB7v160006ES4_S4_, symObjAddr: 0x301C, symBinAddr: 0x100016000, symSize: 0x2C }
  - { offsetInCU: 0x77A0, offset: 0x40B38, size: 0x8, addend: 0x0, symName: __ZNSt3__116reverse_iteratorIP6VertexEC2B7v160006ES2_, symObjAddr: 0x3048, symBinAddr: 0x10001602C, symSize: 0x28 }
  - { offsetInCU: 0x77D8, offset: 0x40B70, size: 0x8, addend: 0x0, symName: __ZNSt3__114__split_bufferI6VertexRNS_9allocatorIS1_EEED2Ev, symObjAddr: 0x3070, symBinAddr: 0x100016054, symSize: 0x8C }
  - { offsetInCU: 0x7804, offset: 0x40B9C, size: 0x8, addend: 0x0, symName: __ZNSt3__114__split_bufferI6VertexRNS_9allocatorIS1_EEE5clearB7v160006Ev, symObjAddr: 0x30FC, symBinAddr: 0x1000160E0, symSize: 0x28 }
  - { offsetInCU: 0x782A, offset: 0x40BC2, size: 0x8, addend: 0x0, symName: __ZNKSt3__114__split_bufferI6VertexRNS_9allocatorIS1_EEE8capacityB7v160006Ev, symObjAddr: 0x3124, symBinAddr: 0x100016108, symSize: 0x40 }
  - { offsetInCU: 0x7850, offset: 0x40BE8, size: 0x8, addend: 0x0, symName: __ZNSt3__114__split_bufferI6VertexRNS_9allocatorIS1_EEE17__destruct_at_endB7v160006EPS1_, symObjAddr: 0x3164, symBinAddr: 0x100016148, symSize: 0x2C }
  - { offsetInCU: 0x7883, offset: 0x40C1B, size: 0x8, addend: 0x0, symName: __ZNSt3__114__split_bufferI6VertexRNS_9allocatorIS1_EEE17__destruct_at_endB7v160006EPS1_NS_17integral_constantIbLb0EEE, symObjAddr: 0x3190, symBinAddr: 0x100016174, symSize: 0x80 }
  - { offsetInCU: 0x78C5, offset: 0x40C5D, size: 0x8, addend: 0x0, symName: __ZNKSt3__114__split_bufferI6VertexRNS_9allocatorIS1_EEE9__end_capB7v160006Ev, symObjAddr: 0x3210, symBinAddr: 0x1000161F4, symSize: 0x28 }
  - { offsetInCU: 0x78EB, offset: 0x40C83, size: 0x8, addend: 0x0, symName: __ZNKSt3__117__compressed_pairIP6VertexRNS_9allocatorIS1_EEE5firstB7v160006Ev, symObjAddr: 0x3238, symBinAddr: 0x10001621C, symSize: 0x24 }
  - { offsetInCU: 0x7911, offset: 0x40CA9, size: 0x8, addend: 0x0, symName: __ZNSt3__16vectorI6VertexNS_9allocatorIS1_EEE27__invalidate_iterators_pastB7v160006EPS1_, symObjAddr: 0x325C, symBinAddr: 0x100016240, symSize: 0x14 }
  - { offsetInCU: 0x7948, offset: 0x40CE0, size: 0x8, addend: 0x0, symName: __ZNKSt3__16vectorI6VertexNS_9allocatorIS1_EEE17__annotate_shrinkB7v160006Em, symObjAddr: 0x3270, symBinAddr: 0x100016254, symSize: 0xD0 }
  - { offsetInCU: 0x797D, offset: 0x40D15, size: 0x8, addend: 0x0, symName: __ZNSt3__16vectorI6VertexNS_9allocatorIS1_EEE22__construct_one_at_endB7v160006IJS1_EEEvDpOT_, symObjAddr: 0x33C0, symBinAddr: 0x100016324, symSize: 0x90 }
  - { offsetInCU: 0x79CB, offset: 0x40D63, size: 0x8, addend: 0x0, symName: __ZNSt3__16vectorI6VertexNS_9allocatorIS1_EEE21__push_back_slow_pathIS1_EEvOT_, symObjAddr: 0x3450, symBinAddr: 0x1000163B4, symSize: 0xD8 }
  - { offsetInCU: 0x7A2A, offset: 0x40DC2, size: 0x8, addend: 0x0, symName: __ZNSt3__116allocator_traitsINS_9allocatorI6VertexEEE9constructB7v160006IS2_JS2_EvEEvRS3_PT_DpOT0_, symObjAddr: 0x3528, symBinAddr: 0x10001648C, symSize: 0x34 }
  - { offsetInCU: 0x7A81, offset: 0x40E19, size: 0x8, addend: 0x0, symName: __ZNSt3__19allocatorI6VertexE9constructB7v160006IS1_JS1_EEEvPT_DpOT0_, symObjAddr: 0x355C, symBinAddr: 0x1000164C0, symSize: 0x34 }
  - { offsetInCU: 0x7AD7, offset: 0x40E6F, size: 0x8, addend: 0x0, symName: __ZN3glm6detail14compute_lengthILi3EfLNS_9qualifierE0ELb0EE4callERKNS_3vecILi3EfLS2_0EEE, symObjAddr: 0x3590, symBinAddr: 0x1000164F4, symSize: 0x2C }
  - { offsetInCU: 0x6983, offset: 0x47878, size: 0x8, addend: 0x0, symName: _main, symObjAddr: 0x0, symBinAddr: 0x100016520, symSize: 0x23C }
  - { offsetInCU: 0x69BA, offset: 0x478AF, size: 0x8, addend: 0x0, symName: __ZL9glfwErroriPKc, symObjAddr: 0x23C, symBinAddr: 0x10001675C, symSize: 0x3C }
  - { offsetInCU: 0x3E87, offset: 0x4C256, size: 0x8, addend: 0x0, symName: __ZNSt3__119__debug_db_insert_cB7v160006INS_6vectorINS1_IfNS_9allocatorIfEEEENS2_IS4_EEEEEEvPT_, symObjAddr: 0xAC4, symBinAddr: 0x1000171BC, symSize: 0x10 }
  - { offsetInCU: 0x3EB8, offset: 0x4C287, size: 0x8, addend: 0x0, symName: __ZNSt3__118__debug_db_erase_cB7v160006INS_6vectorINS1_IfNS_9allocatorIfEEEENS2_IS4_EEEEEEvPT_, symObjAddr: 0xDA4, symBinAddr: 0x10001749C, symSize: 0x10 }
  - { offsetInCU: 0x3EE9, offset: 0x4C2B8, size: 0x8, addend: 0x0, symName: __ZNSt3__112__to_addressB7v160006INS_6vectorIfNS_9allocatorIfEEEEEEPT_S6_, symObjAddr: 0xEC0, symBinAddr: 0x1000175B8, symSize: 0x14 }
  - { offsetInCU: 0x3F1E, offset: 0x4C2ED, size: 0x8, addend: 0x0, symName: __ZNSt3__119__allocate_at_leastB7v160006INS_9allocatorINS_6vectorIfNS1_IfEEEEEEEENS_19__allocation_resultINS_16allocator_traitsIT_E7pointerEEERS8_m, symObjAddr: 0x2E7C, symBinAddr: 0x1000180E8, symSize: 0x40 }
  - { offsetInCU: 0x3F61, offset: 0x4C330, size: 0x8, addend: 0x0, symName: __ZNSt3__142__uninitialized_allocator_move_if_noexceptB7v160006INS_9allocatorINS_6vectorIfNS1_IfEEEEEENS_16reverse_iteratorIPS4_EES8_S8_EET2_RT_T0_T1_S9_, symObjAddr: 0x31EC, symBinAddr: 0x100018374, symSize: 0x12C }
  - { offsetInCU: 0x4001, offset: 0x4C3D0, size: 0x8, addend: 0x0, symName: __ZNSt3__14swapB7v160006IPNS_6vectorIfNS_9allocatorIfEEEEEENS_9enable_ifIXaasr21is_move_constructibleIT_EE5valuesr18is_move_assignableIS7_EE5valueEvE4typeERS7_SA_, symObjAddr: 0x3364, symBinAddr: 0x1000184EC, symSize: 0x3C }
  - { offsetInCU: 0x4052, offset: 0x4C421, size: 0x8, addend: 0x0, symName: __ZNSt3__125__debug_db_invalidate_allB7v160006INS_6vectorINS1_IfNS_9allocatorIfEEEENS2_IS4_EEEEEEvPT_, symObjAddr: 0x3468, symBinAddr: 0x1000185F0, symSize: 0x10 }
  - { offsetInCU: 0x4083, offset: 0x4C452, size: 0x8, addend: 0x0, symName: __ZNSt3__122__make_exception_guardB7v160006INS_29_AllocatorDestroyRangeReverseINS_9allocatorINS_6vectorIfNS2_IfEEEEEENS_16reverse_iteratorIPS5_EEEEEENS_28__exception_guard_exceptionsIT_EESC_, symObjAddr: 0x3478, symBinAddr: 0x100018600, symSize: 0x4C }
  - { offsetInCU: 0x40B9, offset: 0x4C488, size: 0x8, addend: 0x0, symName: __ZNSt3__1neB7v160006IPNS_6vectorIfNS_9allocatorIfEEEES5_EEbRKNS_16reverse_iteratorIT_EERKNS6_IT0_EE, symObjAddr: 0x3508, symBinAddr: 0x100018690, symSize: 0x48 }
  - { offsetInCU: 0x4105, offset: 0x4C4D4, size: 0x8, addend: 0x0, symName: __ZNSt3__112__to_addressB7v160006INS_16reverse_iteratorIPNS_6vectorIfNS_9allocatorIfEEEEEEvEENS_5decayIDTclsr19__to_address_helperIT_EE6__callclsr3stdE7declvalIRKS9_EEEEE4typeESB_, symObjAddr: 0x3584, symBinAddr: 0x10001870C, symSize: 0x24 }
  - { offsetInCU: 0x413B, offset: 0x4C50A, size: 0x8, addend: 0x0, symName: __ZNSt3__115__debug_db_swapB7v160006INS_6vectorIfNS_9allocatorIfEEEEEEvPT_S6_, symObjAddr: 0x3850, symBinAddr: 0x1000189D8, symSize: 0x14 }
  - { offsetInCU: 0x41A3, offset: 0x4C572, size: 0x8, addend: 0x0, symName: __ZNSt3__119__allocator_destroyB7v160006INS_9allocatorINS_6vectorIfNS1_IfEEEEEENS_16reverse_iteratorINS6_IPS4_EEEES9_EEvRT_T0_T1_, symObjAddr: 0x3A80, symBinAddr: 0x100018BA8, symSize: 0x70 }
  - { offsetInCU: 0x4208, offset: 0x4C5D7, size: 0x8, addend: 0x0, symName: __ZNSt3__1neB7v160006INS_16reverse_iteratorIPNS_6vectorIfNS_9allocatorIfEEEEEES7_EEbRKNS1_IT_EERKNS1_IT0_EE, symObjAddr: 0x3B2C, symBinAddr: 0x100018C54, symSize: 0x60 }
  - { offsetInCU: 0x4254, offset: 0x4C623, size: 0x8, addend: 0x0, symName: __ZNSt3__112__to_addressB7v160006INS_16reverse_iteratorINS1_IPNS_6vectorIfNS_9allocatorIfEEEEEEEEvEENS_5decayIDTclsr19__to_address_helperIT_EE6__callclsr3stdE7declvalIRKSA_EEEEE4typeESC_, symObjAddr: 0x3B8C, symBinAddr: 0x100018CB4, symSize: 0x24 }
  - { offsetInCU: 0x42B3, offset: 0x4C682, size: 0x8, addend: 0x0, symName: __ZNSt3__142__uninitialized_allocator_move_if_noexceptB7v160006INS_9allocatorIfEENS_16reverse_iteratorIPfEES5_fvEET1_RT_T0_S9_S6_, symObjAddr: 0x4AB4, symBinAddr: 0x100019964, symSize: 0x78 }
  - { offsetInCU: 0x4330, offset: 0x4C6FF, size: 0x8, addend: 0x0, symName: __ZNSt3__14swapB7v160006IPfEENS_9enable_ifIXaasr21is_move_constructibleIT_EE5valuesr18is_move_assignableIS3_EE5valueEvE4typeERS3_S6_, symObjAddr: 0x4B78, symBinAddr: 0x100019A28, symSize: 0x3C }
  - { offsetInCU: 0x4381, offset: 0x4C750, size: 0x8, addend: 0x0, symName: __ZNSt3__125__debug_db_invalidate_allB7v160006INS_6vectorIfNS_9allocatorIfEEEEEEvPT_, symObjAddr: 0x4C60, symBinAddr: 0x100019A64, symSize: 0x10 }
  - { offsetInCU: 0x43B2, offset: 0x4C781, size: 0x8, addend: 0x0, symName: __ZNSt3__14moveB7v160006INS_16reverse_iteratorIPfEES3_EET0_T_S5_S4_, symObjAddr: 0x4C70, symBinAddr: 0x100019A74, symSize: 0x78 }
  - { offsetInCU: 0x440C, offset: 0x4C7DB, size: 0x8, addend: 0x0, symName: __ZNSt3__16__moveB7v160006INS_17_ClassicAlgPolicyENS_16reverse_iteratorIPfEES4_S4_EENS_4pairIT0_T2_EES6_T1_S7_, symObjAddr: 0x4CE8, symBinAddr: 0x100019AEC, symSize: 0x64 }
  - { offsetInCU: 0x4478, offset: 0x4C847, size: 0x8, addend: 0x0, symName: __ZNSt3__123__dispatch_copy_or_moveB7v160006INS_17_ClassicAlgPolicyENS_11__move_loopIS1_EENS_14__move_trivialENS_16reverse_iteratorIPfEES7_S7_EENS_4pairIT2_T4_EES9_T3_SA_, symObjAddr: 0x4D4C, symBinAddr: 0x100019B50, symSize: 0x64 }
  - { offsetInCU: 0x44F6, offset: 0x4C8C5, size: 0x8, addend: 0x0, symName: __ZNSt3__121__unwrap_and_dispatchB7v160006INS_10__overloadINS_11__move_loopINS_17_ClassicAlgPolicyEEENS_14__move_trivialEEENS_16reverse_iteratorIPfEES9_S9_Li0EEENS_4pairIT0_T2_EESB_T1_SC_, symObjAddr: 0x4DB0, symBinAddr: 0x100019BB4, symSize: 0x12C }
  - { offsetInCU: 0x4586, offset: 0x4C955, size: 0x8, addend: 0x0, symName: __ZNSt3__114__unwrap_rangeB7v160006INS_16reverse_iteratorIPfEES3_EENS_4pairIT0_S5_EET_S7_, symObjAddr: 0x4EDC, symBinAddr: 0x100019CE0, symSize: 0x84 }
  - { offsetInCU: 0x46F8, offset: 0x4CAC7, size: 0x8, addend: 0x0, symName: __ZNSt3__113__unwrap_iterB7v160006INS_16reverse_iteratorIPfEENS_18__unwrap_iter_implIS3_Lb0EEELi0EEEDTclsrT0_8__unwrapclsr3stdE7declvalIT_EEEES7_, symObjAddr: 0x5000, symBinAddr: 0x100019E04, symSize: 0x44 }
  - { offsetInCU: 0x473C, offset: 0x4CB0B, size: 0x8, addend: 0x0, symName: __ZNSt3__19make_pairB7v160006INS_16reverse_iteratorIPfEES3_EENS_4pairINS_18__unwrap_ref_decayIT_E4typeENS5_IT0_E4typeEEEOS6_OS9_, symObjAddr: 0x5044, symBinAddr: 0x100019E48, symSize: 0x38 }
  - { offsetInCU: 0x478B, offset: 0x4CB5A, size: 0x8, addend: 0x0, symName: __ZNSt3__114__rewrap_rangeB7v160006INS_16reverse_iteratorIPfEES3_EET_S4_T0_, symObjAddr: 0x507C, symBinAddr: 0x100019E80, symSize: 0x5C }
  - { offsetInCU: 0x47D7, offset: 0x4CBA6, size: 0x8, addend: 0x0, symName: __ZNSt3__113__rewrap_iterB7v160006INS_16reverse_iteratorIPfEES3_NS_18__unwrap_iter_implIS3_Lb0EEEEET_S6_T0_, symObjAddr: 0x50D8, symBinAddr: 0x100019EDC, symSize: 0x74 }
  - { offsetInCU: 0x482C, offset: 0x4CBFB, size: 0x8, addend: 0x0, symName: __ZNSt3__1neB7v160006IPfS1_EEbRKNS_16reverse_iteratorIT_EERKNS2_IT0_EE, symObjAddr: 0x514C, symBinAddr: 0x100019F50, symSize: 0x48 }
  - { offsetInCU: 0x4D3D, offset: 0x4D10C, size: 0x8, addend: 0x0, symName: __ZNSt3__16vectorINS0_IfNS_9allocatorIfEEEENS1_IS3_EEE26__swap_out_circular_bufferERNS_14__split_bufferIS3_RS4_EE, symObjAddr: 0x25D8, symBinAddr: 0x100017B8C, symSize: 0x118 }
  - { offsetInCU: 0x4DD0, offset: 0x4D19F, size: 0x8, addend: 0x0, symName: __ZNSt3__16vectorIfNS_9allocatorIfEEE26__swap_out_circular_bufferERNS_14__split_bufferIfRS2_EE, symObjAddr: 0x43B4, symBinAddr: 0x1000194DC, symSize: 0x118 }
  - { offsetInCU: 0x6D4B, offset: 0x4F11A, size: 0x8, addend: 0x0, symName: __ZN6MatrixC2Ev, symObjAddr: 0x0, symBinAddr: 0x100016798, symSize: 0x2C }
  - { offsetInCU: 0x6D77, offset: 0x4F146, size: 0x8, addend: 0x0, symName: __ZNSt3__16vectorINS0_IfNS_9allocatorIfEEEENS1_IS3_EEEC1B7v160006Ev, symObjAddr: 0x2C, symBinAddr: 0x1000167C4, symSize: 0x2C }
  - { offsetInCU: 0x6DA1, offset: 0x4F170, size: 0x8, addend: 0x0, symName: __ZN6MatrixC1Ev, symObjAddr: 0x58, symBinAddr: 0x1000167F0, symSize: 0x2C }
  - { offsetInCU: 0x6DCD, offset: 0x4F19C, size: 0x8, addend: 0x0, symName: __ZN6MatrixC2Eii, symObjAddr: 0x84, symBinAddr: 0x10001681C, symSize: 0x6C }
  - { offsetInCU: 0x6E15, offset: 0x4F1E4, size: 0x8, addend: 0x0, symName: __ZN6Matrix6ResizeEii, symObjAddr: 0xF0, symBinAddr: 0x100016888, symSize: 0x7C }
  - { offsetInCU: 0x6E75, offset: 0x4F244, size: 0x8, addend: 0x0, symName: __ZNSt3__16vectorINS0_IfNS_9allocatorIfEEEENS1_IS3_EEED1B7v160006Ev, symObjAddr: 0x16C, symBinAddr: 0x100016904, symSize: 0x2C }
  - { offsetInCU: 0x6E9F, offset: 0x4F26E, size: 0x8, addend: 0x0, symName: __ZN6MatrixC1Eii, symObjAddr: 0x198, symBinAddr: 0x100016930, symSize: 0x3C }
  - { offsetInCU: 0x6EE7, offset: 0x4F2B6, size: 0x8, addend: 0x0, symName: __ZN6Matrix10AccumulateERKS_, symObjAddr: 0x1D4, symBinAddr: 0x10001696C, symSize: 0x174 }
  - { offsetInCU: 0x6F54, offset: 0x4F323, size: 0x8, addend: 0x0, symName: __ZNKSt3__16vectorINS0_IfNS_9allocatorIfEEEENS1_IS3_EEE4sizeB7v160006Ev, symObjAddr: 0x348, symBinAddr: 0x100016AE0, symSize: 0x28 }
  - { offsetInCU: 0x6F7A, offset: 0x4F349, size: 0x8, addend: 0x0, symName: __ZNSt3__16vectorINS0_IfNS_9allocatorIfEEEENS1_IS3_EEEixB7v160006Em, symObjAddr: 0x370, symBinAddr: 0x100016B08, symSize: 0x2C }
  - { offsetInCU: 0x6FB1, offset: 0x4F380, size: 0x8, addend: 0x0, symName: __ZNKSt3__16vectorINS0_IfNS_9allocatorIfEEEENS1_IS3_EEEixB7v160006Em, symObjAddr: 0x3C4, symBinAddr: 0x100016B34, symSize: 0x2C }
  - { offsetInCU: 0x6FE8, offset: 0x4F3B7, size: 0x8, addend: 0x0, symName: __ZNKSt3__16vectorIfNS_9allocatorIfEEEixB7v160006Em, symObjAddr: 0x438, symBinAddr: 0x100016B60, symSize: 0x24 }
  - { offsetInCU: 0x701F, offset: 0x4F3EE, size: 0x8, addend: 0x0, symName: __ZN6Matrix8MultiplyERKS_, symObjAddr: 0x480, symBinAddr: 0x100016B84, symSize: 0x248 }
  - { offsetInCU: 0x70B0, offset: 0x4F47F, size: 0x8, addend: 0x0, symName: __ZN6MatrixD1Ev, symObjAddr: 0x6C8, symBinAddr: 0x100016DCC, symSize: 0x2C }
  - { offsetInCU: 0x70DC, offset: 0x4F4AB, size: 0x8, addend: 0x0, symName: __ZN6Matrix5PrintEv, symObjAddr: 0x6F4, symBinAddr: 0x100016DF8, symSize: 0x100 }
  - { offsetInCU: 0x713C, offset: 0x4F50B, size: 0x8, addend: 0x0, symName: __ZN6Matrix9FillFloatEf, symObjAddr: 0x7F4, symBinAddr: 0x100016EF8, symSize: 0xD4 }
  - { offsetInCU: 0x71AA, offset: 0x4F579, size: 0x8, addend: 0x0, symName: __ZNSt3__16vectorINS0_IfNS_9allocatorIfEEEENS1_IS3_EEE6resizeEm, symObjAddr: 0x8C8, symBinAddr: 0x100016FCC, symSize: 0x9C }
  - { offsetInCU: 0x71F0, offset: 0x4F5BF, size: 0x8, addend: 0x0, symName: __ZNSt3__16vectorIfNS_9allocatorIfEEE6resizeEm, symObjAddr: 0x964, symBinAddr: 0x100017068, symSize: 0x94 }
  - { offsetInCU: 0x7236, offset: 0x4F605, size: 0x8, addend: 0x0, symName: __ZN6MatrixD2Ev, symObjAddr: 0x9F8, symBinAddr: 0x1000170FC, symSize: 0x2C }
  - { offsetInCU: 0x7262, offset: 0x4F631, size: 0x8, addend: 0x0, symName: __ZNSt3__16vectorINS0_IfNS_9allocatorIfEEEENS1_IS3_EEEC2B7v160006Ev, symObjAddr: 0xA24, symBinAddr: 0x100017128, symSize: 0x58 }
  - { offsetInCU: 0x7296, offset: 0x4F665, size: 0x8, addend: 0x0, symName: __ZNSt3__117__compressed_pairIPNS_6vectorIfNS_9allocatorIfEEEENS2_IS4_EEEC1B7v160006IDnNS_18__default_init_tagEEEOT_OT0_, symObjAddr: 0xA7C, symBinAddr: 0x100017180, symSize: 0x3C }
  - { offsetInCU: 0x72EE, offset: 0x4F6BD, size: 0x8, addend: 0x0, symName: __ZNSt3__117__compressed_pairIPNS_6vectorIfNS_9allocatorIfEEEENS2_IS4_EEEC2B7v160006IDnNS_18__default_init_tagEEEOT_OT0_, symObjAddr: 0xAD4, symBinAddr: 0x1000171CC, symSize: 0x40 }
  - { offsetInCU: 0x7346, offset: 0x4F715, size: 0x8, addend: 0x0, symName: __ZNSt3__122__compressed_pair_elemIPNS_6vectorIfNS_9allocatorIfEEEELi0ELb0EEC2B7v160006IDnvEEOT_, symObjAddr: 0xB14, symBinAddr: 0x10001720C, symSize: 0x1C }
  - { offsetInCU: 0x7388, offset: 0x4F757, size: 0x8, addend: 0x0, symName: __ZNSt3__122__compressed_pair_elemINS_9allocatorINS_6vectorIfNS1_IfEEEEEELi1ELb1EEC2B7v160006ENS_18__default_init_tagE, symObjAddr: 0xB30, symBinAddr: 0x100017228, symSize: 0x2C }
  - { offsetInCU: 0x73BD, offset: 0x4F78C, size: 0x8, addend: 0x0, symName: __ZNSt3__19allocatorINS_6vectorIfNS0_IfEEEEEC2B7v160006Ev, symObjAddr: 0xB5C, symBinAddr: 0x100017254, symSize: 0x2C }
  - { offsetInCU: 0x73E7, offset: 0x4F7B6, size: 0x8, addend: 0x0, symName: __ZNSt3__116__non_trivial_ifILb1ENS_9allocatorINS_6vectorIfNS1_IfEEEEEEEC2B7v160006Ev, symObjAddr: 0xB88, symBinAddr: 0x100017280, symSize: 0x14 }
  - { offsetInCU: 0x7411, offset: 0x4F7E0, size: 0x8, addend: 0x0, symName: __ZNSt3__16vectorINS0_IfNS_9allocatorIfEEEENS1_IS3_EEED2B7v160006Ev, symObjAddr: 0xB9C, symBinAddr: 0x100017294, symSize: 0x44 }
  - { offsetInCU: 0x743B, offset: 0x4F80A, size: 0x8, addend: 0x0, symName: __ZNSt3__16vectorINS0_IfNS_9allocatorIfEEEENS1_IS3_EEE16__destroy_vectorC1ERS5_, symObjAddr: 0xBE0, symBinAddr: 0x1000172D8, symSize: 0x34 }
  - { offsetInCU: 0x7474, offset: 0x4F843, size: 0x8, addend: 0x0, symName: __ZNSt3__16vectorINS0_IfNS_9allocatorIfEEEENS1_IS3_EEE16__destroy_vectorclB7v160006Ev, symObjAddr: 0xC14, symBinAddr: 0x10001730C, symSize: 0x9C }
  - { offsetInCU: 0x749A, offset: 0x4F869, size: 0x8, addend: 0x0, symName: __ZNSt3__16vectorINS0_IfNS_9allocatorIfEEEENS1_IS3_EEE16__destroy_vectorC2ERS5_, symObjAddr: 0xCB0, symBinAddr: 0x1000173A8, symSize: 0x20 }
  - { offsetInCU: 0x74D3, offset: 0x4F8A2, size: 0x8, addend: 0x0, symName: __ZNKSt3__16vectorINS0_IfNS_9allocatorIfEEEENS1_IS3_EEE17__annotate_deleteB7v160006Ev, symObjAddr: 0xCD0, symBinAddr: 0x1000173C8, symSize: 0xD4 }
  - { offsetInCU: 0x74F9, offset: 0x4F8C8, size: 0x8, addend: 0x0, symName: __ZNSt3__16vectorINS0_IfNS_9allocatorIfEEEENS1_IS3_EEE7__clearB7v160006Ev, symObjAddr: 0xDB4, symBinAddr: 0x1000174AC, symSize: 0x28 }
  - { offsetInCU: 0x751F, offset: 0x4F8EE, size: 0x8, addend: 0x0, symName: __ZNSt3__116allocator_traitsINS_9allocatorINS_6vectorIfNS1_IfEEEEEEE10deallocateB7v160006ERS5_PS4_m, symObjAddr: 0xDDC, symBinAddr: 0x1000174D4, symSize: 0x34 }
  - { offsetInCU: 0x7561, offset: 0x4F930, size: 0x8, addend: 0x0, symName: __ZNSt3__16vectorINS0_IfNS_9allocatorIfEEEENS1_IS3_EEE7__allocB7v160006Ev, symObjAddr: 0xE10, symBinAddr: 0x100017508, symSize: 0x28 }
  - { offsetInCU: 0x7587, offset: 0x4F956, size: 0x8, addend: 0x0, symName: __ZNKSt3__16vectorINS0_IfNS_9allocatorIfEEEENS1_IS3_EEE8capacityB7v160006Ev, symObjAddr: 0xE38, symBinAddr: 0x100017530, symSize: 0x40 }
  - { offsetInCU: 0x75AD, offset: 0x4F97C, size: 0x8, addend: 0x0, symName: __ZNKSt3__16vectorINS0_IfNS_9allocatorIfEEEENS1_IS3_EEE31__annotate_contiguous_containerB7v160006EPKvS7_S7_S7_, symObjAddr: 0xE78, symBinAddr: 0x100017570, symSize: 0x20 }
  - { offsetInCU: 0x75FF, offset: 0x4F9CE, size: 0x8, addend: 0x0, symName: __ZNKSt3__16vectorINS0_IfNS_9allocatorIfEEEENS1_IS3_EEE4dataB7v160006Ev, symObjAddr: 0xE98, symBinAddr: 0x100017590, symSize: 0x28 }
  - { offsetInCU: 0x7625, offset: 0x4F9F4, size: 0x8, addend: 0x0, symName: __ZNSt3__16vectorINS0_IfNS_9allocatorIfEEEENS1_IS3_EEE22__base_destruct_at_endB7v160006EPS3_, symObjAddr: 0xED4, symBinAddr: 0x1000175CC, symSize: 0x8C }
  - { offsetInCU: 0x7669, offset: 0x4FA38, size: 0x8, addend: 0x0, symName: __ZNSt3__116allocator_traitsINS_9allocatorINS_6vectorIfNS1_IfEEEEEEE7destroyB7v160006IS4_vEEvRS5_PT_, symObjAddr: 0xF60, symBinAddr: 0x100017658, symSize: 0x2C }
  - { offsetInCU: 0x76A6, offset: 0x4FA75, size: 0x8, addend: 0x0, symName: __ZNSt3__19allocatorINS_6vectorIfNS0_IfEEEEE7destroyB7v160006EPS3_, symObjAddr: 0xF8C, symBinAddr: 0x100017684, symSize: 0x28 }
  - { offsetInCU: 0x76DA, offset: 0x4FAA9, size: 0x8, addend: 0x0, symName: __ZNSt3__19allocatorINS_6vectorIfNS0_IfEEEEE10deallocateB7v160006EPS3_m, symObjAddr: 0x15C8, symBinAddr: 0x1000176AC, symSize: 0x44 }
  - { offsetInCU: 0x771C, offset: 0x4FAEB, size: 0x8, addend: 0x0, symName: __ZNSt3__117__compressed_pairIPNS_6vectorIfNS_9allocatorIfEEEENS2_IS4_EEE6secondB7v160006Ev, symObjAddr: 0x160C, symBinAddr: 0x1000176F0, symSize: 0x24 }
  - { offsetInCU: 0x7742, offset: 0x4FB11, size: 0x8, addend: 0x0, symName: __ZNSt3__122__compressed_pair_elemINS_9allocatorINS_6vectorIfNS1_IfEEEEEELi1ELb1EE5__getB7v160006Ev, symObjAddr: 0x1630, symBinAddr: 0x100017714, symSize: 0x14 }
  - { offsetInCU: 0x7768, offset: 0x4FB37, size: 0x8, addend: 0x0, symName: __ZNKSt3__16vectorINS0_IfNS_9allocatorIfEEEENS1_IS3_EEE9__end_capB7v160006Ev, symObjAddr: 0x1644, symBinAddr: 0x100017728, symSize: 0x28 }
  - { offsetInCU: 0x778E, offset: 0x4FB5D, size: 0x8, addend: 0x0, symName: __ZNKSt3__117__compressed_pairIPNS_6vectorIfNS_9allocatorIfEEEENS2_IS4_EEE5firstB7v160006Ev, symObjAddr: 0x166C, symBinAddr: 0x100017750, symSize: 0x24 }
  - { offsetInCU: 0x77B4, offset: 0x4FB83, size: 0x8, addend: 0x0, symName: __ZNKSt3__122__compressed_pair_elemIPNS_6vectorIfNS_9allocatorIfEEEELi0ELb0EE5__getB7v160006Ev, symObjAddr: 0x1690, symBinAddr: 0x100017774, symSize: 0x14 }
  - { offsetInCU: 0x77DA, offset: 0x4FBA9, size: 0x8, addend: 0x0, symName: __ZNSt3__16vectorINS0_IfNS_9allocatorIfEEEENS1_IS3_EEE8__appendEm, symObjAddr: 0x21D4, symBinAddr: 0x100017788, symSize: 0x108 }
  - { offsetInCU: 0x7835, offset: 0x4FC04, size: 0x8, addend: 0x0, symName: __ZNSt3__16vectorINS0_IfNS_9allocatorIfEEEENS1_IS3_EEE17__destruct_at_endB7v160006EPS3_, symObjAddr: 0x22DC, symBinAddr: 0x100017890, symSize: 0x60 }
  - { offsetInCU: 0x7879, offset: 0x4FC48, size: 0x8, addend: 0x0, symName: __ZNSt3__16vectorINS0_IfNS_9allocatorIfEEEENS1_IS3_EEE9__end_capB7v160006Ev, symObjAddr: 0x233C, symBinAddr: 0x1000178F0, symSize: 0x28 }
  - { offsetInCU: 0x789F, offset: 0x4FC6E, size: 0x8, addend: 0x0, symName: __ZNSt3__16vectorINS0_IfNS_9allocatorIfEEEENS1_IS3_EEE18__construct_at_endEm, symObjAddr: 0x2364, symBinAddr: 0x100017918, symSize: 0xC8 }
  - { offsetInCU: 0x7911, offset: 0x4FCE0, size: 0x8, addend: 0x0, symName: __ZNKSt3__16vectorINS0_IfNS_9allocatorIfEEEENS1_IS3_EEE11__recommendB7v160006Em, symObjAddr: 0x242C, symBinAddr: 0x1000179E0, symSize: 0xB4 }
  - { offsetInCU: 0x7966, offset: 0x4FD35, size: 0x8, addend: 0x0, symName: __ZNSt3__114__split_bufferINS_6vectorIfNS_9allocatorIfEEEERNS2_IS4_EEEC1EmmS6_, symObjAddr: 0x24E0, symBinAddr: 0x100017A94, symSize: 0x44 }
  - { offsetInCU: 0x79BC, offset: 0x4FD8B, size: 0x8, addend: 0x0, symName: __ZNSt3__114__split_bufferINS_6vectorIfNS_9allocatorIfEEEERNS2_IS4_EEE18__construct_at_endEm, symObjAddr: 0x2524, symBinAddr: 0x100017AD8, symSize: 0xB4 }
  - { offsetInCU: 0x79FF, offset: 0x4FDCE, size: 0x8, addend: 0x0, symName: __ZNSt3__114__split_bufferINS_6vectorIfNS_9allocatorIfEEEERNS2_IS4_EEED1Ev, symObjAddr: 0x26F0, symBinAddr: 0x100017CA4, symSize: 0x2C }
  - { offsetInCU: 0x7A2B, offset: 0x4FDFA, size: 0x8, addend: 0x0, symName: __ZNSt3__117__compressed_pairIPNS_6vectorIfNS_9allocatorIfEEEENS2_IS4_EEE5firstB7v160006Ev, symObjAddr: 0x271C, symBinAddr: 0x100017CD0, symSize: 0x24 }
  - { offsetInCU: 0x7A51, offset: 0x4FE20, size: 0x8, addend: 0x0, symName: __ZNSt3__122__compressed_pair_elemIPNS_6vectorIfNS_9allocatorIfEEEELi0ELb0EE5__getB7v160006Ev, symObjAddr: 0x2740, symBinAddr: 0x100017CF4, symSize: 0x14 }
  - { offsetInCU: 0x7A90, offset: 0x4FE5F, size: 0x8, addend: 0x0, symName: __ZNSt3__16vectorINS0_IfNS_9allocatorIfEEEENS1_IS3_EEE21_ConstructTransactionC1B7v160006ERS5_m, symObjAddr: 0x2754, symBinAddr: 0x100017D08, symSize: 0x3C }
  - { offsetInCU: 0x7AD8, offset: 0x4FEA7, size: 0x8, addend: 0x0, symName: __ZNSt3__116allocator_traitsINS_9allocatorINS_6vectorIfNS1_IfEEEEEEE9constructB7v160006IS4_JEvEEvRS5_PT_DpOT0_, symObjAddr: 0x2790, symBinAddr: 0x100017D44, symSize: 0x2C }
  - { offsetInCU: 0x7B1A, offset: 0x4FEE9, size: 0x8, addend: 0x0, symName: __ZNSt3__16vectorINS0_IfNS_9allocatorIfEEEENS1_IS3_EEE21_ConstructTransactionD1B7v160006Ev, symObjAddr: 0x27BC, symBinAddr: 0x100017D70, symSize: 0x2C }
  - { offsetInCU: 0x7B44, offset: 0x4FF13, size: 0x8, addend: 0x0, symName: __ZNSt3__16vectorINS0_IfNS_9allocatorIfEEEENS1_IS3_EEE21_ConstructTransactionC2B7v160006ERS5_m, symObjAddr: 0x27E8, symBinAddr: 0x100017D9C, symSize: 0x4C }
  - { offsetInCU: 0x7B8C, offset: 0x4FF5B, size: 0x8, addend: 0x0, symName: __ZNSt3__19allocatorINS_6vectorIfNS0_IfEEEEE9constructB7v160006IS3_JEEEvPT_DpOT0_, symObjAddr: 0x2834, symBinAddr: 0x100017DE8, symSize: 0x28 }
  - { offsetInCU: 0x7BCE, offset: 0x4FF9D, size: 0x8, addend: 0x0, symName: __ZNSt3__16vectorIfNS_9allocatorIfEEEC1B7v160006Ev, symObjAddr: 0x285C, symBinAddr: 0x100017E10, symSize: 0x2C }
  - { offsetInCU: 0x7BF8, offset: 0x4FFC7, size: 0x8, addend: 0x0, symName: __ZNSt3__16vectorIfNS_9allocatorIfEEEC2B7v160006Ev, symObjAddr: 0x2888, symBinAddr: 0x100017E3C, symSize: 0x58 }
  - { offsetInCU: 0x7C22, offset: 0x4FFF1, size: 0x8, addend: 0x0, symName: __ZNSt3__16vectorINS0_IfNS_9allocatorIfEEEENS1_IS3_EEE21_ConstructTransactionD2B7v160006Ev, symObjAddr: 0x29F4, symBinAddr: 0x100017E94, symSize: 0x20 }
  - { offsetInCU: 0x7C4C, offset: 0x5001B, size: 0x8, addend: 0x0, symName: __ZNKSt3__16vectorINS0_IfNS_9allocatorIfEEEENS1_IS3_EEE8max_sizeEv, symObjAddr: 0x2A14, symBinAddr: 0x100017EB4, symSize: 0x60 }
  - { offsetInCU: 0x7C74, offset: 0x50043, size: 0x8, addend: 0x0, symName: __ZNKSt3__16vectorINS0_IfNS_9allocatorIfEEEENS1_IS3_EEE20__throw_length_errorB7v160006Ev, symObjAddr: 0x2A74, symBinAddr: 0x100017F14, symSize: 0x1C }
  - { offsetInCU: 0x7CA4, offset: 0x50073, size: 0x8, addend: 0x0, symName: __ZNSt3__116allocator_traitsINS_9allocatorINS_6vectorIfNS1_IfEEEEEEE8max_sizeB7v160006IS5_vEEmRKS5_, symObjAddr: 0x2AE8, symBinAddr: 0x100017F30, symSize: 0x24 }
  - { offsetInCU: 0x7CD2, offset: 0x500A1, size: 0x8, addend: 0x0, symName: __ZNKSt3__16vectorINS0_IfNS_9allocatorIfEEEENS1_IS3_EEE7__allocB7v160006Ev, symObjAddr: 0x2B0C, symBinAddr: 0x100017F54, symSize: 0x28 }
  - { offsetInCU: 0x7CF8, offset: 0x500C7, size: 0x8, addend: 0x0, symName: __ZNKSt3__19allocatorINS_6vectorIfNS0_IfEEEEE8max_sizeB7v160006Ev, symObjAddr: 0x2BD0, symBinAddr: 0x100017F7C, symSize: 0x18 }
  - { offsetInCU: 0x7D1E, offset: 0x500ED, size: 0x8, addend: 0x0, symName: __ZNKSt3__117__compressed_pairIPNS_6vectorIfNS_9allocatorIfEEEENS2_IS4_EEE6secondB7v160006Ev, symObjAddr: 0x2BE8, symBinAddr: 0x100017F94, symSize: 0x24 }
  - { offsetInCU: 0x7D44, offset: 0x50113, size: 0x8, addend: 0x0, symName: __ZNKSt3__122__compressed_pair_elemINS_9allocatorINS_6vectorIfNS1_IfEEEEEELi1ELb1EE5__getB7v160006Ev, symObjAddr: 0x2C0C, symBinAddr: 0x100017FB8, symSize: 0x14 }
  - { offsetInCU: 0x7D6A, offset: 0x50139, size: 0x8, addend: 0x0, symName: __ZNSt3__114__split_bufferINS_6vectorIfNS_9allocatorIfEEEERNS2_IS4_EEEC2EmmS6_, symObjAddr: 0x2D60, symBinAddr: 0x100017FCC, symSize: 0xE0 }
  - { offsetInCU: 0x7DDD, offset: 0x501AC, size: 0x8, addend: 0x0, symName: __ZNSt3__117__compressed_pairIPNS_6vectorIfNS_9allocatorIfEEEERNS2_IS4_EEEC1B7v160006IDnS7_EEOT_OT0_, symObjAddr: 0x2E40, symBinAddr: 0x1000180AC, symSize: 0x3C }
  - { offsetInCU: 0x7E35, offset: 0x50204, size: 0x8, addend: 0x0, symName: __ZNSt3__114__split_bufferINS_6vectorIfNS_9allocatorIfEEEERNS2_IS4_EEE7__allocB7v160006Ev, symObjAddr: 0x2EBC, symBinAddr: 0x100018128, symSize: 0x28 }
  - { offsetInCU: 0x7E5B, offset: 0x5022A, size: 0x8, addend: 0x0, symName: __ZNSt3__114__split_bufferINS_6vectorIfNS_9allocatorIfEEEERNS2_IS4_EEE9__end_capB7v160006Ev, symObjAddr: 0x2EE4, symBinAddr: 0x100018150, symSize: 0x28 }
  - { offsetInCU: 0x7E81, offset: 0x50250, size: 0x8, addend: 0x0, symName: __ZNSt3__117__compressed_pairIPNS_6vectorIfNS_9allocatorIfEEEERNS2_IS4_EEEC2B7v160006IDnS7_EEOT_OT0_, symObjAddr: 0x2F0C, symBinAddr: 0x100018178, symSize: 0x48 }
  - { offsetInCU: 0x7ED9, offset: 0x502A8, size: 0x8, addend: 0x0, symName: __ZNSt3__122__compressed_pair_elemIRNS_9allocatorINS_6vectorIfNS1_IfEEEEEELi1ELb0EEC2B7v160006IS6_vEEOT_, symObjAddr: 0x2F54, symBinAddr: 0x1000181C0, symSize: 0x20 }
  - { offsetInCU: 0x7F1B, offset: 0x502EA, size: 0x8, addend: 0x0, symName: __ZNSt3__19allocatorINS_6vectorIfNS0_IfEEEEE8allocateB7v160006Em, symObjAddr: 0x2F74, symBinAddr: 0x1000181E0, symSize: 0x5C }
  - { offsetInCU: 0x7F4F, offset: 0x5031E, size: 0x8, addend: 0x0, symName: __ZNSt3__117__compressed_pairIPNS_6vectorIfNS_9allocatorIfEEEERNS2_IS4_EEE6secondB7v160006Ev, symObjAddr: 0x30B4, symBinAddr: 0x10001823C, symSize: 0x28 }
  - { offsetInCU: 0x7F75, offset: 0x50344, size: 0x8, addend: 0x0, symName: __ZNSt3__122__compressed_pair_elemIRNS_9allocatorINS_6vectorIfNS1_IfEEEEEELi1ELb0EE5__getB7v160006Ev, symObjAddr: 0x30DC, symBinAddr: 0x100018264, symSize: 0x18 }
  - { offsetInCU: 0x7F9B, offset: 0x5036A, size: 0x8, addend: 0x0, symName: __ZNSt3__117__compressed_pairIPNS_6vectorIfNS_9allocatorIfEEEERNS2_IS4_EEE5firstB7v160006Ev, symObjAddr: 0x30F4, symBinAddr: 0x10001827C, symSize: 0x24 }
  - { offsetInCU: 0x7FCB, offset: 0x5039A, size: 0x8, addend: 0x0, symName: __ZNSt3__114__split_bufferINS_6vectorIfNS_9allocatorIfEEEERNS2_IS4_EEE21_ConstructTransactionC1B7v160006EPPS4_m, symObjAddr: 0x3118, symBinAddr: 0x1000182A0, symSize: 0x3C }
  - { offsetInCU: 0x8011, offset: 0x503E0, size: 0x8, addend: 0x0, symName: __ZNSt3__114__split_bufferINS_6vectorIfNS_9allocatorIfEEEERNS2_IS4_EEE21_ConstructTransactionD1B7v160006Ev, symObjAddr: 0x3154, symBinAddr: 0x1000182DC, symSize: 0x2C }
  - { offsetInCU: 0x803B, offset: 0x5040A, size: 0x8, addend: 0x0, symName: __ZNSt3__114__split_bufferINS_6vectorIfNS_9allocatorIfEEEERNS2_IS4_EEE21_ConstructTransactionC2B7v160006EPPS4_m, symObjAddr: 0x3180, symBinAddr: 0x100018308, symSize: 0x4C }
  - { offsetInCU: 0x8081, offset: 0x50450, size: 0x8, addend: 0x0, symName: __ZNSt3__114__split_bufferINS_6vectorIfNS_9allocatorIfEEEERNS2_IS4_EEE21_ConstructTransactionD2B7v160006Ev, symObjAddr: 0x31CC, symBinAddr: 0x100018354, symSize: 0x20 }
  - { offsetInCU: 0x80AB, offset: 0x5047A, size: 0x8, addend: 0x0, symName: __ZNSt3__116reverse_iteratorIPNS_6vectorIfNS_9allocatorIfEEEEEC1B7v160006ES5_, symObjAddr: 0x3318, symBinAddr: 0x1000184A0, symSize: 0x34 }
  - { offsetInCU: 0x80E3, offset: 0x504B2, size: 0x8, addend: 0x0, symName: __ZNKSt3__116reverse_iteratorIPNS_6vectorIfNS_9allocatorIfEEEEE4baseB7v160006Ev, symObjAddr: 0x334C, symBinAddr: 0x1000184D4, symSize: 0x18 }
  - { offsetInCU: 0x8109, offset: 0x504D8, size: 0x8, addend: 0x0, symName: __ZNKSt3__16vectorINS0_IfNS_9allocatorIfEEEENS1_IS3_EEE14__annotate_newB7v160006Em, symObjAddr: 0x33A0, symBinAddr: 0x100018528, symSize: 0xC8 }
  - { offsetInCU: 0x813E, offset: 0x5050D, size: 0x8, addend: 0x0, symName: __ZNSt3__129_AllocatorDestroyRangeReverseINS_9allocatorINS_6vectorIfNS1_IfEEEEEENS_16reverse_iteratorIPS4_EEEC1B7v160006ERS5_RS8_SB_, symObjAddr: 0x34C4, symBinAddr: 0x10001864C, symSize: 0x44 }
  - { offsetInCU: 0x8195, offset: 0x50564, size: 0x8, addend: 0x0, symName: __ZNSt3__116allocator_traitsINS_9allocatorINS_6vectorIfNS1_IfEEEEEEE9constructB7v160006IS4_JS4_EvEEvRS5_PT_DpOT0_, symObjAddr: 0x3550, symBinAddr: 0x1000186D8, symSize: 0x34 }
  - { offsetInCU: 0x81EC, offset: 0x505BB, size: 0x8, addend: 0x0, symName: __ZNKSt3__116reverse_iteratorIPNS_6vectorIfNS_9allocatorIfEEEEEdeB7v160006Ev, symObjAddr: 0x35A8, symBinAddr: 0x100018730, symSize: 0x28 }
  - { offsetInCU: 0x8220, offset: 0x505EF, size: 0x8, addend: 0x0, symName: __ZNSt3__116reverse_iteratorIPNS_6vectorIfNS_9allocatorIfEEEEEppB7v160006Ev, symObjAddr: 0x35D0, symBinAddr: 0x100018758, symSize: 0x20 }
  - { offsetInCU: 0x8246, offset: 0x50615, size: 0x8, addend: 0x0, symName: __ZNSt3__128__exception_guard_exceptionsINS_29_AllocatorDestroyRangeReverseINS_9allocatorINS_6vectorIfNS2_IfEEEEEENS_16reverse_iteratorIPS5_EEEEE10__completeB7v160006Ev, symObjAddr: 0x35F0, symBinAddr: 0x100018778, symSize: 0x1C }
  - { offsetInCU: 0x826C, offset: 0x5063B, size: 0x8, addend: 0x0, symName: __ZNSt3__128__exception_guard_exceptionsINS_29_AllocatorDestroyRangeReverseINS_9allocatorINS_6vectorIfNS2_IfEEEEEENS_16reverse_iteratorIPS5_EEEEED1B7v160006Ev, symObjAddr: 0x360C, symBinAddr: 0x100018794, symSize: 0x2C }
  - { offsetInCU: 0x8296, offset: 0x50665, size: 0x8, addend: 0x0, symName: __ZNSt3__128__exception_guard_exceptionsINS_29_AllocatorDestroyRangeReverseINS_9allocatorINS_6vectorIfNS2_IfEEEEEENS_16reverse_iteratorIPS5_EEEEEC1B7v160006ESA_, symObjAddr: 0x3638, symBinAddr: 0x1000187C0, symSize: 0x34 }
  - { offsetInCU: 0x82CF, offset: 0x5069E, size: 0x8, addend: 0x0, symName: __ZNSt3__128__exception_guard_exceptionsINS_29_AllocatorDestroyRangeReverseINS_9allocatorINS_6vectorIfNS2_IfEEEEEENS_16reverse_iteratorIPS5_EEEEEC2B7v160006ESA_, symObjAddr: 0x366C, symBinAddr: 0x1000187F4, symSize: 0x30 }
  - { offsetInCU: 0x8308, offset: 0x506D7, size: 0x8, addend: 0x0, symName: __ZNSt3__129_AllocatorDestroyRangeReverseINS_9allocatorINS_6vectorIfNS1_IfEEEEEENS_16reverse_iteratorIPS4_EEEC2B7v160006ERS5_RS8_SB_, symObjAddr: 0x369C, symBinAddr: 0x100018824, symSize: 0x38 }
  - { offsetInCU: 0x835F, offset: 0x5072E, size: 0x8, addend: 0x0, symName: __ZNSt3__19allocatorINS_6vectorIfNS0_IfEEEEE9constructB7v160006IS3_JS3_EEEvPT_DpOT0_, symObjAddr: 0x36D4, symBinAddr: 0x10001885C, symSize: 0x30 }
  - { offsetInCU: 0x83B5, offset: 0x50784, size: 0x8, addend: 0x0, symName: __ZNSt3__16vectorIfNS_9allocatorIfEEEC1B7v160006EOS3_, symObjAddr: 0x3704, symBinAddr: 0x10001888C, symSize: 0x34 }
  - { offsetInCU: 0x83F0, offset: 0x507BF, size: 0x8, addend: 0x0, symName: __ZNSt3__16vectorIfNS_9allocatorIfEEEC2B7v160006EOS3_, symObjAddr: 0x3738, symBinAddr: 0x1000188C0, symSize: 0xDC }
  - { offsetInCU: 0x8430, offset: 0x507FF, size: 0x8, addend: 0x0, symName: __ZNSt3__117__compressed_pairIPfNS_9allocatorIfEEEC1B7v160006IDnS3_EEOT_OT0_, symObjAddr: 0x3814, symBinAddr: 0x10001899C, symSize: 0x3C }
  - { offsetInCU: 0x8488, offset: 0x50857, size: 0x8, addend: 0x0, symName: __ZNSt3__117__compressed_pairIPfNS_9allocatorIfEEEC2B7v160006IDnS3_EEOT_OT0_, symObjAddr: 0x388C, symBinAddr: 0x1000189EC, symSize: 0x44 }
  - { offsetInCU: 0x84E0, offset: 0x508AF, size: 0x8, addend: 0x0, symName: __ZNSt3__122__compressed_pair_elemINS_9allocatorIfEELi1ELb1EEC2B7v160006IS2_vEEOT_, symObjAddr: 0x38D0, symBinAddr: 0x100018A30, symSize: 0x18 }
  - { offsetInCU: 0x8527, offset: 0x508F6, size: 0x8, addend: 0x0, symName: __ZNSt3__119__to_address_helperINS_16reverse_iteratorIPNS_6vectorIfNS_9allocatorIfEEEEEEvE6__callB7v160006ERKS7_, symObjAddr: 0x3920, symBinAddr: 0x100018A48, symSize: 0x38 }
  - { offsetInCU: 0x854A, offset: 0x50919, size: 0x8, addend: 0x0, symName: __ZNKSt3__116reverse_iteratorIPNS_6vectorIfNS_9allocatorIfEEEEEptB7v160006Ev, symObjAddr: 0x3958, symBinAddr: 0x100018A80, symSize: 0x24 }
  - { offsetInCU: 0x8570, offset: 0x5093F, size: 0x8, addend: 0x0, symName: __ZNSt3__128__exception_guard_exceptionsINS_29_AllocatorDestroyRangeReverseINS_9allocatorINS_6vectorIfNS2_IfEEEEEENS_16reverse_iteratorIPS5_EEEEED2B7v160006Ev, symObjAddr: 0x397C, symBinAddr: 0x100018AA4, symSize: 0x50 }
  - { offsetInCU: 0x859A, offset: 0x50969, size: 0x8, addend: 0x0, symName: __ZNKSt3__129_AllocatorDestroyRangeReverseINS_9allocatorINS_6vectorIfNS1_IfEEEEEENS_16reverse_iteratorIPS4_EEEclB7v160006Ev, symObjAddr: 0x39CC, symBinAddr: 0x100018AF4, symSize: 0xB4 }
  - { offsetInCU: 0x85C1, offset: 0x50990, size: 0x8, addend: 0x0, symName: __ZNSt3__116reverse_iteratorINS0_IPNS_6vectorIfNS_9allocatorIfEEEEEEEC1B7v160006ES6_, symObjAddr: 0x3AF0, symBinAddr: 0x100018C18, symSize: 0x3C }
  - { offsetInCU: 0x85F9, offset: 0x509C8, size: 0x8, addend: 0x0, symName: __ZNSt3__116reverse_iteratorINS0_IPNS_6vectorIfNS_9allocatorIfEEEEEEEppB7v160006Ev, symObjAddr: 0x3BB0, symBinAddr: 0x100018CD8, symSize: 0x30 }
  - { offsetInCU: 0x861F, offset: 0x509EE, size: 0x8, addend: 0x0, symName: __ZNKSt3__116reverse_iteratorINS0_IPNS_6vectorIfNS_9allocatorIfEEEEEEE4baseB7v160006Ev, symObjAddr: 0x3BE0, symBinAddr: 0x100018D08, symSize: 0x24 }
  - { offsetInCU: 0x864A, offset: 0x50A19, size: 0x8, addend: 0x0, symName: __ZNSt3__119__to_address_helperINS_16reverse_iteratorINS1_IPNS_6vectorIfNS_9allocatorIfEEEEEEEEvE6__callB7v160006ERKS8_, symObjAddr: 0x3C04, symBinAddr: 0x100018D2C, symSize: 0x38 }
  - { offsetInCU: 0x866D, offset: 0x50A3C, size: 0x8, addend: 0x0, symName: __ZNKSt3__116reverse_iteratorINS0_IPNS_6vectorIfNS_9allocatorIfEEEEEEEptB7v160006Ev, symObjAddr: 0x3C3C, symBinAddr: 0x100018D64, symSize: 0x24 }
  - { offsetInCU: 0x8693, offset: 0x50A62, size: 0x8, addend: 0x0, symName: __ZNKSt3__116reverse_iteratorINS0_IPNS_6vectorIfNS_9allocatorIfEEEEEEEdeB7v160006Ev, symObjAddr: 0x3C60, symBinAddr: 0x100018D88, symSize: 0x34 }
  - { offsetInCU: 0x86C7, offset: 0x50A96, size: 0x8, addend: 0x0, symName: __ZNSt3__116reverse_iteratorIPNS_6vectorIfNS_9allocatorIfEEEEEmmB7v160006Ev, symObjAddr: 0x3C94, symBinAddr: 0x100018DBC, symSize: 0x20 }
  - { offsetInCU: 0x86ED, offset: 0x50ABC, size: 0x8, addend: 0x0, symName: __ZNSt3__116reverse_iteratorINS0_IPNS_6vectorIfNS_9allocatorIfEEEEEEEC2B7v160006ES6_, symObjAddr: 0x3CB4, symBinAddr: 0x100018DDC, symSize: 0x2C }
  - { offsetInCU: 0x8725, offset: 0x50AF4, size: 0x8, addend: 0x0, symName: __ZNSt3__116reverse_iteratorIPNS_6vectorIfNS_9allocatorIfEEEEEC2B7v160006ES5_, symObjAddr: 0x3CE0, symBinAddr: 0x100018E08, symSize: 0x28 }
  - { offsetInCU: 0x875D, offset: 0x50B2C, size: 0x8, addend: 0x0, symName: __ZNSt3__114__split_bufferINS_6vectorIfNS_9allocatorIfEEEERNS2_IS4_EEED2Ev, symObjAddr: 0x3D08, symBinAddr: 0x100018E30, symSize: 0x8C }
  - { offsetInCU: 0x8789, offset: 0x50B58, size: 0x8, addend: 0x0, symName: __ZNSt3__114__split_bufferINS_6vectorIfNS_9allocatorIfEEEERNS2_IS4_EEE5clearB7v160006Ev, symObjAddr: 0x3D94, symBinAddr: 0x100018EBC, symSize: 0x28 }
  - { offsetInCU: 0x87AF, offset: 0x50B7E, size: 0x8, addend: 0x0, symName: __ZNKSt3__114__split_bufferINS_6vectorIfNS_9allocatorIfEEEERNS2_IS4_EEE8capacityB7v160006Ev, symObjAddr: 0x3DBC, symBinAddr: 0x100018EE4, symSize: 0x40 }
  - { offsetInCU: 0x87D5, offset: 0x50BA4, size: 0x8, addend: 0x0, symName: __ZNSt3__114__split_bufferINS_6vectorIfNS_9allocatorIfEEEERNS2_IS4_EEE17__destruct_at_endB7v160006EPS4_, symObjAddr: 0x3DFC, symBinAddr: 0x100018F24, symSize: 0x2C }
  - { offsetInCU: 0x8809, offset: 0x50BD8, size: 0x8, addend: 0x0, symName: __ZNSt3__114__split_bufferINS_6vectorIfNS_9allocatorIfEEEERNS2_IS4_EEE17__destruct_at_endB7v160006EPS4_NS_17integral_constantIbLb0EEE, symObjAddr: 0x3E28, symBinAddr: 0x100018F50, symSize: 0x80 }
  - { offsetInCU: 0x884A, offset: 0x50C19, size: 0x8, addend: 0x0, symName: __ZNKSt3__114__split_bufferINS_6vectorIfNS_9allocatorIfEEEERNS2_IS4_EEE9__end_capB7v160006Ev, symObjAddr: 0x3EA8, symBinAddr: 0x100018FD0, symSize: 0x28 }
  - { offsetInCU: 0x8870, offset: 0x50C3F, size: 0x8, addend: 0x0, symName: __ZNKSt3__117__compressed_pairIPNS_6vectorIfNS_9allocatorIfEEEERNS2_IS4_EEE5firstB7v160006Ev, symObjAddr: 0x3ED0, symBinAddr: 0x100018FF8, symSize: 0x24 }
  - { offsetInCU: 0x8896, offset: 0x50C65, size: 0x8, addend: 0x0, symName: __ZNSt3__16vectorINS0_IfNS_9allocatorIfEEEENS1_IS3_EEE27__invalidate_iterators_pastB7v160006EPS3_, symObjAddr: 0x3EF4, symBinAddr: 0x10001901C, symSize: 0x14 }
  - { offsetInCU: 0x88CD, offset: 0x50C9C, size: 0x8, addend: 0x0, symName: __ZNKSt3__16vectorINS0_IfNS_9allocatorIfEEEENS1_IS3_EEE17__annotate_shrinkB7v160006Em, symObjAddr: 0x3F08, symBinAddr: 0x100019030, symSize: 0xD0 }
  - { offsetInCU: 0x8902, offset: 0x50CD1, size: 0x8, addend: 0x0, symName: __ZNSt3__16vectorIfNS_9allocatorIfEEE8__appendEm, symObjAddr: 0x3FD8, symBinAddr: 0x100019100, symSize: 0x108 }
  - { offsetInCU: 0x895D, offset: 0x50D2C, size: 0x8, addend: 0x0, symName: __ZNSt3__16vectorIfNS_9allocatorIfEEE17__destruct_at_endB7v160006EPf, symObjAddr: 0x40E0, symBinAddr: 0x100019208, symSize: 0x60 }
  - { offsetInCU: 0x89A1, offset: 0x50D70, size: 0x8, addend: 0x0, symName: __ZNSt3__16vectorIfNS_9allocatorIfEEE18__construct_at_endEm, symObjAddr: 0x4140, symBinAddr: 0x100019268, symSize: 0xC8 }
  - { offsetInCU: 0x8A13, offset: 0x50DE2, size: 0x8, addend: 0x0, symName: __ZNKSt3__16vectorIfNS_9allocatorIfEEE11__recommendB7v160006Em, symObjAddr: 0x4208, symBinAddr: 0x100019330, symSize: 0xB4 }
  - { offsetInCU: 0x8A68, offset: 0x50E37, size: 0x8, addend: 0x0, symName: __ZNSt3__114__split_bufferIfRNS_9allocatorIfEEEC1EmmS3_, symObjAddr: 0x42BC, symBinAddr: 0x1000193E4, symSize: 0x44 }
  - { offsetInCU: 0x8ABE, offset: 0x50E8D, size: 0x8, addend: 0x0, symName: __ZNSt3__114__split_bufferIfRNS_9allocatorIfEEE18__construct_at_endEm, symObjAddr: 0x4300, symBinAddr: 0x100019428, symSize: 0xB4 }
  - { offsetInCU: 0x8B01, offset: 0x50ED0, size: 0x8, addend: 0x0, symName: __ZNSt3__114__split_bufferIfRNS_9allocatorIfEEED1Ev, symObjAddr: 0x44CC, symBinAddr: 0x1000195F4, symSize: 0x2C }
  - { offsetInCU: 0x8B46, offset: 0x50F15, size: 0x8, addend: 0x0, symName: __ZNSt3__116allocator_traitsINS_9allocatorIfEEE9constructB7v160006IfJEvEEvRS2_PT_DpOT0_, symObjAddr: 0x4534, symBinAddr: 0x100019620, symSize: 0x2C }
  - { offsetInCU: 0x8B88, offset: 0x50F57, size: 0x8, addend: 0x0, symName: __ZNSt3__19allocatorIfE9constructB7v160006IfJEEEvPT_DpOT0_, symObjAddr: 0x45D0, symBinAddr: 0x10001964C, symSize: 0x20 }
  - { offsetInCU: 0x8BD4, offset: 0x50FA3, size: 0x8, addend: 0x0, symName: __ZNSt3__114__split_bufferIfRNS_9allocatorIfEEEC2EmmS3_, symObjAddr: 0x4724, symBinAddr: 0x10001966C, symSize: 0xD4 }
  - { offsetInCU: 0x8C47, offset: 0x51016, size: 0x8, addend: 0x0, symName: __ZNSt3__117__compressed_pairIPfRNS_9allocatorIfEEEC1B7v160006IDnS4_EEOT_OT0_, symObjAddr: 0x47F8, symBinAddr: 0x100019740, symSize: 0x3C }
  - { offsetInCU: 0x8C9F, offset: 0x5106E, size: 0x8, addend: 0x0, symName: __ZNSt3__114__split_bufferIfRNS_9allocatorIfEEE7__allocB7v160006Ev, symObjAddr: 0x4874, symBinAddr: 0x10001977C, symSize: 0x28 }
  - { offsetInCU: 0x8CC5, offset: 0x51094, size: 0x8, addend: 0x0, symName: __ZNSt3__114__split_bufferIfRNS_9allocatorIfEEE9__end_capB7v160006Ev, symObjAddr: 0x489C, symBinAddr: 0x1000197A4, symSize: 0x28 }
  - { offsetInCU: 0x8CEB, offset: 0x510BA, size: 0x8, addend: 0x0, symName: __ZNSt3__117__compressed_pairIPfRNS_9allocatorIfEEEC2B7v160006IDnS4_EEOT_OT0_, symObjAddr: 0x48C4, symBinAddr: 0x1000197CC, symSize: 0x48 }
  - { offsetInCU: 0x8D43, offset: 0x51112, size: 0x8, addend: 0x0, symName: __ZNSt3__122__compressed_pair_elemIRNS_9allocatorIfEELi1ELb0EEC2B7v160006IS3_vEEOT_, symObjAddr: 0x490C, symBinAddr: 0x100019814, symSize: 0x20 }
  - { offsetInCU: 0x8D85, offset: 0x51154, size: 0x8, addend: 0x0, symName: __ZNSt3__117__compressed_pairIPfRNS_9allocatorIfEEE6secondB7v160006Ev, symObjAddr: 0x4984, symBinAddr: 0x100019834, symSize: 0x28 }
  - { offsetInCU: 0x8DAB, offset: 0x5117A, size: 0x8, addend: 0x0, symName: __ZNSt3__122__compressed_pair_elemIRNS_9allocatorIfEELi1ELb0EE5__getB7v160006Ev, symObjAddr: 0x49AC, symBinAddr: 0x10001985C, symSize: 0x18 }
  - { offsetInCU: 0x8DD1, offset: 0x511A0, size: 0x8, addend: 0x0, symName: __ZNSt3__117__compressed_pairIPfRNS_9allocatorIfEEE5firstB7v160006Ev, symObjAddr: 0x49C4, symBinAddr: 0x100019874, symSize: 0x24 }
  - { offsetInCU: 0x8E01, offset: 0x511D0, size: 0x8, addend: 0x0, symName: __ZNSt3__114__split_bufferIfRNS_9allocatorIfEEE21_ConstructTransactionC1B7v160006EPPfm, symObjAddr: 0x49E8, symBinAddr: 0x100019898, symSize: 0x3C }
  - { offsetInCU: 0x8E47, offset: 0x51216, size: 0x8, addend: 0x0, symName: __ZNSt3__114__split_bufferIfRNS_9allocatorIfEEE21_ConstructTransactionD1B7v160006Ev, symObjAddr: 0x4A24, symBinAddr: 0x1000198D4, symSize: 0x2C }
  - { offsetInCU: 0x8E71, offset: 0x51240, size: 0x8, addend: 0x0, symName: __ZNSt3__114__split_bufferIfRNS_9allocatorIfEEE21_ConstructTransactionC2B7v160006EPPfm, symObjAddr: 0x4A50, symBinAddr: 0x100019900, symSize: 0x44 }
  - { offsetInCU: 0x8EB7, offset: 0x51286, size: 0x8, addend: 0x0, symName: __ZNSt3__114__split_bufferIfRNS_9allocatorIfEEE21_ConstructTransactionD2B7v160006Ev, symObjAddr: 0x4A94, symBinAddr: 0x100019944, symSize: 0x20 }
  - { offsetInCU: 0x8EE1, offset: 0x512B0, size: 0x8, addend: 0x0, symName: __ZNSt3__116reverse_iteratorIPfEC1B7v160006ES1_, symObjAddr: 0x4B2C, symBinAddr: 0x1000199DC, symSize: 0x34 }
  - { offsetInCU: 0x8F19, offset: 0x512E8, size: 0x8, addend: 0x0, symName: __ZNKSt3__116reverse_iteratorIPfE4baseB7v160006Ev, symObjAddr: 0x4B60, symBinAddr: 0x100019A10, symSize: 0x18 }
  - { offsetInCU: 0x8F62, offset: 0x51331, size: 0x8, addend: 0x0, symName: __ZNKSt3__111__move_loopINS_17_ClassicAlgPolicyEEclB7v160006INS_16reverse_iteratorIPfEES6_S6_EENS_4pairIT_T1_EES8_T0_S9_, symObjAddr: 0x4F60, symBinAddr: 0x100019D64, symSize: 0xA0 }
  - { offsetInCU: 0x8FD2, offset: 0x513A1, size: 0x8, addend: 0x0, symName: __ZNSt3__18_IterOpsINS_17_ClassicAlgPolicyEE11__iter_moveB7v160006IRNS_16reverse_iteratorIPfEEEENS_9enable_ifIXsr12is_referenceIDTdeclsr3stdE7declvalIRT_EEEEE5valueEDTclsr3stdE4movedeclsr3stdE7declvalISA_EEEEE4typeEOS9_, symObjAddr: 0x5194, symBinAddr: 0x100019F98, symSize: 0x28 }
  - { offsetInCU: 0x8FFE, offset: 0x513CD, size: 0x8, addend: 0x0, symName: __ZNKSt3__116reverse_iteratorIPfEdeB7v160006Ev, symObjAddr: 0x51BC, symBinAddr: 0x100019FC0, symSize: 0x28 }
  - { offsetInCU: 0x9032, offset: 0x51401, size: 0x8, addend: 0x0, symName: __ZNSt3__116reverse_iteratorIPfEppB7v160006Ev, symObjAddr: 0x51E4, symBinAddr: 0x100019FE8, symSize: 0x20 }
  - { offsetInCU: 0x9058, offset: 0x51427, size: 0x8, addend: 0x0, symName: __ZNSt3__18_IterOpsINS_17_ClassicAlgPolicyEE25__validate_iter_referenceB7v160006IRNS_16reverse_iteratorIPfEEEEvv, symObjAddr: 0x5204, symBinAddr: 0x10001A008, symSize: 0x4 }
  - { offsetInCU: 0x9076, offset: 0x51445, size: 0x8, addend: 0x0, symName: __ZNSt3__118__unwrap_iter_implINS_16reverse_iteratorIPfEELb0EE8__unwrapB7v160006ES3_, symObjAddr: 0x5208, symBinAddr: 0x10001A00C, symSize: 0x24 }
  - { offsetInCU: 0x909E, offset: 0x5146D, size: 0x8, addend: 0x0, symName: __ZNSt3__14pairINS_16reverse_iteratorIPfEES3_EC1B7v160006IS3_S3_LPv0EEEOT_OT0_, symObjAddr: 0x522C, symBinAddr: 0x10001A030, symSize: 0x3C }
  - { offsetInCU: 0x90FC, offset: 0x514CB, size: 0x8, addend: 0x0, symName: __ZNSt3__14pairINS_16reverse_iteratorIPfEES3_EC2B7v160006IS3_S3_LPv0EEEOT_OT0_, symObjAddr: 0x5268, symBinAddr: 0x10001A06C, symSize: 0x34 }
  - { offsetInCU: 0x915A, offset: 0x51529, size: 0x8, addend: 0x0, symName: __ZNSt3__118__unwrap_iter_implINS_16reverse_iteratorIPfEELb0EE8__rewrapB7v160006ES3_S3_, symObjAddr: 0x529C, symBinAddr: 0x10001A0A0, symSize: 0x2C }
  - { offsetInCU: 0x9188, offset: 0x51557, size: 0x8, addend: 0x0, symName: __ZNSt3__116reverse_iteratorIPfEC2B7v160006ES1_, symObjAddr: 0x52C8, symBinAddr: 0x10001A0CC, symSize: 0x28 }
  - { offsetInCU: 0x91C0, offset: 0x5158F, size: 0x8, addend: 0x0, symName: __ZNSt3__114__split_bufferIfRNS_9allocatorIfEEED2Ev, symObjAddr: 0x52F0, symBinAddr: 0x10001A0F4, symSize: 0x8C }
  - { offsetInCU: 0x91EC, offset: 0x515BB, size: 0x8, addend: 0x0, symName: __ZNSt3__114__split_bufferIfRNS_9allocatorIfEEE5clearB7v160006Ev, symObjAddr: 0x537C, symBinAddr: 0x10001A180, symSize: 0x28 }
  - { offsetInCU: 0x9212, offset: 0x515E1, size: 0x8, addend: 0x0, symName: __ZNKSt3__114__split_bufferIfRNS_9allocatorIfEEE8capacityB7v160006Ev, symObjAddr: 0x53A4, symBinAddr: 0x10001A1A8, symSize: 0x40 }
  - { offsetInCU: 0x9238, offset: 0x51607, size: 0x8, addend: 0x0, symName: __ZNSt3__114__split_bufferIfRNS_9allocatorIfEEE17__destruct_at_endB7v160006EPf, symObjAddr: 0x53E4, symBinAddr: 0x10001A1E8, symSize: 0x2C }
  - { offsetInCU: 0x926C, offset: 0x5163B, size: 0x8, addend: 0x0, symName: __ZNSt3__114__split_bufferIfRNS_9allocatorIfEEE17__destruct_at_endB7v160006EPfNS_17integral_constantIbLb0EEE, symObjAddr: 0x5410, symBinAddr: 0x10001A214, symSize: 0x80 }
  - { offsetInCU: 0x92AD, offset: 0x5167C, size: 0x8, addend: 0x0, symName: __ZNKSt3__114__split_bufferIfRNS_9allocatorIfEEE9__end_capB7v160006Ev, symObjAddr: 0x5490, symBinAddr: 0x10001A294, symSize: 0x28 }
  - { offsetInCU: 0x92D3, offset: 0x516A2, size: 0x8, addend: 0x0, symName: __ZNKSt3__117__compressed_pairIPfRNS_9allocatorIfEEE5firstB7v160006Ev, symObjAddr: 0x54B8, symBinAddr: 0x10001A2BC, symSize: 0x24 }
  - { offsetInCU: 0x92F9, offset: 0x516C8, size: 0x8, addend: 0x0, symName: __ZNSt3__16vectorIfNS_9allocatorIfEEE27__invalidate_iterators_pastB7v160006EPf, symObjAddr: 0x54DC, symBinAddr: 0x10001A2E0, symSize: 0x14 }
  - { offsetInCU: 0x9330, offset: 0x516FF, size: 0x8, addend: 0x0, symName: __ZNKSt3__16vectorIfNS_9allocatorIfEEE17__annotate_shrinkB7v160006Em, symObjAddr: 0x54F0, symBinAddr: 0x10001A2F4, symSize: 0xB4 }
  - { offsetInCU: 0x6C2, offset: 0x51E9F, size: 0x8, addend: 0x0, symName: __ZN3glm9translateIfLNS_9qualifierE0EEENS_3matILi4ELi4ET_XT0_EEERKS4_RKNS_3vecILi3ES3_XT0_EEE, symObjAddr: 0xF4C, symBinAddr: 0x10001B168, symSize: 0x17C }
  - { offsetInCU: 0x71F, offset: 0x51EFC, size: 0x8, addend: 0x0, symName: __ZN3glm9mat4_castIfLNS_9qualifierE0EEENS_3matILi4ELi4ET_XT0_EEERKNS_3quaIS3_XT0_EEE, symObjAddr: 0x10C8, symBinAddr: 0x10001B2E4, symSize: 0x3C }
  - { offsetInCU: 0x75E, offset: 0x51F3B, size: 0x8, addend: 0x0, symName: __ZN3glm5scaleIfLNS_9qualifierE0EEENS_3matILi4ELi4ET_XT0_EEERKS4_RKNS_3vecILi3ES3_XT0_EEE, symObjAddr: 0x1104, symBinAddr: 0x10001B320, symSize: 0x144 }
  - { offsetInCU: 0x7BB, offset: 0x51F98, size: 0x8, addend: 0x0, symName: __ZN3glmmlIfLNS_9qualifierE0EEENS_3matILi4ELi4ET_XT0_EE8col_typeERKS4_RKNS4_8row_typeE, symObjAddr: 0x1834, symBinAddr: 0x10001B934, symSize: 0x1B4 }
  - { offsetInCU: 0x8B9, offset: 0x52096, size: 0x8, addend: 0x0, symName: __ZN3glm9mat3_castIfLNS_9qualifierE0EEENS_3matILi3ELi3ET_XT0_EEERKNS_3quaIS3_XT0_EEE, symObjAddr: 0xA194, symBinAddr: 0x100021528, symSize: 0x330 }
  - { offsetInCU: 0x986, offset: 0x52163, size: 0x8, addend: 0x0, symName: __ZN3glmmlIfLNS_9qualifierE0EEENS_3vecILi4ET_XT0_EEERKS4_S6_, symObjAddr: 0xBEBC, symBinAddr: 0x1000225B4, symSize: 0x50 }
  - { offsetInCU: 0x5711, offset: 0x56EEE, size: 0x8, addend: 0x0, symName: __ZNSt3__17advanceB7v160006IP6VertexmmvEEvRT_T0_, symObjAddr: 0x44AC, symBinAddr: 0x10001D0A8, symSize: 0x50 }
  - { offsetInCU: 0x58BF, offset: 0x5709C, size: 0x8, addend: 0x0, symName: __ZNSt3__17advanceB7v160006IPjmmvEEvRT_T0_, symObjAddr: 0x5CCC, symBinAddr: 0x10001DEEC, symSize: 0x50 }
  - { offsetInCU: 0x5C7F, offset: 0x5745C, size: 0x8, addend: 0x0, symName: __ZNSt3__17advanceB7v160006IP7TexturemmvEEvRT_T0_, symObjAddr: 0x7144, symBinAddr: 0x10001F364, symSize: 0x50 }
  - { offsetInCU: 0x604F, offset: 0x5782C, size: 0x8, addend: 0x0, symName: __ZNSt3__16copy_nB7v160006IPKcmPcEENS_9enable_ifIXsr33__is_cpp17_random_access_iteratorIT_EE5valueET1_E4typeES5_T0_S6_, symObjAddr: 0x94DC, symBinAddr: 0x100020DE0, symSize: 0x44 }
  - { offsetInCU: 0x7C99, offset: 0x59476, size: 0x8, addend: 0x0, symName: __ZNSt3__1eqB7v160006IcNS_11char_traitsIcEENS_9allocatorIcEEEEbRKNS_12basic_stringIT_T0_T1_EEPKS6_, symObjAddr: 0xCCC, symBinAddr: 0x10001AF30, symSize: 0xAC }
  - { offsetInCU: 0x7D00, offset: 0x594DD, size: 0x8, addend: 0x0, symName: __ZNSt3__1plB7v160006IcNS_11char_traitsIcEENS_9allocatorIcEEEENS_12basic_stringIT_T0_T1_EERKS9_SB_, symObjAddr: 0xDF4, symBinAddr: 0x10001B010, symSize: 0x134 }
  - { offsetInCU: 0x7DA1, offset: 0x5957E, size: 0x8, addend: 0x0, symName: __ZNSt3__112__to_addressB7v160006IKcEEPT_S3_, symObjAddr: 0x2F0C, symBinAddr: 0x10001C190, symSize: 0x14 }
  - { offsetInCU: 0x7E09, offset: 0x595E6, size: 0x8, addend: 0x0, symName: __ZNSt3__119__debug_db_insert_cB7v160006INS_6vectorIjNS_9allocatorIjEEEEEEvPT_, symObjAddr: 0x31D8, symBinAddr: 0x10001C2F0, symSize: 0x10 }
  - { offsetInCU: 0x7E3A, offset: 0x59617, size: 0x8, addend: 0x0, symName: __ZNSt3__119__debug_db_insert_cB7v160006INS_6vectorI7TextureNS_9allocatorIS2_EEEEEEvPT_, symObjAddr: 0x3344, symBinAddr: 0x10001C45C, symSize: 0x10 }
  - { offsetInCU: 0x7E6B, offset: 0x59648, size: 0x8, addend: 0x0, symName: __ZNSt3__118__debug_db_erase_cB7v160006INS_6vectorIjNS_9allocatorIjEEEEEEvPT_, symObjAddr: 0x3B10, symBinAddr: 0x10001C720, symSize: 0x10 }
  - { offsetInCU: 0x7E9C, offset: 0x59679, size: 0x8, addend: 0x0, symName: __ZNSt3__118__debug_db_erase_cB7v160006INS_6vectorI7TextureNS_9allocatorIS2_EEEEEEvPT_, symObjAddr: 0x3FEC, symBinAddr: 0x10001CBE8, symSize: 0x10 }
  - { offsetInCU: 0x7ECD, offset: 0x596AA, size: 0x8, addend: 0x0, symName: __ZNSt3__112__to_addressB7v160006I7TextureEEPT_S3_, symObjAddr: 0x4108, symBinAddr: 0x10001CD04, symSize: 0x14 }
  - { offsetInCU: 0x7F02, offset: 0x596DF, size: 0x8, addend: 0x0, symName: __ZNSt3__18distanceB7v160006IP6VertexEENS_15iterator_traitsIT_E15difference_typeES4_S4_, symObjAddr: 0x4480, symBinAddr: 0x10001D07C, symSize: 0x2C }
  - { offsetInCU: 0x7F45, offset: 0x59722, size: 0x8, addend: 0x0, symName: __ZNSt3__14copyB7v160006IP6VertexS2_EET0_T_S4_S3_, symObjAddr: 0x44FC, symBinAddr: 0x10001D0F8, symSize: 0x40 }
  - { offsetInCU: 0x7F9F, offset: 0x5977C, size: 0x8, addend: 0x0, symName: __ZNSt3__110__distanceB7v160006IP6VertexEENS_15iterator_traitsIT_E15difference_typeES4_S4_NS_26random_access_iterator_tagE, symObjAddr: 0x482C, symBinAddr: 0x10001D304, symSize: 0x28 }
  - { offsetInCU: 0x7FED, offset: 0x597CA, size: 0x8, addend: 0x0, symName: __ZNSt3__121__convert_to_integralB7v160006Em, symObjAddr: 0x4854, symBinAddr: 0x10001D32C, symSize: 0x14 }
  - { offsetInCU: 0x8019, offset: 0x597F6, size: 0x8, addend: 0x0, symName: __ZNSt3__19__advanceB7v160006IP6VertexEEvRT_NS_15iterator_traitsIS3_E15difference_typeENS_26random_access_iterator_tagE, symObjAddr: 0x4868, symBinAddr: 0x10001D340, symSize: 0x30 }
  - { offsetInCU: 0x8063, offset: 0x59840, size: 0x8, addend: 0x0, symName: __ZNSt3__16__copyB7v160006INS_17_ClassicAlgPolicyEP6VertexS3_S3_EENS_4pairIT0_T2_EES5_T1_S6_, symObjAddr: 0x4898, symBinAddr: 0x10001D370, symSize: 0x44 }
  - { offsetInCU: 0x80CF, offset: 0x598AC, size: 0x8, addend: 0x0, symName: __ZNSt3__123__dispatch_copy_or_moveB7v160006INS_17_ClassicAlgPolicyENS_11__copy_loopIS1_EENS_14__copy_trivialEP6VertexS6_S6_EENS_4pairIT2_T4_EES8_T3_S9_, symObjAddr: 0x48DC, symBinAddr: 0x10001D3B4, symSize: 0x44 }
  - { offsetInCU: 0x814D, offset: 0x5992A, size: 0x8, addend: 0x0, symName: __ZNSt3__121__unwrap_and_dispatchB7v160006INS_10__overloadINS_11__copy_loopINS_17_ClassicAlgPolicyEEENS_14__copy_trivialEEEP6VertexS8_S8_Li0EEENS_4pairIT0_T2_EESA_T1_SB_, symObjAddr: 0x4920, symBinAddr: 0x10001D3F8, symSize: 0xB4 }
  - { offsetInCU: 0x81DB, offset: 0x599B8, size: 0x8, addend: 0x0, symName: __ZNSt3__114__unwrap_rangeB7v160006IP6VertexS2_EENS_4pairIT0_S4_EET_S6_, symObjAddr: 0x49D4, symBinAddr: 0x10001D4AC, symSize: 0x60 }
  - { offsetInCU: 0x8460, offset: 0x59C3D, size: 0x8, addend: 0x0, symName: __ZNSt3__113__unwrap_iterB7v160006IP6VertexNS_18__unwrap_iter_implIS2_Lb1EEELi0EEEDTclsrT0_8__unwrapclsr3stdE7declvalIT_EEEES6_, symObjAddr: 0x4A7C, symBinAddr: 0x10001D554, symSize: 0x24 }
  - { offsetInCU: 0x84A4, offset: 0x59C81, size: 0x8, addend: 0x0, symName: __ZNSt3__19make_pairB7v160006IP6VertexS2_EENS_4pairINS_18__unwrap_ref_decayIT_E4typeENS4_IT0_E4typeEEEOS5_OS8_, symObjAddr: 0x4AA0, symBinAddr: 0x10001D578, symSize: 0x38 }
  - { offsetInCU: 0x84F3, offset: 0x59CD0, size: 0x8, addend: 0x0, symName: __ZNSt3__114__rewrap_rangeB7v160006IP6VertexS2_EET_S3_T0_, symObjAddr: 0x4AD8, symBinAddr: 0x10001D5B0, symSize: 0x2C }
  - { offsetInCU: 0x853F, offset: 0x59D1C, size: 0x8, addend: 0x0, symName: __ZNSt3__113__rewrap_iterB7v160006IP6VertexS2_NS_18__unwrap_iter_implIS2_Lb1EEEEET_S5_T0_, symObjAddr: 0x4B04, symBinAddr: 0x10001D5DC, symSize: 0x3C }
  - { offsetInCU: 0x8594, offset: 0x59D71, size: 0x8, addend: 0x0, symName: __ZNSt3__119__copy_trivial_implB7v160006I6VertexS1_EENS_4pairIPT_PT0_EES4_S4_S6_, symObjAddr: 0x4B40, symBinAddr: 0x10001D618, symSize: 0x8C }
  - { offsetInCU: 0x85FC, offset: 0x59DD9, size: 0x8, addend: 0x0, symName: __ZNSt3__19make_pairB7v160006IRP6VertexS2_EENS_4pairINS_18__unwrap_ref_decayIT_E4typeENS5_IT0_E4typeEEEOS6_OS9_, symObjAddr: 0x4BCC, symBinAddr: 0x10001D6A4, symSize: 0x38 }
  - { offsetInCU: 0x869E, offset: 0x59E7B, size: 0x8, addend: 0x0, symName: __ZNSt3__130__uninitialized_allocator_copyB7v160006INS_9allocatorI6VertexEEPS2_S4_S4_EET2_RT_T0_T1_S5_, symObjAddr: 0x4D9C, symBinAddr: 0x10001D838, symSize: 0xF4 }
  - { offsetInCU: 0x873C, offset: 0x59F19, size: 0x8, addend: 0x0, symName: __ZNSt3__122__make_exception_guardB7v160006INS_29_AllocatorDestroyRangeReverseINS_9allocatorI6VertexEEPS3_EEEENS_28__exception_guard_exceptionsIT_EES8_, symObjAddr: 0x4F08, symBinAddr: 0x10001D92C, symSize: 0x4C }
  - { offsetInCU: 0x8772, offset: 0x59F4F, size: 0x8, addend: 0x0, symName: __ZNSt3__119__allocator_destroyB7v160006INS_9allocatorI6VertexEENS_16reverse_iteratorIPS2_EES6_EEvRT_T0_T1_, symObjAddr: 0x519C, symBinAddr: 0x10001DBC0, symSize: 0x70 }
  - { offsetInCU: 0x87D5, offset: 0x59FB2, size: 0x8, addend: 0x0, symName: __ZNSt3__112__to_addressB7v160006INS_16reverse_iteratorIP6VertexEEvEENS_5decayIDTclsr19__to_address_helperIT_EE6__callclsr3stdE7declvalIRKS6_EEEEE4typeES8_, symObjAddr: 0x5288, symBinAddr: 0x10001DC30, symSize: 0x24 }
  - { offsetInCU: 0x8834, offset: 0x5A011, size: 0x8, addend: 0x0, symName: __ZNSt3__18distanceB7v160006IPjEENS_15iterator_traitsIT_E15difference_typeES3_S3_, symObjAddr: 0x5CA0, symBinAddr: 0x10001DEC0, symSize: 0x2C }
  - { offsetInCU: 0x8877, offset: 0x5A054, size: 0x8, addend: 0x0, symName: __ZNSt3__14copyB7v160006IPjS1_EET0_T_S3_S2_, symObjAddr: 0x5D1C, symBinAddr: 0x10001DF3C, symSize: 0x40 }
  - { offsetInCU: 0x88D1, offset: 0x5A0AE, size: 0x8, addend: 0x0, symName: __ZNSt3__125__debug_db_invalidate_allB7v160006INS_6vectorIjNS_9allocatorIjEEEEEEvPT_, symObjAddr: 0x6034, symBinAddr: 0x10001E254, symSize: 0x10 }
  - { offsetInCU: 0x8902, offset: 0x5A0DF, size: 0x8, addend: 0x0, symName: __ZNSt3__110__distanceB7v160006IPjEENS_15iterator_traitsIT_E15difference_typeES3_S3_NS_26random_access_iterator_tagE, symObjAddr: 0x6044, symBinAddr: 0x10001E264, symSize: 0x28 }
  - { offsetInCU: 0x8950, offset: 0x5A12D, size: 0x8, addend: 0x0, symName: __ZNSt3__19__advanceB7v160006IPjEEvRT_NS_15iterator_traitsIS2_E15difference_typeENS_26random_access_iterator_tagE, symObjAddr: 0x606C, symBinAddr: 0x10001E28C, symSize: 0x28 }
  - { offsetInCU: 0x899A, offset: 0x5A177, size: 0x8, addend: 0x0, symName: __ZNSt3__16__copyB7v160006INS_17_ClassicAlgPolicyEPjS2_S2_EENS_4pairIT0_T2_EES4_T1_S5_, symObjAddr: 0x6094, symBinAddr: 0x10001E2B4, symSize: 0x44 }
  - { offsetInCU: 0x8A06, offset: 0x5A1E3, size: 0x8, addend: 0x0, symName: __ZNSt3__123__dispatch_copy_or_moveB7v160006INS_17_ClassicAlgPolicyENS_11__copy_loopIS1_EENS_14__copy_trivialEPjS5_S5_EENS_4pairIT2_T4_EES7_T3_S8_, symObjAddr: 0x60D8, symBinAddr: 0x10001E2F8, symSize: 0x44 }
  - { offsetInCU: 0x8A84, offset: 0x5A261, size: 0x8, addend: 0x0, symName: __ZNSt3__121__unwrap_and_dispatchB7v160006INS_10__overloadINS_11__copy_loopINS_17_ClassicAlgPolicyEEENS_14__copy_trivialEEEPjS7_S7_Li0EEENS_4pairIT0_T2_EES9_T1_SA_, symObjAddr: 0x611C, symBinAddr: 0x10001E33C, symSize: 0xB4 }
  - { offsetInCU: 0x8B12, offset: 0x5A2EF, size: 0x8, addend: 0x0, symName: __ZNSt3__114__unwrap_rangeB7v160006IPjS1_EENS_4pairIT0_S3_EET_S5_, symObjAddr: 0x61D0, symBinAddr: 0x10001E3F0, symSize: 0x60 }
  - { offsetInCU: 0x8C61, offset: 0x5A43E, size: 0x8, addend: 0x0, symName: __ZNSt3__113__unwrap_iterB7v160006IPjNS_18__unwrap_iter_implIS1_Lb1EEELi0EEEDTclsrT0_8__unwrapclsr3stdE7declvalIT_EEEES5_, symObjAddr: 0x6278, symBinAddr: 0x10001E498, symSize: 0x24 }
  - { offsetInCU: 0x8CA5, offset: 0x5A482, size: 0x8, addend: 0x0, symName: __ZNSt3__19make_pairB7v160006IPjS1_EENS_4pairINS_18__unwrap_ref_decayIT_E4typeENS3_IT0_E4typeEEEOS4_OS7_, symObjAddr: 0x629C, symBinAddr: 0x10001E4BC, symSize: 0x38 }
  - { offsetInCU: 0x8CF4, offset: 0x5A4D1, size: 0x8, addend: 0x0, symName: __ZNSt3__114__rewrap_rangeB7v160006IPjS1_EET_S2_T0_, symObjAddr: 0x62D4, symBinAddr: 0x10001E4F4, symSize: 0x2C }
  - { offsetInCU: 0x8D40, offset: 0x5A51D, size: 0x8, addend: 0x0, symName: __ZNSt3__113__rewrap_iterB7v160006IPjS1_NS_18__unwrap_iter_implIS1_Lb1EEEEET_S4_T0_, symObjAddr: 0x6300, symBinAddr: 0x10001E520, symSize: 0x3C }
  - { offsetInCU: 0x8D95, offset: 0x5A572, size: 0x8, addend: 0x0, symName: __ZNSt3__119__copy_trivial_implB7v160006IjjEENS_4pairIPT_PT0_EES3_S3_S5_, symObjAddr: 0x633C, symBinAddr: 0x10001E55C, symSize: 0x84 }
  - { offsetInCU: 0x8DFD, offset: 0x5A5DA, size: 0x8, addend: 0x0, symName: __ZNSt3__19make_pairB7v160006IRPjS1_EENS_4pairINS_18__unwrap_ref_decayIT_E4typeENS4_IT0_E4typeEEEOS5_OS8_, symObjAddr: 0x63C0, symBinAddr: 0x10001E5E0, symSize: 0x38 }
  - { offsetInCU: 0x8E9F, offset: 0x5A67C, size: 0x8, addend: 0x0, symName: __ZNSt3__130__uninitialized_allocator_copyB7v160006INS_9allocatorIjEEPjS3_S3_EET2_RT_T0_T1_S4_, symObjAddr: 0x6588, symBinAddr: 0x10001E7A8, symSize: 0xF4 }
  - { offsetInCU: 0x8F3D, offset: 0x5A71A, size: 0x8, addend: 0x0, symName: __ZNSt3__122__make_exception_guardB7v160006INS_29_AllocatorDestroyRangeReverseINS_9allocatorIjEEPjEEEENS_28__exception_guard_exceptionsIT_EES7_, symObjAddr: 0x66EC, symBinAddr: 0x10001E90C, symSize: 0x4C }
  - { offsetInCU: 0x8F73, offset: 0x5A750, size: 0x8, addend: 0x0, symName: __ZNSt3__119__allocator_destroyB7v160006INS_9allocatorIjEENS_16reverse_iteratorIPjEES5_EEvRT_T0_T1_, symObjAddr: 0x6974, symBinAddr: 0x10001EB94, symSize: 0x70 }
  - { offsetInCU: 0x8FD6, offset: 0x5A7B3, size: 0x8, addend: 0x0, symName: __ZNSt3__1neB7v160006IPjS1_EEbRKNS_16reverse_iteratorIT_EERKNS2_IT0_EE, symObjAddr: 0x6A18, symBinAddr: 0x10001EC38, symSize: 0x48 }
  - { offsetInCU: 0x9022, offset: 0x5A7FF, size: 0x8, addend: 0x0, symName: __ZNSt3__112__to_addressB7v160006INS_16reverse_iteratorIPjEEvEENS_5decayIDTclsr19__to_address_helperIT_EE6__callclsr3stdE7declvalIRKS5_EEEEE4typeES7_, symObjAddr: 0x6A60, symBinAddr: 0x10001EC80, symSize: 0x24 }
  - { offsetInCU: 0x9081, offset: 0x5A85E, size: 0x8, addend: 0x0, symName: __ZNSt3__119__allocate_at_leastB7v160006INS_9allocatorIjEEEENS_19__allocation_resultINS_16allocator_traitsIT_E7pointerEEERS5_m, symObjAddr: 0x6D80, symBinAddr: 0x10001EFA0, symSize: 0x40 }
  - { offsetInCU: 0x90C4, offset: 0x5A8A1, size: 0x8, addend: 0x0, symName: __ZNSt3__18distanceB7v160006IP7TextureEENS_15iterator_traitsIT_E15difference_typeES4_S4_, symObjAddr: 0x7118, symBinAddr: 0x10001F338, symSize: 0x2C }
  - { offsetInCU: 0x9107, offset: 0x5A8E4, size: 0x8, addend: 0x0, symName: __ZNSt3__14copyB7v160006IP7TextureS2_EET0_T_S4_S3_, symObjAddr: 0x7194, symBinAddr: 0x10001F3B4, symSize: 0x40 }
  - { offsetInCU: 0x9161, offset: 0x5A93E, size: 0x8, addend: 0x0, symName: __ZNSt3__125__debug_db_invalidate_allB7v160006INS_6vectorI7TextureNS_9allocatorIS2_EEEEEEvPT_, symObjAddr: 0x74B4, symBinAddr: 0x10001F6D4, symSize: 0x10 }
  - { offsetInCU: 0x9192, offset: 0x5A96F, size: 0x8, addend: 0x0, symName: __ZNSt3__110__distanceB7v160006IP7TextureEENS_15iterator_traitsIT_E15difference_typeES4_S4_NS_26random_access_iterator_tagE, symObjAddr: 0x74C4, symBinAddr: 0x10001F6E4, symSize: 0x28 }
  - { offsetInCU: 0x91E0, offset: 0x5A9BD, size: 0x8, addend: 0x0, symName: __ZNSt3__19__advanceB7v160006IP7TextureEEvRT_NS_15iterator_traitsIS3_E15difference_typeENS_26random_access_iterator_tagE, symObjAddr: 0x74EC, symBinAddr: 0x10001F70C, symSize: 0x30 }
  - { offsetInCU: 0x922A, offset: 0x5AA07, size: 0x8, addend: 0x0, symName: __ZNSt3__16__copyB7v160006INS_17_ClassicAlgPolicyEP7TextureS3_S3_EENS_4pairIT0_T2_EES5_T1_S6_, symObjAddr: 0x751C, symBinAddr: 0x10001F73C, symSize: 0x44 }
  - { offsetInCU: 0x9296, offset: 0x5AA73, size: 0x8, addend: 0x0, symName: __ZNSt3__123__dispatch_copy_or_moveB7v160006INS_17_ClassicAlgPolicyENS_11__copy_loopIS1_EENS_14__copy_trivialEP7TextureS6_S6_EENS_4pairIT2_T4_EES8_T3_S9_, symObjAddr: 0x7560, symBinAddr: 0x10001F780, symSize: 0x44 }
  - { offsetInCU: 0x9314, offset: 0x5AAF1, size: 0x8, addend: 0x0, symName: __ZNSt3__121__unwrap_and_dispatchB7v160006INS_10__overloadINS_11__copy_loopINS_17_ClassicAlgPolicyEEENS_14__copy_trivialEEEP7TextureS8_S8_Li0EEENS_4pairIT0_T2_EESA_T1_SB_, symObjAddr: 0x75A4, symBinAddr: 0x10001F7C4, symSize: 0xB4 }
  - { offsetInCU: 0x93A2, offset: 0x5AB7F, size: 0x8, addend: 0x0, symName: __ZNSt3__114__unwrap_rangeB7v160006IP7TextureS2_EENS_4pairIT0_S4_EET_S6_, symObjAddr: 0x7658, symBinAddr: 0x10001F878, symSize: 0x60 }
  - { offsetInCU: 0x94F1, offset: 0x5ACCE, size: 0x8, addend: 0x0, symName: __ZNSt3__113__unwrap_iterB7v160006IP7TextureNS_18__unwrap_iter_implIS2_Lb1EEELi0EEEDTclsrT0_8__unwrapclsr3stdE7declvalIT_EEEES6_, symObjAddr: 0x7700, symBinAddr: 0x10001F920, symSize: 0x24 }
  - { offsetInCU: 0x9535, offset: 0x5AD12, size: 0x8, addend: 0x0, symName: __ZNSt3__19make_pairB7v160006IP7TextureS2_EENS_4pairINS_18__unwrap_ref_decayIT_E4typeENS4_IT0_E4typeEEEOS5_OS8_, symObjAddr: 0x7724, symBinAddr: 0x10001F944, symSize: 0x38 }
  - { offsetInCU: 0x9584, offset: 0x5AD61, size: 0x8, addend: 0x0, symName: __ZNSt3__114__rewrap_rangeB7v160006IP7TextureS2_EET_S3_T0_, symObjAddr: 0x775C, symBinAddr: 0x10001F97C, symSize: 0x2C }
  - { offsetInCU: 0x95D0, offset: 0x5ADAD, size: 0x8, addend: 0x0, symName: __ZNSt3__113__rewrap_iterB7v160006IP7TextureS2_NS_18__unwrap_iter_implIS2_Lb1EEEEET_S5_T0_, symObjAddr: 0x7788, symBinAddr: 0x10001F9A8, symSize: 0x3C }
  - { offsetInCU: 0x9625, offset: 0x5AE02, size: 0x8, addend: 0x0, symName: __ZNSt3__119__copy_trivial_implB7v160006I7TextureS1_EENS_4pairIPT_PT0_EES4_S4_S6_, symObjAddr: 0x77C4, symBinAddr: 0x10001F9E4, symSize: 0x8C }
  - { offsetInCU: 0x968D, offset: 0x5AE6A, size: 0x8, addend: 0x0, symName: __ZNSt3__19make_pairB7v160006IRP7TextureS2_EENS_4pairINS_18__unwrap_ref_decayIT_E4typeENS5_IT0_E4typeEEEOS6_OS9_, symObjAddr: 0x7850, symBinAddr: 0x10001FA70, symSize: 0x38 }
  - { offsetInCU: 0x972F, offset: 0x5AF0C, size: 0x8, addend: 0x0, symName: __ZNSt3__130__uninitialized_allocator_copyB7v160006INS_9allocatorI7TextureEEPS2_S4_S4_EET2_RT_T0_T1_S5_, symObjAddr: 0x7A20, symBinAddr: 0x10001FC40, symSize: 0xF4 }
  - { offsetInCU: 0x97CD, offset: 0x5AFAA, size: 0x8, addend: 0x0, symName: __ZNSt3__122__make_exception_guardB7v160006INS_29_AllocatorDestroyRangeReverseINS_9allocatorI7TextureEEPS3_EEEENS_28__exception_guard_exceptionsIT_EES8_, symObjAddr: 0x7B8C, symBinAddr: 0x10001FDAC, symSize: 0x4C }
  - { offsetInCU: 0x9803, offset: 0x5AFE0, size: 0x8, addend: 0x0, symName: __ZNSt3__119__allocator_destroyB7v160006INS_9allocatorI7TextureEENS_16reverse_iteratorIPS2_EES6_EEvRT_T0_T1_, symObjAddr: 0x7E1C, symBinAddr: 0x10002003C, symSize: 0x70 }
  - { offsetInCU: 0x9866, offset: 0x5B043, size: 0x8, addend: 0x0, symName: __ZNSt3__1neB7v160006IP7TextureS2_EEbRKNS_16reverse_iteratorIT_EERKNS3_IT0_EE, symObjAddr: 0x7EC0, symBinAddr: 0x1000200E0, symSize: 0x48 }
  - { offsetInCU: 0x98B2, offset: 0x5B08F, size: 0x8, addend: 0x0, symName: __ZNSt3__112__to_addressB7v160006INS_16reverse_iteratorIP7TextureEEvEENS_5decayIDTclsr19__to_address_helperIT_EE6__callclsr3stdE7declvalIRKS6_EEEEE4typeES8_, symObjAddr: 0x7F08, symBinAddr: 0x100020128, symSize: 0x24 }
  - { offsetInCU: 0x9911, offset: 0x5B0EE, size: 0x8, addend: 0x0, symName: __ZNSt3__119__allocate_at_leastB7v160006INS_9allocatorI7TextureEEEENS_19__allocation_resultINS_16allocator_traitsIT_E7pointerEEERS6_m, symObjAddr: 0x8244, symBinAddr: 0x100020464, symSize: 0x40 }
  - { offsetInCU: 0x9B41, offset: 0x5B31E, size: 0x8, addend: 0x0, symName: __ZNSt3__14copyB7v160006IPKcPcEET0_T_S5_S4_, symObjAddr: 0x9520, symBinAddr: 0x100020E24, symSize: 0x40 }
  - { offsetInCU: 0x9B9B, offset: 0x5B378, size: 0x8, addend: 0x0, symName: __ZNSt3__16__copyB7v160006INS_17_ClassicAlgPolicyEPKcS3_PcEENS_4pairIT0_T2_EES6_T1_S7_, symObjAddr: 0x9560, symBinAddr: 0x100020E64, symSize: 0x44 }
  - { offsetInCU: 0x9C07, offset: 0x5B3E4, size: 0x8, addend: 0x0, symName: __ZNSt3__123__dispatch_copy_or_moveB7v160006INS_17_ClassicAlgPolicyENS_11__copy_loopIS1_EENS_14__copy_trivialEPKcS6_PcEENS_4pairIT2_T4_EES9_T3_SA_, symObjAddr: 0x95A4, symBinAddr: 0x100020EA8, symSize: 0x44 }
  - { offsetInCU: 0x9C85, offset: 0x5B462, size: 0x8, addend: 0x0, symName: __ZNSt3__121__unwrap_and_dispatchB7v160006INS_10__overloadINS_11__copy_loopINS_17_ClassicAlgPolicyEEENS_14__copy_trivialEEEPKcS8_PcLi0EEENS_4pairIT0_T2_EESB_T1_SC_, symObjAddr: 0x95E8, symBinAddr: 0x100020EEC, symSize: 0xB4 }
  - { offsetInCU: 0x9D13, offset: 0x5B4F0, size: 0x8, addend: 0x0, symName: __ZNSt3__114__unwrap_rangeB7v160006IPKcS2_EENS_4pairIT0_S4_EET_S6_, symObjAddr: 0x969C, symBinAddr: 0x100020FA0, symSize: 0x60 }
  - { offsetInCU: 0x9E62, offset: 0x5B63F, size: 0x8, addend: 0x0, symName: __ZNSt3__113__unwrap_iterB7v160006IPcNS_18__unwrap_iter_implIS1_Lb1EEELi0EEEDTclsrT0_8__unwrapclsr3stdE7declvalIT_EEEES5_, symObjAddr: 0x9744, symBinAddr: 0x100021048, symSize: 0x24 }
  - { offsetInCU: 0x9EA6, offset: 0x5B683, size: 0x8, addend: 0x0, symName: __ZNSt3__19make_pairB7v160006IPKcPcEENS_4pairINS_18__unwrap_ref_decayIT_E4typeENS5_IT0_E4typeEEEOS6_OS9_, symObjAddr: 0x9768, symBinAddr: 0x10002106C, symSize: 0x38 }
  - { offsetInCU: 0x9EF5, offset: 0x5B6D2, size: 0x8, addend: 0x0, symName: __ZNSt3__114__rewrap_rangeB7v160006IPKcS2_EET_S3_T0_, symObjAddr: 0x97A0, symBinAddr: 0x1000210A4, symSize: 0x2C }
  - { offsetInCU: 0x9F41, offset: 0x5B71E, size: 0x8, addend: 0x0, symName: __ZNSt3__113__rewrap_iterB7v160006IPcS1_NS_18__unwrap_iter_implIS1_Lb1EEEEET_S4_T0_, symObjAddr: 0x97CC, symBinAddr: 0x1000210D0, symSize: 0x3C }
  - { offsetInCU: 0x9F96, offset: 0x5B773, size: 0x8, addend: 0x0, symName: __ZNSt3__19make_pairB7v160006IPKcS2_EENS_4pairINS_18__unwrap_ref_decayIT_E4typeENS4_IT0_E4typeEEEOS5_OS8_, symObjAddr: 0x9808, symBinAddr: 0x10002110C, symSize: 0x38 }
  - { offsetInCU: 0x9FE5, offset: 0x5B7C2, size: 0x8, addend: 0x0, symName: __ZNSt3__113__unwrap_iterB7v160006IPKcNS_18__unwrap_iter_implIS2_Lb1EEELi0EEEDTclsrT0_8__unwrapclsr3stdE7declvalIT_EEEES6_, symObjAddr: 0x9840, symBinAddr: 0x100021144, symSize: 0x24 }
  - { offsetInCU: 0xA150, offset: 0x5B92D, size: 0x8, addend: 0x0, symName: __ZNSt3__119__copy_trivial_implB7v160006IKccEENS_4pairIPT_PT0_EES4_S4_S6_, symObjAddr: 0x98F8, symBinAddr: 0x1000211FC, symSize: 0x7C }
  - { offsetInCU: 0xA1B8, offset: 0x5B995, size: 0x8, addend: 0x0, symName: __ZNSt3__19make_pairB7v160006IRPKcPcEENS_4pairINS_18__unwrap_ref_decayIT_E4typeENS6_IT0_E4typeEEEOS7_OSA_, symObjAddr: 0x9974, symBinAddr: 0x100021278, symSize: 0x38 }
  - { offsetInCU: 0xA25A, offset: 0x5BA37, size: 0x8, addend: 0x0, symName: __ZNSt3__113__rewrap_iterB7v160006IPKcS2_NS_18__unwrap_iter_implIS2_Lb1EEEEET_S5_T0_, symObjAddr: 0x9AB0, symBinAddr: 0x1000213B4, symSize: 0x3C }
  - { offsetInCU: 0xA2AF, offset: 0x5BA8C, size: 0x8, addend: 0x0, symName: __ZNSt3__16fill_nB7v160006IPcmcEET_S2_T0_RKT1_, symObjAddr: 0x9B7C, symBinAddr: 0x100021480, symSize: 0x44 }
  - { offsetInCU: 0xA312, offset: 0x5BAEF, size: 0x8, addend: 0x0, symName: __ZNSt3__18__fill_nB7v160006IPcmcEET_S2_T0_RKT1_, symObjAddr: 0x9BC0, symBinAddr: 0x1000214C4, symSize: 0x64 }
  - { offsetInCU: 0xA375, offset: 0x5BB52, size: 0x8, addend: 0x0, symName: __ZNSt3__122__make_exception_guardB7v160006INS_6vectorIN3glm3vecILi3EfLNS2_9qualifierE0EEENS_9allocatorIS5_EEE16__destroy_vectorEEENS_28__exception_guard_exceptionsIT_EESB_, symObjAddr: 0xAA3C, symBinAddr: 0x100021C04, symSize: 0x40 }
  - { offsetInCU: 0xA3AA, offset: 0x5BB87, size: 0x8, addend: 0x0, symName: __ZNSt3__130__uninitialized_allocator_copyB7v160006INS_9allocatorIN3glm3vecILi3EfLNS2_9qualifierE0EEEEES5_S5_LPv0EEEPT0_RT_PKS8_SD_S9_, symObjAddr: 0xB254, symBinAddr: 0x100021E7C, symSize: 0x38 }
  - { offsetInCU: 0xA422, offset: 0x5BBFF, size: 0x8, addend: 0x0, symName: __ZNSt3__14copyB7v160006IPKN3glm3vecILi3EfLNS1_9qualifierE0EEEPS4_EET0_T_S9_S8_, symObjAddr: 0xB304, symBinAddr: 0x100021EB4, symSize: 0x40 }
  - { offsetInCU: 0xA47C, offset: 0x5BC59, size: 0x8, addend: 0x0, symName: __ZNSt3__16__copyB7v160006INS_17_ClassicAlgPolicyEPKN3glm3vecILi3EfLNS2_9qualifierE0EEES7_PS5_EENS_4pairIT0_T2_EESA_T1_SB_, symObjAddr: 0xB344, symBinAddr: 0x100021EF4, symSize: 0x44 }
  - { offsetInCU: 0xA4E8, offset: 0x5BCC5, size: 0x8, addend: 0x0, symName: __ZNSt3__123__dispatch_copy_or_moveB7v160006INS_17_ClassicAlgPolicyENS_11__copy_loopIS1_EENS_14__copy_trivialEPKN3glm3vecILi3EfLNS5_9qualifierE0EEESA_PS8_EENS_4pairIT2_T4_EESD_T3_SE_, symObjAddr: 0xB388, symBinAddr: 0x100021F38, symSize: 0x44 }
  - { offsetInCU: 0xA566, offset: 0x5BD43, size: 0x8, addend: 0x0, symName: __ZNSt3__121__unwrap_and_dispatchB7v160006INS_10__overloadINS_11__copy_loopINS_17_ClassicAlgPolicyEEENS_14__copy_trivialEEEPKN3glm3vecILi3EfLNS7_9qualifierE0EEESC_PSA_Li0EEENS_4pairIT0_T2_EESF_T1_SG_, symObjAddr: 0xB3CC, symBinAddr: 0x100021F7C, symSize: 0xB4 }
  - { offsetInCU: 0xA5F4, offset: 0x5BDD1, size: 0x8, addend: 0x0, symName: __ZNSt3__114__unwrap_rangeB7v160006IPKN3glm3vecILi3EfLNS1_9qualifierE0EEES6_EENS_4pairIT0_S8_EET_SA_, symObjAddr: 0xB480, symBinAddr: 0x100022030, symSize: 0x60 }
  - { offsetInCU: 0xA743, offset: 0x5BF20, size: 0x8, addend: 0x0, symName: __ZNSt3__113__unwrap_iterB7v160006IPN3glm3vecILi3EfLNS1_9qualifierE0EEENS_18__unwrap_iter_implIS5_Lb1EEELi0EEEDTclsrT0_8__unwrapclsr3stdE7declvalIT_EEEES9_, symObjAddr: 0xB528, symBinAddr: 0x1000220D8, symSize: 0x24 }
  - { offsetInCU: 0xA787, offset: 0x5BF64, size: 0x8, addend: 0x0, symName: __ZNSt3__19make_pairB7v160006IPKN3glm3vecILi3EfLNS1_9qualifierE0EEEPS4_EENS_4pairINS_18__unwrap_ref_decayIT_E4typeENS9_IT0_E4typeEEEOSA_OSD_, symObjAddr: 0xB54C, symBinAddr: 0x1000220FC, symSize: 0x38 }
  - { offsetInCU: 0xA7D6, offset: 0x5BFB3, size: 0x8, addend: 0x0, symName: __ZNSt3__114__rewrap_rangeB7v160006IPKN3glm3vecILi3EfLNS1_9qualifierE0EEES6_EET_S7_T0_, symObjAddr: 0xB584, symBinAddr: 0x100022134, symSize: 0x2C }
  - { offsetInCU: 0xA822, offset: 0x5BFFF, size: 0x8, addend: 0x0, symName: __ZNSt3__113__rewrap_iterB7v160006IPN3glm3vecILi3EfLNS1_9qualifierE0EEES5_NS_18__unwrap_iter_implIS5_Lb1EEEEET_S8_T0_, symObjAddr: 0xB5B0, symBinAddr: 0x100022160, symSize: 0x3C }
  - { offsetInCU: 0xA877, offset: 0x5C054, size: 0x8, addend: 0x0, symName: __ZNSt3__19make_pairB7v160006IPKN3glm3vecILi3EfLNS1_9qualifierE0EEES6_EENS_4pairINS_18__unwrap_ref_decayIT_E4typeENS8_IT0_E4typeEEEOS9_OSC_, symObjAddr: 0xB5EC, symBinAddr: 0x10002219C, symSize: 0x38 }
  - { offsetInCU: 0xA8C6, offset: 0x5C0A3, size: 0x8, addend: 0x0, symName: __ZNSt3__113__unwrap_iterB7v160006IPKN3glm3vecILi3EfLNS1_9qualifierE0EEENS_18__unwrap_iter_implIS6_Lb1EEELi0EEEDTclsrT0_8__unwrapclsr3stdE7declvalIT_EEEESA_, symObjAddr: 0xB624, symBinAddr: 0x1000221D4, symSize: 0x24 }
  - { offsetInCU: 0xAA31, offset: 0x5C20E, size: 0x8, addend: 0x0, symName: __ZNSt3__112__to_addressB7v160006IKN3glm3vecILi3EfLNS1_9qualifierE0EEEEEPT_S7_, symObjAddr: 0xB6DC, symBinAddr: 0x10002228C, symSize: 0x14 }
  - { offsetInCU: 0xAA66, offset: 0x5C243, size: 0x8, addend: 0x0, symName: __ZNSt3__119__copy_trivial_implB7v160006IKN3glm3vecILi3EfLNS1_9qualifierE0EEES4_EENS_4pairIPT_PT0_EES8_S8_SA_, symObjAddr: 0xB6F0, symBinAddr: 0x1000222A0, symSize: 0x8C }
  - { offsetInCU: 0xAACE, offset: 0x5C2AB, size: 0x8, addend: 0x0, symName: __ZNSt3__19make_pairB7v160006IRPKN3glm3vecILi3EfLNS1_9qualifierE0EEEPS4_EENS_4pairINS_18__unwrap_ref_decayIT_E4typeENSA_IT0_E4typeEEEOSB_OSE_, symObjAddr: 0xB77C, symBinAddr: 0x10002232C, symSize: 0x38 }
  - { offsetInCU: 0xAB70, offset: 0x5C34D, size: 0x8, addend: 0x0, symName: __ZNSt3__113__rewrap_iterB7v160006IPKN3glm3vecILi3EfLNS1_9qualifierE0EEES6_NS_18__unwrap_iter_implIS6_Lb1EEEEET_S9_T0_, symObjAddr: 0xB8B8, symBinAddr: 0x100022468, symSize: 0x3C }
  - { offsetInCU: 0xD322, offset: 0x5EAFF, size: 0x8, addend: 0x0, symName: __ZN4MeshC2ERNSt3__16vectorI6VertexNS0_9allocatorIS2_EEEERNS1_IjNS3_IjEEEERNS1_I7TextureNS3_ISA_EEEE, symObjAddr: 0x0, symBinAddr: 0x10001A3A8, symSize: 0x29C }
  - { offsetInCU: 0xD39A, offset: 0x5EB77, size: 0x8, addend: 0x0, symName: __ZNSt3__16vectorIjNS_9allocatorIjEEEC1B7v160006Ev, symObjAddr: 0x2C8, symBinAddr: 0x10001A644, symSize: 0x2C }
  - { offsetInCU: 0xD3C4, offset: 0x5EBA1, size: 0x8, addend: 0x0, symName: __ZNSt3__16vectorI7TextureNS_9allocatorIS1_EEEC1B7v160006Ev, symObjAddr: 0x2F4, symBinAddr: 0x10001A670, symSize: 0x2C }
  - { offsetInCU: 0xD3EE, offset: 0x5EBCB, size: 0x8, addend: 0x0, symName: __ZNSt3__16vectorI6VertexNS_9allocatorIS1_EEEaSB7v160006ERKS4_, symObjAddr: 0x348, symBinAddr: 0x10001A69C, symSize: 0x68 }
  - { offsetInCU: 0xD425, offset: 0x5EC02, size: 0x8, addend: 0x0, symName: __ZNSt3__16vectorIjNS_9allocatorIjEEEaSB7v160006ERKS3_, symObjAddr: 0x3B0, symBinAddr: 0x10001A704, symSize: 0x68 }
  - { offsetInCU: 0xD45C, offset: 0x5EC39, size: 0x8, addend: 0x0, symName: __ZNSt3__16vectorI7TextureNS_9allocatorIS1_EEEaSB7v160006ERKS4_, symObjAddr: 0x418, symBinAddr: 0x10001A76C, symSize: 0x68 }
  - { offsetInCU: 0xD493, offset: 0x5EC70, size: 0x8, addend: 0x0, symName: __ZNSt3__16vectorI7TextureNS_9allocatorIS1_EEED1B7v160006Ev, symObjAddr: 0x544, symBinAddr: 0x10001A7D4, symSize: 0x2C }
  - { offsetInCU: 0xD4BD, offset: 0x5EC9A, size: 0x8, addend: 0x0, symName: __ZNSt3__16vectorIjNS_9allocatorIjEEED1B7v160006Ev, symObjAddr: 0x570, symBinAddr: 0x10001A800, symSize: 0x2C }
  - { offsetInCU: 0xD4E7, offset: 0x5ECC4, size: 0x8, addend: 0x0, symName: __ZN4MeshC1ERNSt3__16vectorI6VertexNS0_9allocatorIS2_EEEERNS1_IjNS3_IjEEEERNS1_I7TextureNS3_ISA_EEEE, symObjAddr: 0x5C8, symBinAddr: 0x10001A82C, symSize: 0x44 }
  - { offsetInCU: 0xD53D, offset: 0x5ED1A, size: 0x8, addend: 0x0, symName: __ZN4Mesh12DrawInstanceER6ShaderR6CameraN3glm3matILi4ELi4EfLNS4_9qualifierE0EEENS4_3vecILi3EfLS6_0EEENS4_3quaIfLS6_0EEES9_S9_b, symObjAddr: 0x60C, symBinAddr: 0x10001A870, symSize: 0x60C }
  - { offsetInCU: 0xD66F, offset: 0x5EE4C, size: 0x8, addend: 0x0, symName: __ZNKSt3__16vectorI7TextureNS_9allocatorIS1_EEE4sizeB7v160006Ev, symObjAddr: 0xC18, symBinAddr: 0x10001AE7C, symSize: 0x28 }
  - { offsetInCU: 0xD695, offset: 0x5EE72, size: 0x8, addend: 0x0, symName: __ZNSt3__112basic_stringIcNS_11char_traitsIcEENS_9allocatorIcEEEC1B7v160006Ev, symObjAddr: 0xC40, symBinAddr: 0x10001AEA4, symSize: 0x2C }
  - { offsetInCU: 0xD6BF, offset: 0x5EE9C, size: 0x8, addend: 0x0, symName: __ZNSt3__16vectorI7TextureNS_9allocatorIS1_EEEixB7v160006Em, symObjAddr: 0xC6C, symBinAddr: 0x10001AED0, symSize: 0x2C }
  - { offsetInCU: 0xD6FB, offset: 0x5EED8, size: 0x8, addend: 0x0, symName: __ZNSt3__112basic_stringIcNS_11char_traitsIcEENS_9allocatorIcEEEC1B7v160006IDnEEPKc, symObjAddr: 0xC98, symBinAddr: 0x10001AEFC, symSize: 0x34 }
  - { offsetInCU: 0xD739, offset: 0x5EF16, size: 0x8, addend: 0x0, symName: __ZNSt3__112basic_stringIcNS_11char_traitsIcEENS_9allocatorIcEEEaSB7v160006EOS5_, symObjAddr: 0xD78, symBinAddr: 0x10001AFDC, symSize: 0x34 }
  - { offsetInCU: 0xD76E, offset: 0x5EF4B, size: 0x8, addend: 0x0, symName: __ZNKSt3__112basic_stringIcNS_11char_traitsIcEENS_9allocatorIcEEE5c_strB7v160006Ev, symObjAddr: 0xF28, symBinAddr: 0x10001B144, symSize: 0x24 }
  - { offsetInCU: 0xD794, offset: 0x5EF71, size: 0x8, addend: 0x0, symName: __ZNK4Mesh25GetTransformedCoordinatesEi, symObjAddr: 0x1270, symBinAddr: 0x10001B464, symSize: 0x3F8 }
  - { offsetInCU: 0xD856, offset: 0x5F033, size: 0x8, addend: 0x0, symName: __ZNSt3__16vectorIN3glm3vecILi3EfLNS1_9qualifierE0EEENS_9allocatorIS4_EEEC1B7v160006ESt16initializer_listIS4_E, symObjAddr: 0x1730, symBinAddr: 0x10001B85C, symSize: 0x3C }
  - { offsetInCU: 0xD891, offset: 0x5F06E, size: 0x8, addend: 0x0, symName: __ZNKSt3__16vectorI6VertexNS_9allocatorIS1_EEEixB7v160006Em, symObjAddr: 0x1798, symBinAddr: 0x10001B898, symSize: 0x2C }
  - { offsetInCU: 0xD8C8, offset: 0x5F0A5, size: 0x8, addend: 0x0, symName: __ZNKSt3__16vectorIjNS_9allocatorIjEEEixB7v160006Em, symObjAddr: 0x17C4, symBinAddr: 0x10001B8C4, symSize: 0x24 }
  - { offsetInCU: 0xD8FF, offset: 0x5F0DC, size: 0x8, addend: 0x0, symName: __ZN3glm3vecILi4EfLNS_9qualifierE0EEC1IfffiEET_T0_T1_T2_, symObjAddr: 0x17E8, symBinAddr: 0x10001B8E8, symSize: 0x4C }
  - { offsetInCU: 0xD987, offset: 0x5F164, size: 0x8, addend: 0x0, symName: __ZNSt3__16vectorIN3glm3vecILi3EfLNS1_9qualifierE0EEENS_9allocatorIS4_EEE9push_backB7v160006EOS4_, symObjAddr: 0x1F94, symBinAddr: 0x10001BAE8, symSize: 0x6C }
  - { offsetInCU: 0xD9BE, offset: 0x5F19B, size: 0x8, addend: 0x0, symName: __ZNK4Mesh23GetTransformedTrianglesEv, symObjAddr: 0x2060, symBinAddr: 0x10001BB54, symSize: 0x164 }
  - { offsetInCU: 0xDA39, offset: 0x5F216, size: 0x8, addend: 0x0, symName: __ZNK4Mesh19GetTriangleCentroidEi, symObjAddr: 0x2284, symBinAddr: 0x10001BCB8, symSize: 0x10C }
  - { offsetInCU: 0xDAA7, offset: 0x5F284, size: 0x8, addend: 0x0, symName: __ZN3glm3vecILi4EfLNS_9qualifierE0EEC2IfffiEET_T0_T1_T2_, symObjAddr: 0x27BC, symBinAddr: 0x10001BDC4, symSize: 0x48 }
  - { offsetInCU: 0xDB2F, offset: 0x5F30C, size: 0x8, addend: 0x0, symName: __ZNSt3__112basic_stringIcNS_11char_traitsIcEENS_9allocatorIcEEEC2B7v160006Ev, symObjAddr: 0x2840, symBinAddr: 0x10001BE0C, symSize: 0x54 }
  - { offsetInCU: 0xDB5E, offset: 0x5F33B, size: 0x8, addend: 0x0, symName: __ZNSt3__112basic_stringIcNS_11char_traitsIcEENS_9allocatorIcEEE14__default_initB7v160006Ev, symObjAddr: 0x28EC, symBinAddr: 0x10001BE60, symSize: 0x40 }
  - { offsetInCU: 0xDB84, offset: 0x5F361, size: 0x8, addend: 0x0, symName: __ZNSt3__112basic_stringIcNS_11char_traitsIcEENS_9allocatorIcEEE13__move_assignB7v160006ERS5_NS_17integral_constantIbLb1EEE, symObjAddr: 0x2A20, symBinAddr: 0x10001BEA0, symSize: 0xC8 }
  - { offsetInCU: 0xDBC6, offset: 0x5F3A3, size: 0x8, addend: 0x0, symName: __ZNSt3__116allocator_traitsINS_9allocatorIcEEE10deallocateB7v160006ERS2_Pcm, symObjAddr: 0x2B20, symBinAddr: 0x10001BF68, symSize: 0x34 }
  - { offsetInCU: 0xDC08, offset: 0x5F3E5, size: 0x8, addend: 0x0, symName: __ZNSt3__112basic_stringIcNS_11char_traitsIcEENS_9allocatorIcEEE7__allocB7v160006Ev, symObjAddr: 0x2B54, symBinAddr: 0x10001BF9C, symSize: 0x24 }
  - { offsetInCU: 0xDC2E, offset: 0x5F40B, size: 0x8, addend: 0x0, symName: __ZNKSt3__112basic_stringIcNS_11char_traitsIcEENS_9allocatorIcEEE14__get_long_capB7v160006Ev, symObjAddr: 0x2BA0, symBinAddr: 0x10001BFC0, symSize: 0x30 }
  - { offsetInCU: 0xDC54, offset: 0x5F431, size: 0x8, addend: 0x0, symName: __ZNSt3__112basic_stringIcNS_11char_traitsIcEENS_9allocatorIcEEE19__move_assign_allocB7v160006ERS5_, symObjAddr: 0x2BD0, symBinAddr: 0x10001BFF0, symSize: 0x2C }
  - { offsetInCU: 0xDC89, offset: 0x5F466, size: 0x8, addend: 0x0, symName: __ZNSt3__112basic_stringIcNS_11char_traitsIcEENS_9allocatorIcEEE16__set_short_sizeB7v160006Em, symObjAddr: 0x2BFC, symBinAddr: 0x10001C01C, symSize: 0x78 }
  - { offsetInCU: 0xDCBE, offset: 0x5F49B, size: 0x8, addend: 0x0, symName: __ZNSt3__111char_traitsIcE6assignERcRKc, symObjAddr: 0x2C74, symBinAddr: 0x10001C094, symSize: 0x24 }
  - { offsetInCU: 0xDCEF, offset: 0x5F4CC, size: 0x8, addend: 0x0, symName: __ZNSt3__19allocatorIcE10deallocateB7v160006EPcm, symObjAddr: 0x2CF8, symBinAddr: 0x10001C0B8, symSize: 0x40 }
  - { offsetInCU: 0xDD31, offset: 0x5F50E, size: 0x8, addend: 0x0, symName: __ZNSt3__117__compressed_pairINS_12basic_stringIcNS_11char_traitsIcEENS_9allocatorIcEEE5__repES5_E6secondB7v160006Ev, symObjAddr: 0x2E60, symBinAddr: 0x10001C0F8, symSize: 0x24 }
  - { offsetInCU: 0xDD57, offset: 0x5F534, size: 0x8, addend: 0x0, symName: __ZNSt3__122__compressed_pair_elemINS_9allocatorIcEELi1ELb1EE5__getB7v160006Ev, symObjAddr: 0x2E84, symBinAddr: 0x10001C11C, symSize: 0x14 }
  - { offsetInCU: 0xDD7D, offset: 0x5F55A, size: 0x8, addend: 0x0, symName: __ZNSt3__112basic_stringIcNS_11char_traitsIcEENS_9allocatorIcEEE19__move_assign_allocB7v160006ERS5_NS_17integral_constantIbLb1EEE, symObjAddr: 0x2E98, symBinAddr: 0x10001C130, symSize: 0x38 }
  - { offsetInCU: 0xDDBD, offset: 0x5F59A, size: 0x8, addend: 0x0, symName: __ZNKSt3__112basic_stringIcNS_11char_traitsIcEENS_9allocatorIcEEE4dataB7v160006Ev, symObjAddr: 0x2EE4, symBinAddr: 0x10001C168, symSize: 0x28 }
  - { offsetInCU: 0xDDE3, offset: 0x5F5C0, size: 0x8, addend: 0x0, symName: __ZNKSt3__112basic_stringIcNS_11char_traitsIcEENS_9allocatorIcEEE13__get_pointerB7v160006Ev, symObjAddr: 0x2F20, symBinAddr: 0x10001C1A4, symSize: 0x54 }
  - { offsetInCU: 0xDE09, offset: 0x5F5E6, size: 0x8, addend: 0x0, symName: __ZNKSt3__112basic_stringIcNS_11char_traitsIcEENS_9allocatorIcEEE18__get_long_pointerB7v160006Ev, symObjAddr: 0x2F74, symBinAddr: 0x10001C1F8, symSize: 0x28 }
  - { offsetInCU: 0xDE2F, offset: 0x5F60C, size: 0x8, addend: 0x0, symName: __ZNKSt3__112basic_stringIcNS_11char_traitsIcEENS_9allocatorIcEEE19__get_short_pointerB7v160006Ev, symObjAddr: 0x2F9C, symBinAddr: 0x10001C220, symSize: 0x28 }
  - { offsetInCU: 0xDE55, offset: 0x5F632, size: 0x8, addend: 0x0, symName: __ZNSt3__114pointer_traitsIPKcE10pointer_toB7v160006ERS1_, symObjAddr: 0x2FC4, symBinAddr: 0x10001C248, symSize: 0x14 }
  - { offsetInCU: 0xDE7D, offset: 0x5F65A, size: 0x8, addend: 0x0, symName: __ZNSt3__16vectorIjNS_9allocatorIjEEEC2B7v160006Ev, symObjAddr: 0x3144, symBinAddr: 0x10001C25C, symSize: 0x58 }
  - { offsetInCU: 0xDEA7, offset: 0x5F684, size: 0x8, addend: 0x0, symName: __ZNSt3__117__compressed_pairIPjNS_9allocatorIjEEEC1B7v160006IDnNS_18__default_init_tagEEEOT_OT0_, symObjAddr: 0x319C, symBinAddr: 0x10001C2B4, symSize: 0x3C }
  - { offsetInCU: 0xDEFF, offset: 0x5F6DC, size: 0x8, addend: 0x0, symName: __ZNSt3__117__compressed_pairIPjNS_9allocatorIjEEEC2B7v160006IDnNS_18__default_init_tagEEEOT_OT0_, symObjAddr: 0x31E8, symBinAddr: 0x10001C300, symSize: 0x40 }
  - { offsetInCU: 0xDF57, offset: 0x5F734, size: 0x8, addend: 0x0, symName: __ZNSt3__122__compressed_pair_elemIPjLi0ELb0EEC2B7v160006IDnvEEOT_, symObjAddr: 0x3228, symBinAddr: 0x10001C340, symSize: 0x1C }
  - { offsetInCU: 0xDF99, offset: 0x5F776, size: 0x8, addend: 0x0, symName: __ZNSt3__122__compressed_pair_elemINS_9allocatorIjEELi1ELb1EEC2B7v160006ENS_18__default_init_tagE, symObjAddr: 0x3244, symBinAddr: 0x10001C35C, symSize: 0x2C }
  - { offsetInCU: 0xDFCE, offset: 0x5F7AB, size: 0x8, addend: 0x0, symName: __ZNSt3__19allocatorIjEC2B7v160006Ev, symObjAddr: 0x3270, symBinAddr: 0x10001C388, symSize: 0x2C }
  - { offsetInCU: 0xDFF8, offset: 0x5F7D5, size: 0x8, addend: 0x0, symName: __ZNSt3__116__non_trivial_ifILb1ENS_9allocatorIjEEEC2B7v160006Ev, symObjAddr: 0x329C, symBinAddr: 0x10001C3B4, symSize: 0x14 }
  - { offsetInCU: 0xE022, offset: 0x5F7FF, size: 0x8, addend: 0x0, symName: __ZNSt3__16vectorI7TextureNS_9allocatorIS1_EEEC2B7v160006Ev, symObjAddr: 0x32B0, symBinAddr: 0x10001C3C8, symSize: 0x58 }
  - { offsetInCU: 0xE04C, offset: 0x5F829, size: 0x8, addend: 0x0, symName: __ZNSt3__117__compressed_pairIP7TextureNS_9allocatorIS1_EEEC1B7v160006IDnNS_18__default_init_tagEEEOT_OT0_, symObjAddr: 0x3308, symBinAddr: 0x10001C420, symSize: 0x3C }
  - { offsetInCU: 0xE0A4, offset: 0x5F881, size: 0x8, addend: 0x0, symName: __ZNSt3__117__compressed_pairIP7TextureNS_9allocatorIS1_EEEC2B7v160006IDnNS_18__default_init_tagEEEOT_OT0_, symObjAddr: 0x3354, symBinAddr: 0x10001C46C, symSize: 0x40 }
  - { offsetInCU: 0xE0FC, offset: 0x5F8D9, size: 0x8, addend: 0x0, symName: __ZNSt3__122__compressed_pair_elemIP7TextureLi0ELb0EEC2B7v160006IDnvEEOT_, symObjAddr: 0x3394, symBinAddr: 0x10001C4AC, symSize: 0x1C }
  - { offsetInCU: 0xE13E, offset: 0x5F91B, size: 0x8, addend: 0x0, symName: __ZNSt3__122__compressed_pair_elemINS_9allocatorI7TextureEELi1ELb1EEC2B7v160006ENS_18__default_init_tagE, symObjAddr: 0x33B0, symBinAddr: 0x10001C4C8, symSize: 0x2C }
  - { offsetInCU: 0xE173, offset: 0x5F950, size: 0x8, addend: 0x0, symName: __ZNSt3__19allocatorI7TextureEC2B7v160006Ev, symObjAddr: 0x33DC, symBinAddr: 0x10001C4F4, symSize: 0x2C }
  - { offsetInCU: 0xE19D, offset: 0x5F97A, size: 0x8, addend: 0x0, symName: __ZNSt3__116__non_trivial_ifILb1ENS_9allocatorI7TextureEEEC2B7v160006Ev, symObjAddr: 0x3408, symBinAddr: 0x10001C520, symSize: 0x14 }
  - { offsetInCU: 0xE1C7, offset: 0x5F9A4, size: 0x8, addend: 0x0, symName: __ZNSt3__16vectorIjNS_9allocatorIjEEED2B7v160006Ev, symObjAddr: 0x3924, symBinAddr: 0x10001C534, symSize: 0x44 }
  - { offsetInCU: 0xE1F1, offset: 0x5F9CE, size: 0x8, addend: 0x0, symName: __ZNSt3__16vectorIjNS_9allocatorIjEEE16__destroy_vectorC1ERS3_, symObjAddr: 0x3968, symBinAddr: 0x10001C578, symSize: 0x34 }
  - { offsetInCU: 0xE22A, offset: 0x5FA07, size: 0x8, addend: 0x0, symName: __ZNSt3__16vectorIjNS_9allocatorIjEEE16__destroy_vectorclB7v160006Ev, symObjAddr: 0x399C, symBinAddr: 0x10001C5AC, symSize: 0x9C }
  - { offsetInCU: 0xE250, offset: 0x5FA2D, size: 0x8, addend: 0x0, symName: __ZNSt3__16vectorIjNS_9allocatorIjEEE16__destroy_vectorC2ERS3_, symObjAddr: 0x3A38, symBinAddr: 0x10001C648, symSize: 0x20 }
  - { offsetInCU: 0xE289, offset: 0x5FA66, size: 0x8, addend: 0x0, symName: __ZNKSt3__16vectorIjNS_9allocatorIjEEE17__annotate_deleteB7v160006Ev, symObjAddr: 0x3A58, symBinAddr: 0x10001C668, symSize: 0xB8 }
  - { offsetInCU: 0xE2AF, offset: 0x5FA8C, size: 0x8, addend: 0x0, symName: __ZNSt3__16vectorIjNS_9allocatorIjEEE7__clearB7v160006Ev, symObjAddr: 0x3B20, symBinAddr: 0x10001C730, symSize: 0x28 }
  - { offsetInCU: 0xE2D5, offset: 0x5FAB2, size: 0x8, addend: 0x0, symName: __ZNSt3__116allocator_traitsINS_9allocatorIjEEE10deallocateB7v160006ERS2_Pjm, symObjAddr: 0x3B48, symBinAddr: 0x10001C758, symSize: 0x34 }
  - { offsetInCU: 0xE317, offset: 0x5FAF4, size: 0x8, addend: 0x0, symName: __ZNSt3__16vectorIjNS_9allocatorIjEEE7__allocB7v160006Ev, symObjAddr: 0x3B7C, symBinAddr: 0x10001C78C, symSize: 0x28 }
  - { offsetInCU: 0xE33D, offset: 0x5FB1A, size: 0x8, addend: 0x0, symName: __ZNKSt3__16vectorIjNS_9allocatorIjEEE8capacityB7v160006Ev, symObjAddr: 0x3BA4, symBinAddr: 0x10001C7B4, symSize: 0x40 }
  - { offsetInCU: 0xE363, offset: 0x5FB40, size: 0x8, addend: 0x0, symName: __ZNKSt3__16vectorIjNS_9allocatorIjEEE31__annotate_contiguous_containerB7v160006EPKvS5_S5_S5_, symObjAddr: 0x3BE4, symBinAddr: 0x10001C7F4, symSize: 0x20 }
  - { offsetInCU: 0xE3B5, offset: 0x5FB92, size: 0x8, addend: 0x0, symName: __ZNKSt3__16vectorIjNS_9allocatorIjEEE4dataB7v160006Ev, symObjAddr: 0x3C04, symBinAddr: 0x10001C814, symSize: 0x28 }
  - { offsetInCU: 0xE3DB, offset: 0x5FBB8, size: 0x8, addend: 0x0, symName: __ZNSt3__16vectorIjNS_9allocatorIjEEE22__base_destruct_at_endB7v160006EPj, symObjAddr: 0x3C40, symBinAddr: 0x10001C83C, symSize: 0x8C }
  - { offsetInCU: 0xE41F, offset: 0x5FBFC, size: 0x8, addend: 0x0, symName: __ZNSt3__116allocator_traitsINS_9allocatorIjEEE7destroyB7v160006IjvEEvRS2_PT_, symObjAddr: 0x3CCC, symBinAddr: 0x10001C8C8, symSize: 0x2C }
  - { offsetInCU: 0xE45C, offset: 0x5FC39, size: 0x8, addend: 0x0, symName: __ZNSt3__19allocatorIjE7destroyB7v160006EPj, symObjAddr: 0x3CF8, symBinAddr: 0x10001C8F4, symSize: 0x14 }
  - { offsetInCU: 0xE490, offset: 0x5FC6D, size: 0x8, addend: 0x0, symName: __ZNSt3__19allocatorIjE10deallocateB7v160006EPjm, symObjAddr: 0x3D0C, symBinAddr: 0x10001C908, symSize: 0x40 }
  - { offsetInCU: 0xE4D2, offset: 0x5FCAF, size: 0x8, addend: 0x0, symName: __ZNSt3__117__compressed_pairIPjNS_9allocatorIjEEE6secondB7v160006Ev, symObjAddr: 0x3D4C, symBinAddr: 0x10001C948, symSize: 0x24 }
  - { offsetInCU: 0xE4F8, offset: 0x5FCD5, size: 0x8, addend: 0x0, symName: __ZNSt3__122__compressed_pair_elemINS_9allocatorIjEELi1ELb1EE5__getB7v160006Ev, symObjAddr: 0x3D70, symBinAddr: 0x10001C96C, symSize: 0x14 }
  - { offsetInCU: 0xE51E, offset: 0x5FCFB, size: 0x8, addend: 0x0, symName: __ZNKSt3__16vectorIjNS_9allocatorIjEEE9__end_capB7v160006Ev, symObjAddr: 0x3D84, symBinAddr: 0x10001C980, symSize: 0x28 }
  - { offsetInCU: 0xE544, offset: 0x5FD21, size: 0x8, addend: 0x0, symName: __ZNKSt3__117__compressed_pairIPjNS_9allocatorIjEEE5firstB7v160006Ev, symObjAddr: 0x3DAC, symBinAddr: 0x10001C9A8, symSize: 0x24 }
  - { offsetInCU: 0xE56A, offset: 0x5FD47, size: 0x8, addend: 0x0, symName: __ZNKSt3__122__compressed_pair_elemIPjLi0ELb0EE5__getB7v160006Ev, symObjAddr: 0x3DD0, symBinAddr: 0x10001C9CC, symSize: 0x14 }
  - { offsetInCU: 0xE590, offset: 0x5FD6D, size: 0x8, addend: 0x0, symName: __ZNSt3__16vectorI7TextureNS_9allocatorIS1_EEED2B7v160006Ev, symObjAddr: 0x3DE4, symBinAddr: 0x10001C9E0, symSize: 0x44 }
  - { offsetInCU: 0xE5BA, offset: 0x5FD97, size: 0x8, addend: 0x0, symName: __ZNSt3__16vectorI7TextureNS_9allocatorIS1_EEE16__destroy_vectorC1ERS4_, symObjAddr: 0x3E28, symBinAddr: 0x10001CA24, symSize: 0x34 }
  - { offsetInCU: 0xE5F3, offset: 0x5FDD0, size: 0x8, addend: 0x0, symName: __ZNSt3__16vectorI7TextureNS_9allocatorIS1_EEE16__destroy_vectorclB7v160006Ev, symObjAddr: 0x3E5C, symBinAddr: 0x10001CA58, symSize: 0x9C }
  - { offsetInCU: 0xE619, offset: 0x5FDF6, size: 0x8, addend: 0x0, symName: __ZNSt3__16vectorI7TextureNS_9allocatorIS1_EEE16__destroy_vectorC2ERS4_, symObjAddr: 0x3EF8, symBinAddr: 0x10001CAF4, symSize: 0x20 }
  - { offsetInCU: 0xE652, offset: 0x5FE2F, size: 0x8, addend: 0x0, symName: __ZNKSt3__16vectorI7TextureNS_9allocatorIS1_EEE17__annotate_deleteB7v160006Ev, symObjAddr: 0x3F18, symBinAddr: 0x10001CB14, symSize: 0xD4 }
  - { offsetInCU: 0xE678, offset: 0x5FE55, size: 0x8, addend: 0x0, symName: __ZNSt3__16vectorI7TextureNS_9allocatorIS1_EEE7__clearB7v160006Ev, symObjAddr: 0x3FFC, symBinAddr: 0x10001CBF8, symSize: 0x28 }
  - { offsetInCU: 0xE69E, offset: 0x5FE7B, size: 0x8, addend: 0x0, symName: __ZNSt3__116allocator_traitsINS_9allocatorI7TextureEEE10deallocateB7v160006ERS3_PS2_m, symObjAddr: 0x4024, symBinAddr: 0x10001CC20, symSize: 0x34 }
  - { offsetInCU: 0xE6E0, offset: 0x5FEBD, size: 0x8, addend: 0x0, symName: __ZNSt3__16vectorI7TextureNS_9allocatorIS1_EEE7__allocB7v160006Ev, symObjAddr: 0x4058, symBinAddr: 0x10001CC54, symSize: 0x28 }
  - { offsetInCU: 0xE706, offset: 0x5FEE3, size: 0x8, addend: 0x0, symName: __ZNKSt3__16vectorI7TextureNS_9allocatorIS1_EEE8capacityB7v160006Ev, symObjAddr: 0x4080, symBinAddr: 0x10001CC7C, symSize: 0x40 }
  - { offsetInCU: 0xE72C, offset: 0x5FF09, size: 0x8, addend: 0x0, symName: __ZNKSt3__16vectorI7TextureNS_9allocatorIS1_EEE31__annotate_contiguous_containerB7v160006EPKvS6_S6_S6_, symObjAddr: 0x40C0, symBinAddr: 0x10001CCBC, symSize: 0x20 }
  - { offsetInCU: 0xE77E, offset: 0x5FF5B, size: 0x8, addend: 0x0, symName: __ZNKSt3__16vectorI7TextureNS_9allocatorIS1_EEE4dataB7v160006Ev, symObjAddr: 0x40E0, symBinAddr: 0x10001CCDC, symSize: 0x28 }
  - { offsetInCU: 0xE7A4, offset: 0x5FF81, size: 0x8, addend: 0x0, symName: __ZNSt3__16vectorI7TextureNS_9allocatorIS1_EEE22__base_destruct_at_endB7v160006EPS1_, symObjAddr: 0x411C, symBinAddr: 0x10001CD18, symSize: 0x8C }
  - { offsetInCU: 0xE7E8, offset: 0x5FFC5, size: 0x8, addend: 0x0, symName: __ZNSt3__116allocator_traitsINS_9allocatorI7TextureEEE7destroyB7v160006IS2_vEEvRS3_PT_, symObjAddr: 0x41A8, symBinAddr: 0x10001CDA4, symSize: 0x2C }
  - { offsetInCU: 0xE825, offset: 0x60002, size: 0x8, addend: 0x0, symName: __ZNSt3__19allocatorI7TextureE7destroyB7v160006EPS1_, symObjAddr: 0x41D4, symBinAddr: 0x10001CDD0, symSize: 0x14 }
  - { offsetInCU: 0xE859, offset: 0x60036, size: 0x8, addend: 0x0, symName: __ZNSt3__19allocatorI7TextureE10deallocateB7v160006EPS1_m, symObjAddr: 0x41E8, symBinAddr: 0x10001CDE4, symSize: 0x44 }
  - { offsetInCU: 0xE89B, offset: 0x60078, size: 0x8, addend: 0x0, symName: __ZNSt3__117__compressed_pairIP7TextureNS_9allocatorIS1_EEE6secondB7v160006Ev, symObjAddr: 0x422C, symBinAddr: 0x10001CE28, symSize: 0x24 }
  - { offsetInCU: 0xE8C1, offset: 0x6009E, size: 0x8, addend: 0x0, symName: __ZNSt3__122__compressed_pair_elemINS_9allocatorI7TextureEELi1ELb1EE5__getB7v160006Ev, symObjAddr: 0x4250, symBinAddr: 0x10001CE4C, symSize: 0x14 }
  - { offsetInCU: 0xE8E7, offset: 0x600C4, size: 0x8, addend: 0x0, symName: __ZNKSt3__16vectorI7TextureNS_9allocatorIS1_EEE9__end_capB7v160006Ev, symObjAddr: 0x4264, symBinAddr: 0x10001CE60, symSize: 0x28 }
  - { offsetInCU: 0xE90D, offset: 0x600EA, size: 0x8, addend: 0x0, symName: __ZNKSt3__117__compressed_pairIP7TextureNS_9allocatorIS1_EEE5firstB7v160006Ev, symObjAddr: 0x428C, symBinAddr: 0x10001CE88, symSize: 0x24 }
  - { offsetInCU: 0xE933, offset: 0x60110, size: 0x8, addend: 0x0, symName: __ZNKSt3__122__compressed_pair_elemIP7TextureLi0ELb0EE5__getB7v160006Ev, symObjAddr: 0x42B0, symBinAddr: 0x10001CEAC, symSize: 0x14 }
  - { offsetInCU: 0xE959, offset: 0x60136, size: 0x8, addend: 0x0, symName: __ZNSt3__16vectorI6VertexNS_9allocatorIS1_EEE19__copy_assign_allocB7v160006ERKS4_, symObjAddr: 0x42C4, symBinAddr: 0x10001CEC0, symSize: 0x2C }
  - { offsetInCU: 0xE98E, offset: 0x6016B, size: 0x8, addend: 0x0, symName: __ZNSt3__16vectorI6VertexNS_9allocatorIS1_EEE6assignIPS1_Li0EEEvT_S7_, symObjAddr: 0x42F0, symBinAddr: 0x10001CEEC, symSize: 0x17C }
  - { offsetInCU: 0xEA2D, offset: 0x6020A, size: 0x8, addend: 0x0, symName: __ZNSt3__16vectorI6VertexNS_9allocatorIS1_EEE19__copy_assign_allocB7v160006ERKS4_NS_17integral_constantIbLb0EEE, symObjAddr: 0x446C, symBinAddr: 0x10001D068, symSize: 0x14 }
  - { offsetInCU: 0xEA69, offset: 0x60246, size: 0x8, addend: 0x0, symName: __ZNSt3__16vectorI6VertexNS_9allocatorIS1_EEE18__construct_at_endIPS1_Li0EEEvT_S7_m, symObjAddr: 0x453C, symBinAddr: 0x10001D138, symSize: 0x8C }
  - { offsetInCU: 0xEADC, offset: 0x602B9, size: 0x8, addend: 0x0, symName: __ZNSt3__16vectorI6VertexNS_9allocatorIS1_EEE13__vdeallocateEv, symObjAddr: 0x4628, symBinAddr: 0x10001D1C4, symSize: 0x8C }
  - { offsetInCU: 0xEB04, offset: 0x602E1, size: 0x8, addend: 0x0, symName: __ZNSt3__16vectorI6VertexNS_9allocatorIS1_EEE11__vallocateB7v160006Em, symObjAddr: 0x46B4, symBinAddr: 0x10001D250, symSize: 0xB4 }
  - { offsetInCU: 0xEB6B, offset: 0x60348, size: 0x8, addend: 0x0, symName: __ZNKSt3__114__copy_trivialclB7v160006I6VertexS2_Li0EEENS_4pairIPT_PT0_EES5_S5_S7_, symObjAddr: 0x4A34, symBinAddr: 0x10001D50C, symSize: 0x48 }
  - { offsetInCU: 0xEBD8, offset: 0x603B5, size: 0x8, addend: 0x0, symName: __ZNSt3__14pairIP6VertexS2_EC1B7v160006IRS2_S2_LPv0EEEOT_OT0_, symObjAddr: 0x4C04, symBinAddr: 0x10001D6DC, symSize: 0x3C }
  - { offsetInCU: 0xEC36, offset: 0x60413, size: 0x8, addend: 0x0, symName: __ZNSt3__14pairIP6VertexS2_EC2B7v160006IRS2_S2_LPv0EEEOT_OT0_, symObjAddr: 0x4C40, symBinAddr: 0x10001D718, symSize: 0x34 }
  - { offsetInCU: 0xEC94, offset: 0x60471, size: 0x8, addend: 0x0, symName: __ZNSt3__118__unwrap_iter_implIP6VertexLb1EE8__unwrapB7v160006ES2_, symObjAddr: 0x4C74, symBinAddr: 0x10001D74C, symSize: 0x24 }
  - { offsetInCU: 0xECB7, offset: 0x60494, size: 0x8, addend: 0x0, symName: __ZNSt3__14pairIP6VertexS2_EC1B7v160006IS2_S2_LPv0EEEOT_OT0_, symObjAddr: 0x4C98, symBinAddr: 0x10001D770, symSize: 0x3C }
  - { offsetInCU: 0xED15, offset: 0x604F2, size: 0x8, addend: 0x0, symName: __ZNSt3__14pairIP6VertexS2_EC2B7v160006IS2_S2_LPv0EEEOT_OT0_, symObjAddr: 0x4CD4, symBinAddr: 0x10001D7AC, symSize: 0x34 }
  - { offsetInCU: 0xED73, offset: 0x60550, size: 0x8, addend: 0x0, symName: __ZNSt3__118__unwrap_iter_implIP6VertexLb1EE8__rewrapB7v160006ES2_S2_, symObjAddr: 0x4D08, symBinAddr: 0x10001D7E0, symSize: 0x58 }
  - { offsetInCU: 0xEDBD, offset: 0x6059A, size: 0x8, addend: 0x0, symName: __ZNSt3__129_AllocatorDestroyRangeReverseINS_9allocatorI6VertexEEPS2_EC1B7v160006ERS3_RS4_S7_, symObjAddr: 0x4F54, symBinAddr: 0x10001D978, symSize: 0x44 }
  - { offsetInCU: 0xEE14, offset: 0x605F1, size: 0x8, addend: 0x0, symName: __ZNSt3__116allocator_traitsINS_9allocatorI6VertexEEE9constructB7v160006IS2_JRS2_EvEEvRS3_PT_DpOT0_, symObjAddr: 0x4F98, symBinAddr: 0x10001D9BC, symSize: 0x34 }
  - { offsetInCU: 0xEE6B, offset: 0x60648, size: 0x8, addend: 0x0, symName: __ZNSt3__128__exception_guard_exceptionsINS_29_AllocatorDestroyRangeReverseINS_9allocatorI6VertexEEPS3_EEE10__completeB7v160006Ev, symObjAddr: 0x4FCC, symBinAddr: 0x10001D9F0, symSize: 0x1C }
  - { offsetInCU: 0xEE91, offset: 0x6066E, size: 0x8, addend: 0x0, symName: __ZNSt3__128__exception_guard_exceptionsINS_29_AllocatorDestroyRangeReverseINS_9allocatorI6VertexEEPS3_EEED1B7v160006Ev, symObjAddr: 0x4FE8, symBinAddr: 0x10001DA0C, symSize: 0x2C }
  - { offsetInCU: 0xEEBB, offset: 0x60698, size: 0x8, addend: 0x0, symName: __ZNSt3__128__exception_guard_exceptionsINS_29_AllocatorDestroyRangeReverseINS_9allocatorI6VertexEEPS3_EEEC1B7v160006ES6_, symObjAddr: 0x5014, symBinAddr: 0x10001DA38, symSize: 0x34 }
  - { offsetInCU: 0xEEF4, offset: 0x606D1, size: 0x8, addend: 0x0, symName: __ZNSt3__128__exception_guard_exceptionsINS_29_AllocatorDestroyRangeReverseINS_9allocatorI6VertexEEPS3_EEEC2B7v160006ES6_, symObjAddr: 0x5048, symBinAddr: 0x10001DA6C, symSize: 0x30 }
  - { offsetInCU: 0xEF2D, offset: 0x6070A, size: 0x8, addend: 0x0, symName: __ZNSt3__129_AllocatorDestroyRangeReverseINS_9allocatorI6VertexEEPS2_EC2B7v160006ERS3_RS4_S7_, symObjAddr: 0x5078, symBinAddr: 0x10001DA9C, symSize: 0x38 }
  - { offsetInCU: 0xEF84, offset: 0x60761, size: 0x8, addend: 0x0, symName: __ZNSt3__19allocatorI6VertexE9constructB7v160006IS1_JRS1_EEEvPT_DpOT0_, symObjAddr: 0x50B0, symBinAddr: 0x10001DAD4, symSize: 0x34 }
  - { offsetInCU: 0xEFDA, offset: 0x607B7, size: 0x8, addend: 0x0, symName: __ZNSt3__128__exception_guard_exceptionsINS_29_AllocatorDestroyRangeReverseINS_9allocatorI6VertexEEPS3_EEED2B7v160006Ev, symObjAddr: 0x50E4, symBinAddr: 0x10001DB08, symSize: 0x50 }
  - { offsetInCU: 0xF004, offset: 0x607E1, size: 0x8, addend: 0x0, symName: __ZNKSt3__129_AllocatorDestroyRangeReverseINS_9allocatorI6VertexEEPS2_EclB7v160006Ev, symObjAddr: 0x5134, symBinAddr: 0x10001DB58, symSize: 0x68 }
  - { offsetInCU: 0xF02F, offset: 0x6080C, size: 0x8, addend: 0x0, symName: __ZNSt3__119__to_address_helperINS_16reverse_iteratorIP6VertexEEvE6__callB7v160006ERKS4_, symObjAddr: 0x52E4, symBinAddr: 0x10001DC54, symSize: 0x38 }
  - { offsetInCU: 0xF052, offset: 0x6082F, size: 0x8, addend: 0x0, symName: __ZNKSt3__116reverse_iteratorIP6VertexEptB7v160006Ev, symObjAddr: 0x531C, symBinAddr: 0x10001DC8C, symSize: 0x24 }
  - { offsetInCU: 0xF078, offset: 0x60855, size: 0x8, addend: 0x0, symName: __ZNSt3__16vectorI6VertexNS_9allocatorIS1_EEE5clearB7v160006Ev, symObjAddr: 0x5494, symBinAddr: 0x10001DCB0, symSize: 0x54 }
  - { offsetInCU: 0xF0B7, offset: 0x60894, size: 0x8, addend: 0x0, symName: __ZNSt3__16vectorIjNS_9allocatorIjEEE19__copy_assign_allocB7v160006ERKS3_, symObjAddr: 0x5AE4, symBinAddr: 0x10001DD04, symSize: 0x2C }
  - { offsetInCU: 0xF0EC, offset: 0x608C9, size: 0x8, addend: 0x0, symName: __ZNSt3__16vectorIjNS_9allocatorIjEEE6assignIPjLi0EEEvT_S6_, symObjAddr: 0x5B10, symBinAddr: 0x10001DD30, symSize: 0x17C }
  - { offsetInCU: 0xF18B, offset: 0x60968, size: 0x8, addend: 0x0, symName: __ZNSt3__16vectorIjNS_9allocatorIjEEE19__copy_assign_allocB7v160006ERKS3_NS_17integral_constantIbLb0EEE, symObjAddr: 0x5C8C, symBinAddr: 0x10001DEAC, symSize: 0x14 }
  - { offsetInCU: 0xF1C7, offset: 0x609A4, size: 0x8, addend: 0x0, symName: __ZNSt3__16vectorIjNS_9allocatorIjEEE18__construct_at_endIPjLi0EEEvT_S6_m, symObjAddr: 0x5D5C, symBinAddr: 0x10001DF7C, symSize: 0x8C }
  - { offsetInCU: 0xF23A, offset: 0x60A17, size: 0x8, addend: 0x0, symName: __ZNSt3__16vectorIjNS_9allocatorIjEEE17__destruct_at_endB7v160006EPj, symObjAddr: 0x5DE8, symBinAddr: 0x10001E008, symSize: 0x60 }
  - { offsetInCU: 0xF27E, offset: 0x60A5B, size: 0x8, addend: 0x0, symName: __ZNSt3__16vectorIjNS_9allocatorIjEEE13__vdeallocateEv, symObjAddr: 0x5E48, symBinAddr: 0x10001E068, symSize: 0x8C }
  - { offsetInCU: 0xF2A6, offset: 0x60A83, size: 0x8, addend: 0x0, symName: __ZNSt3__16vectorIjNS_9allocatorIjEEE11__vallocateB7v160006Em, symObjAddr: 0x5ED4, symBinAddr: 0x10001E0F4, symSize: 0xAC }
  - { offsetInCU: 0xF2EA, offset: 0x60AC7, size: 0x8, addend: 0x0, symName: __ZNKSt3__16vectorIjNS_9allocatorIjEEE11__recommendB7v160006Em, symObjAddr: 0x5F80, symBinAddr: 0x10001E1A0, symSize: 0xB4 }
  - { offsetInCU: 0xF358, offset: 0x60B35, size: 0x8, addend: 0x0, symName: __ZNKSt3__114__copy_trivialclB7v160006IjjLi0EEENS_4pairIPT_PT0_EES4_S4_S6_, symObjAddr: 0x6230, symBinAddr: 0x10001E450, symSize: 0x48 }
  - { offsetInCU: 0xF3C5, offset: 0x60BA2, size: 0x8, addend: 0x0, symName: __ZNSt3__14pairIPjS1_EC1B7v160006IRS1_S1_LPv0EEEOT_OT0_, symObjAddr: 0x63F8, symBinAddr: 0x10001E618, symSize: 0x3C }
  - { offsetInCU: 0xF423, offset: 0x60C00, size: 0x8, addend: 0x0, symName: __ZNSt3__14pairIPjS1_EC2B7v160006IRS1_S1_LPv0EEEOT_OT0_, symObjAddr: 0x6434, symBinAddr: 0x10001E654, symSize: 0x34 }
  - { offsetInCU: 0xF481, offset: 0x60C5E, size: 0x8, addend: 0x0, symName: __ZNSt3__118__unwrap_iter_implIPjLb1EE8__unwrapB7v160006ES1_, symObjAddr: 0x6468, symBinAddr: 0x10001E688, symSize: 0x24 }
  - { offsetInCU: 0xF4A4, offset: 0x60C81, size: 0x8, addend: 0x0, symName: __ZNSt3__14pairIPjS1_EC1B7v160006IS1_S1_LPv0EEEOT_OT0_, symObjAddr: 0x648C, symBinAddr: 0x10001E6AC, symSize: 0x3C }
  - { offsetInCU: 0xF502, offset: 0x60CDF, size: 0x8, addend: 0x0, symName: __ZNSt3__14pairIPjS1_EC2B7v160006IS1_S1_LPv0EEEOT_OT0_, symObjAddr: 0x64C8, symBinAddr: 0x10001E6E8, symSize: 0x34 }
  - { offsetInCU: 0xF560, offset: 0x60D3D, size: 0x8, addend: 0x0, symName: __ZNSt3__118__unwrap_iter_implIPjLb1EE8__rewrapB7v160006ES1_S1_, symObjAddr: 0x64FC, symBinAddr: 0x10001E71C, symSize: 0x50 }
  - { offsetInCU: 0xF5AA, offset: 0x60D87, size: 0x8, addend: 0x0, symName: __ZNSt3__16vectorIjNS_9allocatorIjEEE21_ConstructTransactionC1B7v160006ERS3_m, symObjAddr: 0x654C, symBinAddr: 0x10001E76C, symSize: 0x3C }
  - { offsetInCU: 0xF5F2, offset: 0x60DCF, size: 0x8, addend: 0x0, symName: __ZNSt3__16vectorIjNS_9allocatorIjEEE21_ConstructTransactionD1B7v160006Ev, symObjAddr: 0x667C, symBinAddr: 0x10001E89C, symSize: 0x2C }
  - { offsetInCU: 0xF61C, offset: 0x60DF9, size: 0x8, addend: 0x0, symName: __ZNSt3__16vectorIjNS_9allocatorIjEEE21_ConstructTransactionC2B7v160006ERS3_m, symObjAddr: 0x66A8, symBinAddr: 0x10001E8C8, symSize: 0x44 }
  - { offsetInCU: 0xF664, offset: 0x60E41, size: 0x8, addend: 0x0, symName: __ZNSt3__129_AllocatorDestroyRangeReverseINS_9allocatorIjEEPjEC1B7v160006ERS2_RS3_S6_, symObjAddr: 0x6738, symBinAddr: 0x10001E958, symSize: 0x44 }
  - { offsetInCU: 0xF6BB, offset: 0x60E98, size: 0x8, addend: 0x0, symName: __ZNSt3__116allocator_traitsINS_9allocatorIjEEE9constructB7v160006IjJRjEvEEvRS2_PT_DpOT0_, symObjAddr: 0x677C, symBinAddr: 0x10001E99C, symSize: 0x34 }
  - { offsetInCU: 0xF712, offset: 0x60EEF, size: 0x8, addend: 0x0, symName: __ZNSt3__128__exception_guard_exceptionsINS_29_AllocatorDestroyRangeReverseINS_9allocatorIjEEPjEEE10__completeB7v160006Ev, symObjAddr: 0x67B0, symBinAddr: 0x10001E9D0, symSize: 0x1C }
  - { offsetInCU: 0xF738, offset: 0x60F15, size: 0x8, addend: 0x0, symName: __ZNSt3__128__exception_guard_exceptionsINS_29_AllocatorDestroyRangeReverseINS_9allocatorIjEEPjEEED1B7v160006Ev, symObjAddr: 0x67CC, symBinAddr: 0x10001E9EC, symSize: 0x2C }
  - { offsetInCU: 0xF762, offset: 0x60F3F, size: 0x8, addend: 0x0, symName: __ZNSt3__128__exception_guard_exceptionsINS_29_AllocatorDestroyRangeReverseINS_9allocatorIjEEPjEEEC1B7v160006ES5_, symObjAddr: 0x67F8, symBinAddr: 0x10001EA18, symSize: 0x34 }
  - { offsetInCU: 0xF79B, offset: 0x60F78, size: 0x8, addend: 0x0, symName: __ZNSt3__128__exception_guard_exceptionsINS_29_AllocatorDestroyRangeReverseINS_9allocatorIjEEPjEEEC2B7v160006ES5_, symObjAddr: 0x682C, symBinAddr: 0x10001EA4C, symSize: 0x30 }
  - { offsetInCU: 0xF7D4, offset: 0x60FB1, size: 0x8, addend: 0x0, symName: __ZNSt3__129_AllocatorDestroyRangeReverseINS_9allocatorIjEEPjEC2B7v160006ERS2_RS3_S6_, symObjAddr: 0x685C, symBinAddr: 0x10001EA7C, symSize: 0x38 }
  - { offsetInCU: 0xF82B, offset: 0x61008, size: 0x8, addend: 0x0, symName: __ZNSt3__19allocatorIjE9constructB7v160006IjJRjEEEvPT_DpOT0_, symObjAddr: 0x6894, symBinAddr: 0x10001EAB4, symSize: 0x28 }
  - { offsetInCU: 0xF881, offset: 0x6105E, size: 0x8, addend: 0x0, symName: __ZNSt3__128__exception_guard_exceptionsINS_29_AllocatorDestroyRangeReverseINS_9allocatorIjEEPjEEED2B7v160006Ev, symObjAddr: 0x68BC, symBinAddr: 0x10001EADC, symSize: 0x50 }
  - { offsetInCU: 0xF8AB, offset: 0x61088, size: 0x8, addend: 0x0, symName: __ZNKSt3__129_AllocatorDestroyRangeReverseINS_9allocatorIjEEPjEclB7v160006Ev, symObjAddr: 0x690C, symBinAddr: 0x10001EB2C, symSize: 0x68 }
  - { offsetInCU: 0xF8D1, offset: 0x610AE, size: 0x8, addend: 0x0, symName: __ZNSt3__116reverse_iteratorIPjEC1B7v160006ES1_, symObjAddr: 0x69E4, symBinAddr: 0x10001EC04, symSize: 0x34 }
  - { offsetInCU: 0xF909, offset: 0x610E6, size: 0x8, addend: 0x0, symName: __ZNSt3__116reverse_iteratorIPjEppB7v160006Ev, symObjAddr: 0x6A84, symBinAddr: 0x10001ECA4, symSize: 0x20 }
  - { offsetInCU: 0xF92F, offset: 0x6110C, size: 0x8, addend: 0x0, symName: __ZNKSt3__116reverse_iteratorIPjE4baseB7v160006Ev, symObjAddr: 0x6AA4, symBinAddr: 0x10001ECC4, symSize: 0x18 }
  - { offsetInCU: 0xF95A, offset: 0x61137, size: 0x8, addend: 0x0, symName: __ZNSt3__119__to_address_helperINS_16reverse_iteratorIPjEEvE6__callB7v160006ERKS3_, symObjAddr: 0x6ABC, symBinAddr: 0x10001ECDC, symSize: 0x38 }
  - { offsetInCU: 0xF97D, offset: 0x6115A, size: 0x8, addend: 0x0, symName: __ZNKSt3__116reverse_iteratorIPjEptB7v160006Ev, symObjAddr: 0x6AF4, symBinAddr: 0x10001ED14, symSize: 0x24 }
  - { offsetInCU: 0xF9A3, offset: 0x61180, size: 0x8, addend: 0x0, symName: __ZNKSt3__116reverse_iteratorIPjEdeB7v160006Ev, symObjAddr: 0x6B18, symBinAddr: 0x10001ED38, symSize: 0x28 }
  - { offsetInCU: 0xF9D7, offset: 0x611B4, size: 0x8, addend: 0x0, symName: __ZNSt3__116reverse_iteratorIPjEC2B7v160006ES1_, symObjAddr: 0x6B40, symBinAddr: 0x10001ED60, symSize: 0x28 }
  - { offsetInCU: 0xFA0F, offset: 0x611EC, size: 0x8, addend: 0x0, symName: __ZNSt3__16vectorIjNS_9allocatorIjEEE21_ConstructTransactionD2B7v160006Ev, symObjAddr: 0x6B68, symBinAddr: 0x10001ED88, symSize: 0x20 }
  - { offsetInCU: 0xFA39, offset: 0x61216, size: 0x8, addend: 0x0, symName: __ZNSt3__16vectorIjNS_9allocatorIjEEE27__invalidate_iterators_pastB7v160006EPj, symObjAddr: 0x6B88, symBinAddr: 0x10001EDA8, symSize: 0x14 }
  - { offsetInCU: 0xFA70, offset: 0x6124D, size: 0x8, addend: 0x0, symName: __ZNKSt3__16vectorIjNS_9allocatorIjEEE17__annotate_shrinkB7v160006Em, symObjAddr: 0x6B9C, symBinAddr: 0x10001EDBC, symSize: 0xB4 }
  - { offsetInCU: 0xFAA5, offset: 0x61282, size: 0x8, addend: 0x0, symName: __ZNSt3__16vectorIjNS_9allocatorIjEEE5clearB7v160006Ev, symObjAddr: 0x6C50, symBinAddr: 0x10001EE70, symSize: 0x54 }
  - { offsetInCU: 0xFADA, offset: 0x612B7, size: 0x8, addend: 0x0, symName: __ZNSt3__16vectorIjNS_9allocatorIjEEE9__end_capB7v160006Ev, symObjAddr: 0x6CA4, symBinAddr: 0x10001EEC4, symSize: 0x28 }
  - { offsetInCU: 0xFB00, offset: 0x612DD, size: 0x8, addend: 0x0, symName: __ZNSt3__117__compressed_pairIPjNS_9allocatorIjEEE5firstB7v160006Ev, symObjAddr: 0x6CCC, symBinAddr: 0x10001EEEC, symSize: 0x24 }
  - { offsetInCU: 0xFB26, offset: 0x61303, size: 0x8, addend: 0x0, symName: __ZNSt3__122__compressed_pair_elemIPjLi0ELb0EE5__getB7v160006Ev, symObjAddr: 0x6CF0, symBinAddr: 0x10001EF10, symSize: 0x14 }
  - { offsetInCU: 0xFB4C, offset: 0x61329, size: 0x8, addend: 0x0, symName: __ZNKSt3__16vectorIjNS_9allocatorIjEEE8max_sizeEv, symObjAddr: 0x6D04, symBinAddr: 0x10001EF24, symSize: 0x60 }
  - { offsetInCU: 0xFB74, offset: 0x61351, size: 0x8, addend: 0x0, symName: __ZNKSt3__16vectorIjNS_9allocatorIjEEE20__throw_length_errorB7v160006Ev, symObjAddr: 0x6D64, symBinAddr: 0x10001EF84, symSize: 0x1C }
  - { offsetInCU: 0xFB9A, offset: 0x61377, size: 0x8, addend: 0x0, symName: __ZNKSt3__16vectorIjNS_9allocatorIjEEE14__annotate_newB7v160006Em, symObjAddr: 0x6DC0, symBinAddr: 0x10001EFE0, symSize: 0xAC }
  - { offsetInCU: 0xFBD9, offset: 0x613B6, size: 0x8, addend: 0x0, symName: __ZNSt3__116allocator_traitsINS_9allocatorIjEEE8max_sizeB7v160006IS2_vEEmRKS2_, symObjAddr: 0x6E6C, symBinAddr: 0x10001F08C, symSize: 0x24 }
  - { offsetInCU: 0xFC07, offset: 0x613E4, size: 0x8, addend: 0x0, symName: __ZNKSt3__16vectorIjNS_9allocatorIjEEE7__allocB7v160006Ev, symObjAddr: 0x6E90, symBinAddr: 0x10001F0B0, symSize: 0x28 }
  - { offsetInCU: 0xFC2D, offset: 0x6140A, size: 0x8, addend: 0x0, symName: __ZNKSt3__19allocatorIjE8max_sizeB7v160006Ev, symObjAddr: 0x6EB8, symBinAddr: 0x10001F0D8, symSize: 0x14 }
  - { offsetInCU: 0xFC53, offset: 0x61430, size: 0x8, addend: 0x0, symName: __ZNKSt3__117__compressed_pairIPjNS_9allocatorIjEEE6secondB7v160006Ev, symObjAddr: 0x6ECC, symBinAddr: 0x10001F0EC, symSize: 0x24 }
  - { offsetInCU: 0xFC79, offset: 0x61456, size: 0x8, addend: 0x0, symName: __ZNKSt3__122__compressed_pair_elemINS_9allocatorIjEELi1ELb1EE5__getB7v160006Ev, symObjAddr: 0x6EF0, symBinAddr: 0x10001F110, symSize: 0x14 }
  - { offsetInCU: 0xFC9F, offset: 0x6147C, size: 0x8, addend: 0x0, symName: __ZNSt3__19allocatorIjE8allocateB7v160006Em, symObjAddr: 0x6F04, symBinAddr: 0x10001F124, symSize: 0x58 }
  - { offsetInCU: 0xFCD3, offset: 0x614B0, size: 0x8, addend: 0x0, symName: __ZNSt3__16vectorI7TextureNS_9allocatorIS1_EEE19__copy_assign_allocB7v160006ERKS4_, symObjAddr: 0x6F5C, symBinAddr: 0x10001F17C, symSize: 0x2C }
  - { offsetInCU: 0xFD08, offset: 0x614E5, size: 0x8, addend: 0x0, symName: __ZNSt3__16vectorI7TextureNS_9allocatorIS1_EEE6assignIPS1_Li0EEEvT_S7_, symObjAddr: 0x6F88, symBinAddr: 0x10001F1A8, symSize: 0x17C }
  - { offsetInCU: 0xFDA7, offset: 0x61584, size: 0x8, addend: 0x0, symName: __ZNSt3__16vectorI7TextureNS_9allocatorIS1_EEE19__copy_assign_allocB7v160006ERKS4_NS_17integral_constantIbLb0EEE, symObjAddr: 0x7104, symBinAddr: 0x10001F324, symSize: 0x14 }
  - { offsetInCU: 0xFDE3, offset: 0x615C0, size: 0x8, addend: 0x0, symName: __ZNSt3__16vectorI7TextureNS_9allocatorIS1_EEE18__construct_at_endIPS1_Li0EEEvT_S7_m, symObjAddr: 0x71D4, symBinAddr: 0x10001F3F4, symSize: 0x8C }
  - { offsetInCU: 0xFE56, offset: 0x61633, size: 0x8, addend: 0x0, symName: __ZNSt3__16vectorI7TextureNS_9allocatorIS1_EEE17__destruct_at_endB7v160006EPS1_, symObjAddr: 0x7260, symBinAddr: 0x10001F480, symSize: 0x60 }
  - { offsetInCU: 0xFE9A, offset: 0x61677, size: 0x8, addend: 0x0, symName: __ZNSt3__16vectorI7TextureNS_9allocatorIS1_EEE13__vdeallocateEv, symObjAddr: 0x72C0, symBinAddr: 0x10001F4E0, symSize: 0x8C }
  - { offsetInCU: 0xFEC2, offset: 0x6169F, size: 0x8, addend: 0x0, symName: __ZNSt3__16vectorI7TextureNS_9allocatorIS1_EEE11__vallocateB7v160006Em, symObjAddr: 0x734C, symBinAddr: 0x10001F56C, symSize: 0xB4 }
  - { offsetInCU: 0xFF06, offset: 0x616E3, size: 0x8, addend: 0x0, symName: __ZNKSt3__16vectorI7TextureNS_9allocatorIS1_EEE11__recommendB7v160006Em, symObjAddr: 0x7400, symBinAddr: 0x10001F620, symSize: 0xB4 }
  - { offsetInCU: 0xFF74, offset: 0x61751, size: 0x8, addend: 0x0, symName: __ZNKSt3__114__copy_trivialclB7v160006I7TextureS2_Li0EEENS_4pairIPT_PT0_EES5_S5_S7_, symObjAddr: 0x76B8, symBinAddr: 0x10001F8D8, symSize: 0x48 }
  - { offsetInCU: 0xFFE1, offset: 0x617BE, size: 0x8, addend: 0x0, symName: __ZNSt3__14pairIP7TextureS2_EC1B7v160006IRS2_S2_LPv0EEEOT_OT0_, symObjAddr: 0x7888, symBinAddr: 0x10001FAA8, symSize: 0x3C }
  - { offsetInCU: 0x1003F, offset: 0x6181C, size: 0x8, addend: 0x0, symName: __ZNSt3__14pairIP7TextureS2_EC2B7v160006IRS2_S2_LPv0EEEOT_OT0_, symObjAddr: 0x78C4, symBinAddr: 0x10001FAE4, symSize: 0x34 }
  - { offsetInCU: 0x1009D, offset: 0x6187A, size: 0x8, addend: 0x0, symName: __ZNSt3__118__unwrap_iter_implIP7TextureLb1EE8__unwrapB7v160006ES2_, symObjAddr: 0x78F8, symBinAddr: 0x10001FB18, symSize: 0x24 }
  - { offsetInCU: 0x100C0, offset: 0x6189D, size: 0x8, addend: 0x0, symName: __ZNSt3__14pairIP7TextureS2_EC1B7v160006IS2_S2_LPv0EEEOT_OT0_, symObjAddr: 0x791C, symBinAddr: 0x10001FB3C, symSize: 0x3C }
  - { offsetInCU: 0x1011E, offset: 0x618FB, size: 0x8, addend: 0x0, symName: __ZNSt3__14pairIP7TextureS2_EC2B7v160006IS2_S2_LPv0EEEOT_OT0_, symObjAddr: 0x7958, symBinAddr: 0x10001FB78, symSize: 0x34 }
  - { offsetInCU: 0x1017C, offset: 0x61959, size: 0x8, addend: 0x0, symName: __ZNSt3__118__unwrap_iter_implIP7TextureLb1EE8__rewrapB7v160006ES2_S2_, symObjAddr: 0x798C, symBinAddr: 0x10001FBAC, symSize: 0x58 }
  - { offsetInCU: 0x101C6, offset: 0x619A3, size: 0x8, addend: 0x0, symName: __ZNSt3__16vectorI7TextureNS_9allocatorIS1_EEE21_ConstructTransactionC1B7v160006ERS4_m, symObjAddr: 0x79E4, symBinAddr: 0x10001FC04, symSize: 0x3C }
  - { offsetInCU: 0x1020E, offset: 0x619EB, size: 0x8, addend: 0x0, symName: __ZNSt3__16vectorI7TextureNS_9allocatorIS1_EEE21_ConstructTransactionD1B7v160006Ev, symObjAddr: 0x7B14, symBinAddr: 0x10001FD34, symSize: 0x2C }
  - { offsetInCU: 0x10238, offset: 0x61A15, size: 0x8, addend: 0x0, symName: __ZNSt3__16vectorI7TextureNS_9allocatorIS1_EEE21_ConstructTransactionC2B7v160006ERS4_m, symObjAddr: 0x7B40, symBinAddr: 0x10001FD60, symSize: 0x4C }
  - { offsetInCU: 0x10280, offset: 0x61A5D, size: 0x8, addend: 0x0, symName: __ZNSt3__129_AllocatorDestroyRangeReverseINS_9allocatorI7TextureEEPS2_EC1B7v160006ERS3_RS4_S7_, symObjAddr: 0x7BD8, symBinAddr: 0x10001FDF8, symSize: 0x44 }
  - { offsetInCU: 0x102D7, offset: 0x61AB4, size: 0x8, addend: 0x0, symName: __ZNSt3__116allocator_traitsINS_9allocatorI7TextureEEE9constructB7v160006IS2_JRS2_EvEEvRS3_PT_DpOT0_, symObjAddr: 0x7C1C, symBinAddr: 0x10001FE3C, symSize: 0x34 }
  - { offsetInCU: 0x1032E, offset: 0x61B0B, size: 0x8, addend: 0x0, symName: __ZNSt3__128__exception_guard_exceptionsINS_29_AllocatorDestroyRangeReverseINS_9allocatorI7TextureEEPS3_EEE10__completeB7v160006Ev, symObjAddr: 0x7C50, symBinAddr: 0x10001FE70, symSize: 0x1C }
  - { offsetInCU: 0x10354, offset: 0x61B31, size: 0x8, addend: 0x0, symName: __ZNSt3__128__exception_guard_exceptionsINS_29_AllocatorDestroyRangeReverseINS_9allocatorI7TextureEEPS3_EEED1B7v160006Ev, symObjAddr: 0x7C6C, symBinAddr: 0x10001FE8C, symSize: 0x2C }
  - { offsetInCU: 0x1037E, offset: 0x61B5B, size: 0x8, addend: 0x0, symName: __ZNSt3__128__exception_guard_exceptionsINS_29_AllocatorDestroyRangeReverseINS_9allocatorI7TextureEEPS3_EEEC1B7v160006ES6_, symObjAddr: 0x7C98, symBinAddr: 0x10001FEB8, symSize: 0x34 }
  - { offsetInCU: 0x103B7, offset: 0x61B94, size: 0x8, addend: 0x0, symName: __ZNSt3__128__exception_guard_exceptionsINS_29_AllocatorDestroyRangeReverseINS_9allocatorI7TextureEEPS3_EEEC2B7v160006ES6_, symObjAddr: 0x7CCC, symBinAddr: 0x10001FEEC, symSize: 0x30 }
  - { offsetInCU: 0x103F0, offset: 0x61BCD, size: 0x8, addend: 0x0, symName: __ZNSt3__129_AllocatorDestroyRangeReverseINS_9allocatorI7TextureEEPS2_EC2B7v160006ERS3_RS4_S7_, symObjAddr: 0x7CFC, symBinAddr: 0x10001FF1C, symSize: 0x38 }
  - { offsetInCU: 0x10447, offset: 0x61C24, size: 0x8, addend: 0x0, symName: __ZNSt3__19allocatorI7TextureE9constructB7v160006IS1_JRS1_EEEvPT_DpOT0_, symObjAddr: 0x7D34, symBinAddr: 0x10001FF54, symSize: 0x30 }
  - { offsetInCU: 0x1049D, offset: 0x61C7A, size: 0x8, addend: 0x0, symName: __ZNSt3__128__exception_guard_exceptionsINS_29_AllocatorDestroyRangeReverseINS_9allocatorI7TextureEEPS3_EEED2B7v160006Ev, symObjAddr: 0x7D64, symBinAddr: 0x10001FF84, symSize: 0x50 }
  - { offsetInCU: 0x104C7, offset: 0x61CA4, size: 0x8, addend: 0x0, symName: __ZNKSt3__129_AllocatorDestroyRangeReverseINS_9allocatorI7TextureEEPS2_EclB7v160006Ev, symObjAddr: 0x7DB4, symBinAddr: 0x10001FFD4, symSize: 0x68 }
  - { offsetInCU: 0x104ED, offset: 0x61CCA, size: 0x8, addend: 0x0, symName: __ZNSt3__116reverse_iteratorIP7TextureEC1B7v160006ES2_, symObjAddr: 0x7E8C, symBinAddr: 0x1000200AC, symSize: 0x34 }
  - { offsetInCU: 0x10525, offset: 0x61D02, size: 0x8, addend: 0x0, symName: __ZNSt3__116reverse_iteratorIP7TextureEppB7v160006Ev, symObjAddr: 0x7F2C, symBinAddr: 0x10002014C, symSize: 0x20 }
  - { offsetInCU: 0x1054B, offset: 0x61D28, size: 0x8, addend: 0x0, symName: __ZNKSt3__116reverse_iteratorIP7TextureE4baseB7v160006Ev, symObjAddr: 0x7F4C, symBinAddr: 0x10002016C, symSize: 0x18 }
  - { offsetInCU: 0x10576, offset: 0x61D53, size: 0x8, addend: 0x0, symName: __ZNSt3__119__to_address_helperINS_16reverse_iteratorIP7TextureEEvE6__callB7v160006ERKS4_, symObjAddr: 0x7F64, symBinAddr: 0x100020184, symSize: 0x38 }
  - { offsetInCU: 0x10599, offset: 0x61D76, size: 0x8, addend: 0x0, symName: __ZNKSt3__116reverse_iteratorIP7TextureEptB7v160006Ev, symObjAddr: 0x7F9C, symBinAddr: 0x1000201BC, symSize: 0x24 }
  - { offsetInCU: 0x105BF, offset: 0x61D9C, size: 0x8, addend: 0x0, symName: __ZNKSt3__116reverse_iteratorIP7TextureEdeB7v160006Ev, symObjAddr: 0x7FC0, symBinAddr: 0x1000201E0, symSize: 0x28 }
  - { offsetInCU: 0x105F3, offset: 0x61DD0, size: 0x8, addend: 0x0, symName: __ZNSt3__116reverse_iteratorIP7TextureEC2B7v160006ES2_, symObjAddr: 0x7FE8, symBinAddr: 0x100020208, symSize: 0x28 }
  - { offsetInCU: 0x1062B, offset: 0x61E08, size: 0x8, addend: 0x0, symName: __ZNSt3__16vectorI7TextureNS_9allocatorIS1_EEE21_ConstructTransactionD2B7v160006Ev, symObjAddr: 0x8010, symBinAddr: 0x100020230, symSize: 0x20 }
  - { offsetInCU: 0x10655, offset: 0x61E32, size: 0x8, addend: 0x0, symName: __ZNSt3__16vectorI7TextureNS_9allocatorIS1_EEE27__invalidate_iterators_pastB7v160006EPS1_, symObjAddr: 0x8030, symBinAddr: 0x100020250, symSize: 0x14 }
  - { offsetInCU: 0x1068C, offset: 0x61E69, size: 0x8, addend: 0x0, symName: __ZNKSt3__16vectorI7TextureNS_9allocatorIS1_EEE17__annotate_shrinkB7v160006Em, symObjAddr: 0x8044, symBinAddr: 0x100020264, symSize: 0xD0 }
  - { offsetInCU: 0x106C1, offset: 0x61E9E, size: 0x8, addend: 0x0, symName: __ZNSt3__16vectorI7TextureNS_9allocatorIS1_EEE5clearB7v160006Ev, symObjAddr: 0x8114, symBinAddr: 0x100020334, symSize: 0x54 }
  - { offsetInCU: 0x106F6, offset: 0x61ED3, size: 0x8, addend: 0x0, symName: __ZNSt3__16vectorI7TextureNS_9allocatorIS1_EEE9__end_capB7v160006Ev, symObjAddr: 0x8168, symBinAddr: 0x100020388, symSize: 0x28 }
  - { offsetInCU: 0x1071C, offset: 0x61EF9, size: 0x8, addend: 0x0, symName: __ZNSt3__117__compressed_pairIP7TextureNS_9allocatorIS1_EEE5firstB7v160006Ev, symObjAddr: 0x8190, symBinAddr: 0x1000203B0, symSize: 0x24 }
  - { offsetInCU: 0x10742, offset: 0x61F1F, size: 0x8, addend: 0x0, symName: __ZNSt3__122__compressed_pair_elemIP7TextureLi0ELb0EE5__getB7v160006Ev, symObjAddr: 0x81B4, symBinAddr: 0x1000203D4, symSize: 0x14 }
  - { offsetInCU: 0x10768, offset: 0x61F45, size: 0x8, addend: 0x0, symName: __ZNKSt3__16vectorI7TextureNS_9allocatorIS1_EEE8max_sizeEv, symObjAddr: 0x81C8, symBinAddr: 0x1000203E8, symSize: 0x60 }
  - { offsetInCU: 0x10790, offset: 0x61F6D, size: 0x8, addend: 0x0, symName: __ZNKSt3__16vectorI7TextureNS_9allocatorIS1_EEE20__throw_length_errorB7v160006Ev, symObjAddr: 0x8228, symBinAddr: 0x100020448, symSize: 0x1C }
  - { offsetInCU: 0x107B6, offset: 0x61F93, size: 0x8, addend: 0x0, symName: __ZNKSt3__16vectorI7TextureNS_9allocatorIS1_EEE14__annotate_newB7v160006Em, symObjAddr: 0x8284, symBinAddr: 0x1000204A4, symSize: 0xC8 }
  - { offsetInCU: 0x107F5, offset: 0x61FD2, size: 0x8, addend: 0x0, symName: __ZNSt3__116allocator_traitsINS_9allocatorI7TextureEEE8max_sizeB7v160006IS3_vEEmRKS3_, symObjAddr: 0x834C, symBinAddr: 0x10002056C, symSize: 0x24 }
  - { offsetInCU: 0x10823, offset: 0x62000, size: 0x8, addend: 0x0, symName: __ZNKSt3__16vectorI7TextureNS_9allocatorIS1_EEE7__allocB7v160006Ev, symObjAddr: 0x8370, symBinAddr: 0x100020590, symSize: 0x28 }
  - { offsetInCU: 0x10849, offset: 0x62026, size: 0x8, addend: 0x0, symName: __ZNKSt3__19allocatorI7TextureE8max_sizeB7v160006Ev, symObjAddr: 0x8398, symBinAddr: 0x1000205B8, symSize: 0x18 }
  - { offsetInCU: 0x1086F, offset: 0x6204C, size: 0x8, addend: 0x0, symName: __ZNKSt3__117__compressed_pairIP7TextureNS_9allocatorIS1_EEE6secondB7v160006Ev, symObjAddr: 0x83B0, symBinAddr: 0x1000205D0, symSize: 0x24 }
  - { offsetInCU: 0x10895, offset: 0x62072, size: 0x8, addend: 0x0, symName: __ZNKSt3__122__compressed_pair_elemINS_9allocatorI7TextureEELi1ELb1EE5__getB7v160006Ev, symObjAddr: 0x83D4, symBinAddr: 0x1000205F4, symSize: 0x14 }
  - { offsetInCU: 0x108BB, offset: 0x62098, size: 0x8, addend: 0x0, symName: __ZNSt3__19allocatorI7TextureE8allocateB7v160006Em, symObjAddr: 0x83E8, symBinAddr: 0x100020608, symSize: 0x5C }
  - { offsetInCU: 0x108EF, offset: 0x620CC, size: 0x8, addend: 0x0, symName: __ZNSt3__112basic_stringIcNS_11char_traitsIcEENS_9allocatorIcEEEC2B7v160006IDnEEPKc, symObjAddr: 0x8444, symBinAddr: 0x100020664, symSize: 0x60 }
  - { offsetInCU: 0x1092D, offset: 0x6210A, size: 0x8, addend: 0x0, symName: __ZNKSt3__112basic_stringIcNS_11char_traitsIcEENS_9allocatorIcEEE4sizeB7v160006Ev, symObjAddr: 0x84FC, symBinAddr: 0x1000206C4, symSize: 0x54 }
  - { offsetInCU: 0x10953, offset: 0x62130, size: 0x8, addend: 0x0, symName: __ZNKSt3__112basic_stringIcNS_11char_traitsIcEENS_9allocatorIcEEE15__get_long_sizeB7v160006Ev, symObjAddr: 0x8550, symBinAddr: 0x100020718, symSize: 0x28 }
  - { offsetInCU: 0x10979, offset: 0x62156, size: 0x8, addend: 0x0, symName: __ZNKSt3__112basic_stringIcNS_11char_traitsIcEENS_9allocatorIcEEE16__get_short_sizeB7v160006Ev, symObjAddr: 0x8578, symBinAddr: 0x100020740, symSize: 0x34 }
  - { offsetInCU: 0x109AE, offset: 0x6218B, size: 0x8, addend: 0x0, symName: __ZNSt3__116allocator_traitsINS_9allocatorIcEEE37select_on_container_copy_constructionB7v160006IS2_vvEES2_RKS2_, symObjAddr: 0x8E70, symBinAddr: 0x100020774, symSize: 0x10 }
  - { offsetInCU: 0x109DD, offset: 0x621BA, size: 0x8, addend: 0x0, symName: __ZNKSt3__112basic_stringIcNS_11char_traitsIcEENS_9allocatorIcEEE13get_allocatorB7v160006Ev, symObjAddr: 0x8E80, symBinAddr: 0x100020784, symSize: 0x24 }
  - { offsetInCU: 0x10A03, offset: 0x621E0, size: 0x8, addend: 0x0, symName: __ZNSt3__112basic_stringIcNS_11char_traitsIcEENS_9allocatorIcEEEC1B7v160006ENS_24__uninitialized_size_tagEmRKS4_, symObjAddr: 0x8EA4, symBinAddr: 0x1000207A8, symSize: 0x3C }
  - { offsetInCU: 0x10A56, offset: 0x62233, size: 0x8, addend: 0x0, symName: __ZNSt3__111char_traitsIcE4copyEPcPKcm, symObjAddr: 0x8EE0, symBinAddr: 0x1000207E4, symSize: 0x5C }
  - { offsetInCU: 0x10A95, offset: 0x62272, size: 0x8, addend: 0x0, symName: __ZNSt3__111char_traitsIcE6assignEPcmc, symObjAddr: 0x8F3C, symBinAddr: 0x100020840, symSize: 0x44 }
  - { offsetInCU: 0x10AD4, offset: 0x622B1, size: 0x8, addend: 0x0, symName: __ZNKSt3__112basic_stringIcNS_11char_traitsIcEENS_9allocatorIcEEE7__allocB7v160006Ev, symObjAddr: 0x8F80, symBinAddr: 0x100020884, symSize: 0x24 }
  - { offsetInCU: 0x10AFA, offset: 0x622D7, size: 0x8, addend: 0x0, symName: __ZNKSt3__117__compressed_pairINS_12basic_stringIcNS_11char_traitsIcEENS_9allocatorIcEEE5__repES5_E6secondB7v160006Ev, symObjAddr: 0x8FA4, symBinAddr: 0x1000208A8, symSize: 0x24 }
  - { offsetInCU: 0x10B20, offset: 0x622FD, size: 0x8, addend: 0x0, symName: __ZNKSt3__122__compressed_pair_elemINS_9allocatorIcEELi1ELb1EE5__getB7v160006Ev, symObjAddr: 0x8FC8, symBinAddr: 0x1000208CC, symSize: 0x14 }
  - { offsetInCU: 0x10B46, offset: 0x62323, size: 0x8, addend: 0x0, symName: __ZNSt3__112basic_stringIcNS_11char_traitsIcEENS_9allocatorIcEEEC2B7v160006ENS_24__uninitialized_size_tagEmRKS4_, symObjAddr: 0x8FDC, symBinAddr: 0x1000208E0, symSize: 0x118 }
  - { offsetInCU: 0x10BC5, offset: 0x623A2, size: 0x8, addend: 0x0, symName: __ZNSt3__117__compressed_pairINS_12basic_stringIcNS_11char_traitsIcEENS_9allocatorIcEEE5__repES5_EC1B7v160006INS_18__default_init_tagERKS5_EEOT_OT0_, symObjAddr: 0x90F4, symBinAddr: 0x1000209F8, symSize: 0x3C }
  - { offsetInCU: 0x10C1D, offset: 0x623FA, size: 0x8, addend: 0x0, symName: __ZNKSt3__112basic_stringIcNS_11char_traitsIcEENS_9allocatorIcEEE8max_sizeB7v160006Ev, symObjAddr: 0x9130, symBinAddr: 0x100020A34, symSize: 0xAC }
  - { offsetInCU: 0x10C6F, offset: 0x6244C, size: 0x8, addend: 0x0, symName: __ZNKSt3__112basic_stringIcNS_11char_traitsIcEENS_9allocatorIcEEE20__throw_length_errorB7v160006Ev, symObjAddr: 0x91DC, symBinAddr: 0x100020AE0, symSize: 0x1C }
  - { offsetInCU: 0x10C95, offset: 0x62472, size: 0x8, addend: 0x0, symName: __ZNSt3__112basic_stringIcNS_11char_traitsIcEENS_9allocatorIcEEE13__fits_in_ssoB7v160006Em, symObjAddr: 0x91F8, symBinAddr: 0x100020AFC, symSize: 0x20 }
  - { offsetInCU: 0x10CB9, offset: 0x62496, size: 0x8, addend: 0x0, symName: __ZNSt3__112basic_stringIcNS_11char_traitsIcEENS_9allocatorIcEEE11__recommendB7v160006Em, symObjAddr: 0x9218, symBinAddr: 0x100020B1C, symSize: 0x84 }
  - { offsetInCU: 0x10CEC, offset: 0x624C9, size: 0x8, addend: 0x0, symName: __ZNSt3__116allocator_traitsINS_9allocatorIcEEE8allocateB7v160006ERS2_m, symObjAddr: 0x929C, symBinAddr: 0x100020BA0, symSize: 0x2C }
  - { offsetInCU: 0x10D1F, offset: 0x624FC, size: 0x8, addend: 0x0, symName: __ZNSt3__112basic_stringIcNS_11char_traitsIcEENS_9allocatorIcEEE16__begin_lifetimeB7v160006EPcm, symObjAddr: 0x92C8, symBinAddr: 0x100020BCC, symSize: 0x14 }
  - { offsetInCU: 0x10D52, offset: 0x6252F, size: 0x8, addend: 0x0, symName: __ZNSt3__112basic_stringIcNS_11char_traitsIcEENS_9allocatorIcEEE14__set_long_capB7v160006Em, symObjAddr: 0x92DC, symBinAddr: 0x100020BE0, symSize: 0x70 }
  - { offsetInCU: 0x10D87, offset: 0x62564, size: 0x8, addend: 0x0, symName: __ZNSt3__112basic_stringIcNS_11char_traitsIcEENS_9allocatorIcEEE18__set_long_pointerB7v160006EPc, symObjAddr: 0x934C, symBinAddr: 0x100020C50, symSize: 0x38 }
  - { offsetInCU: 0x10DBC, offset: 0x62599, size: 0x8, addend: 0x0, symName: __ZNSt3__112basic_stringIcNS_11char_traitsIcEENS_9allocatorIcEEE15__set_long_sizeB7v160006Em, symObjAddr: 0x9384, symBinAddr: 0x100020C88, symSize: 0x38 }
  - { offsetInCU: 0x10DF1, offset: 0x625CE, size: 0x8, addend: 0x0, symName: __ZNSt3__117__compressed_pairINS_12basic_stringIcNS_11char_traitsIcEENS_9allocatorIcEEE5__repES5_EC2B7v160006INS_18__default_init_tagERKS5_EEOT_OT0_, symObjAddr: 0x93BC, symBinAddr: 0x100020CC0, symSize: 0x40 }
  - { offsetInCU: 0x10E49, offset: 0x62626, size: 0x8, addend: 0x0, symName: __ZNSt3__122__compressed_pair_elemINS_9allocatorIcEELi1ELb1EEC2B7v160006IRKS2_vEEOT_, symObjAddr: 0x93FC, symBinAddr: 0x100020D00, symSize: 0x18 }
  - { offsetInCU: 0x10E8B, offset: 0x62668, size: 0x8, addend: 0x0, symName: __ZNSt3__116allocator_traitsINS_9allocatorIcEEE8max_sizeB7v160006IS2_vEEmRKS2_, symObjAddr: 0x9414, symBinAddr: 0x100020D18, symSize: 0x24 }
  - { offsetInCU: 0x10EB9, offset: 0x62696, size: 0x8, addend: 0x0, symName: __ZNSt3__114numeric_limitsImE3maxB7v160006Ev, symObjAddr: 0x9438, symBinAddr: 0x100020D3C, symSize: 0x14 }
  - { offsetInCU: 0x10ECD, offset: 0x626AA, size: 0x8, addend: 0x0, symName: __ZNKSt3__19allocatorIcE8max_sizeB7v160006Ev, symObjAddr: 0x944C, symBinAddr: 0x100020D50, symSize: 0x14 }
  - { offsetInCU: 0x10EF3, offset: 0x626D0, size: 0x8, addend: 0x0, symName: __ZNSt3__123__libcpp_numeric_limitsImLb1EE3maxB7v160006Ev, symObjAddr: 0x9460, symBinAddr: 0x100020D64, symSize: 0x8 }
  - { offsetInCU: 0x10F07, offset: 0x626E4, size: 0x8, addend: 0x0, symName: __ZNSt3__112basic_stringIcNS_11char_traitsIcEENS_9allocatorIcEEE10__align_itB7v160006ILm16EEEmm, symObjAddr: 0x9468, symBinAddr: 0x100020D6C, symSize: 0x1C }
  - { offsetInCU: 0x10F35, offset: 0x62712, size: 0x8, addend: 0x0, symName: __ZNSt3__19allocatorIcE8allocateB7v160006Em, symObjAddr: 0x9484, symBinAddr: 0x100020D88, symSize: 0x58 }
  - { offsetInCU: 0x10F82, offset: 0x6275F, size: 0x8, addend: 0x0, symName: __ZNKSt3__114__copy_trivialclB7v160006IKccLi0EEENS_4pairIPT_PT0_EES5_S5_S7_, symObjAddr: 0x96FC, symBinAddr: 0x100021000, symSize: 0x48 }
  - { offsetInCU: 0x11008, offset: 0x627E5, size: 0x8, addend: 0x0, symName: __ZNSt3__14pairIPKcS2_EC1B7v160006IS2_S2_LPv0EEEOT_OT0_, symObjAddr: 0x9864, symBinAddr: 0x100021168, symSize: 0x3C }
  - { offsetInCU: 0x11066, offset: 0x62843, size: 0x8, addend: 0x0, symName: __ZNSt3__14pairIPKcS2_EC2B7v160006IS2_S2_LPv0EEEOT_OT0_, symObjAddr: 0x98A0, symBinAddr: 0x1000211A4, symSize: 0x34 }
  - { offsetInCU: 0x110C4, offset: 0x628A1, size: 0x8, addend: 0x0, symName: __ZNSt3__118__unwrap_iter_implIPKcLb1EE8__unwrapB7v160006ES2_, symObjAddr: 0x98D4, symBinAddr: 0x1000211D8, symSize: 0x24 }
  - { offsetInCU: 0x110F1, offset: 0x628CE, size: 0x8, addend: 0x0, symName: __ZNSt3__14pairIPKcPcEC1B7v160006IRS2_S3_LPv0EEEOT_OT0_, symObjAddr: 0x99AC, symBinAddr: 0x1000212B0, symSize: 0x3C }
  - { offsetInCU: 0x1114F, offset: 0x6292C, size: 0x8, addend: 0x0, symName: __ZNSt3__14pairIPKcPcEC2B7v160006IRS2_S3_LPv0EEEOT_OT0_, symObjAddr: 0x99E8, symBinAddr: 0x1000212EC, symSize: 0x34 }
  - { offsetInCU: 0x111AD, offset: 0x6298A, size: 0x8, addend: 0x0, symName: __ZNSt3__118__unwrap_iter_implIPcLb1EE8__unwrapB7v160006ES1_, symObjAddr: 0x9A1C, symBinAddr: 0x100021320, symSize: 0x24 }
  - { offsetInCU: 0x111D0, offset: 0x629AD, size: 0x8, addend: 0x0, symName: __ZNSt3__14pairIPKcPcEC1B7v160006IS2_S3_LPv0EEEOT_OT0_, symObjAddr: 0x9A40, symBinAddr: 0x100021344, symSize: 0x3C }
  - { offsetInCU: 0x1122E, offset: 0x62A0B, size: 0x8, addend: 0x0, symName: __ZNSt3__14pairIPKcPcEC2B7v160006IS2_S3_LPv0EEEOT_OT0_, symObjAddr: 0x9A7C, symBinAddr: 0x100021380, symSize: 0x34 }
  - { offsetInCU: 0x1128C, offset: 0x62A69, size: 0x8, addend: 0x0, symName: __ZNSt3__118__unwrap_iter_implIPKcLb1EE8__rewrapB7v160006ES2_S2_, symObjAddr: 0x9AEC, symBinAddr: 0x1000213F0, symSize: 0x48 }
  - { offsetInCU: 0x112BD, offset: 0x62A9A, size: 0x8, addend: 0x0, symName: __ZNSt3__118__unwrap_iter_implIPcLb1EE8__rewrapB7v160006ES1_S1_, symObjAddr: 0x9B34, symBinAddr: 0x100021438, symSize: 0x48 }
  - { offsetInCU: 0x112EE, offset: 0x62ACB, size: 0x8, addend: 0x0, symName: __ZN3glm3matILi4ELi4EfLNS_9qualifierE0EEC1ERKNS0_ILi3ELi3EfLS1_0EEE, symObjAddr: 0xA4C4, symBinAddr: 0x100021858, symSize: 0x34 }
  - { offsetInCU: 0x11328, offset: 0x62B05, size: 0x8, addend: 0x0, symName: __ZN3glm3matILi3ELi3EfLNS_9qualifierE0EEixEi, symObjAddr: 0xA4F8, symBinAddr: 0x10002188C, symSize: 0x80 }
  - { offsetInCU: 0x1135E, offset: 0x62B3B, size: 0x8, addend: 0x0, symName: __ZN3glm3matILi4ELi4EfLNS_9qualifierE0EEC2ERKNS0_ILi3ELi3EfLS1_0EEE, symObjAddr: 0xA688, symBinAddr: 0x10002190C, symSize: 0xAC }
  - { offsetInCU: 0x11398, offset: 0x62B75, size: 0x8, addend: 0x0, symName: __ZN3glm3vecILi4EfLNS_9qualifierE0EEC1IfiLS1_0EEERKNS0_ILi3ET_XT1_EEET0_, symObjAddr: 0xA7B4, symBinAddr: 0x1000219B8, symSize: 0x3C }
  - { offsetInCU: 0x113FD, offset: 0x62BDA, size: 0x8, addend: 0x0, symName: __ZN3glm3vecILi4EfLNS_9qualifierE0EEC1IiiiiEET_T0_T1_T2_, symObjAddr: 0xA7F0, symBinAddr: 0x1000219F4, symSize: 0x4C }
  - { offsetInCU: 0x11485, offset: 0x62C62, size: 0x8, addend: 0x0, symName: __ZN3glm3vecILi4EfLNS_9qualifierE0EEC2IfiLS1_0EEERKNS0_ILi3ET_XT1_EEET0_, symObjAddr: 0xA83C, symBinAddr: 0x100021A40, symSize: 0x4C }
  - { offsetInCU: 0x114EA, offset: 0x62CC7, size: 0x8, addend: 0x0, symName: __ZN3glm3vecILi4EfLNS_9qualifierE0EEC2IiiiiEET_T0_T1_T2_, symObjAddr: 0xA888, symBinAddr: 0x100021A8C, symSize: 0x54 }
  - { offsetInCU: 0x11572, offset: 0x62D4F, size: 0x8, addend: 0x0, symName: __ZNSt3__16vectorIN3glm3vecILi3EfLNS1_9qualifierE0EEENS_9allocatorIS4_EEEC2B7v160006ESt16initializer_listIS4_E, symObjAddr: 0xA8DC, symBinAddr: 0x100021AE0, symSize: 0x124 }
  - { offsetInCU: 0x115C3, offset: 0x62DA0, size: 0x8, addend: 0x0, symName: __ZNKSt16initializer_listIN3glm3vecILi3EfLNS0_9qualifierE0EEEE4sizeB7v160006Ev, symObjAddr: 0xAAC0, symBinAddr: 0x100021C44, symSize: 0x18 }
  - { offsetInCU: 0x115E9, offset: 0x62DC6, size: 0x8, addend: 0x0, symName: __ZNSt3__16vectorIN3glm3vecILi3EfLNS1_9qualifierE0EEENS_9allocatorIS4_EEE11__vallocateB7v160006Em, symObjAddr: 0xAAD8, symBinAddr: 0x100021C5C, symSize: 0xB4 }
  - { offsetInCU: 0x1162D, offset: 0x62E0A, size: 0x8, addend: 0x0, symName: __ZNSt3__16vectorIN3glm3vecILi3EfLNS1_9qualifierE0EEENS_9allocatorIS4_EEE18__construct_at_endIPKS4_Li0EEEvT_SB_m, symObjAddr: 0xAB8C, symBinAddr: 0x100021D10, symSize: 0x8C }
  - { offsetInCU: 0x116A0, offset: 0x62E7D, size: 0x8, addend: 0x0, symName: __ZNKSt16initializer_listIN3glm3vecILi3EfLNS0_9qualifierE0EEEE5beginB7v160006Ev, symObjAddr: 0xAC18, symBinAddr: 0x100021D9C, symSize: 0x18 }
  - { offsetInCU: 0x116C6, offset: 0x62EA3, size: 0x8, addend: 0x0, symName: __ZNKSt16initializer_listIN3glm3vecILi3EfLNS0_9qualifierE0EEEE3endB7v160006Ev, symObjAddr: 0xAC30, symBinAddr: 0x100021DB4, symSize: 0x28 }
  - { offsetInCU: 0x116EC, offset: 0x62EC9, size: 0x8, addend: 0x0, symName: __ZNSt3__128__exception_guard_exceptionsINS_6vectorIN3glm3vecILi3EfLNS2_9qualifierE0EEENS_9allocatorIS5_EEE16__destroy_vectorEE10__completeB7v160006Ev, symObjAddr: 0xAC58, symBinAddr: 0x100021DDC, symSize: 0x1C }
  - { offsetInCU: 0x11712, offset: 0x62EEF, size: 0x8, addend: 0x0, symName: __ZNSt3__128__exception_guard_exceptionsINS_6vectorIN3glm3vecILi3EfLNS2_9qualifierE0EEENS_9allocatorIS5_EEE16__destroy_vectorEED1B7v160006Ev, symObjAddr: 0xAC74, symBinAddr: 0x100021DF8, symSize: 0x2C }
  - { offsetInCU: 0x1173C, offset: 0x62F19, size: 0x8, addend: 0x0, symName: __ZNSt3__128__exception_guard_exceptionsINS_6vectorIN3glm3vecILi3EfLNS2_9qualifierE0EEENS_9allocatorIS5_EEE16__destroy_vectorEEC1B7v160006ES9_, symObjAddr: 0xAD68, symBinAddr: 0x100021E24, symSize: 0x34 }
  - { offsetInCU: 0x11774, offset: 0x62F51, size: 0x8, addend: 0x0, symName: __ZNSt3__128__exception_guard_exceptionsINS_6vectorIN3glm3vecILi3EfLNS2_9qualifierE0EEENS_9allocatorIS5_EEE16__destroy_vectorEEC2B7v160006ES9_, symObjAddr: 0xAD9C, symBinAddr: 0x100021E58, symSize: 0x24 }
  - { offsetInCU: 0x117E8, offset: 0x62FC5, size: 0x8, addend: 0x0, symName: __ZNKSt3__114__copy_trivialclB7v160006IKN3glm3vecILi3EfLNS2_9qualifierE0EEES5_Li0EEENS_4pairIPT_PT0_EES9_S9_SB_, symObjAddr: 0xB4E0, symBinAddr: 0x100022090, symSize: 0x48 }
  - { offsetInCU: 0x1186E, offset: 0x6304B, size: 0x8, addend: 0x0, symName: __ZNSt3__14pairIPKN3glm3vecILi3EfLNS1_9qualifierE0EEES6_EC1B7v160006IS6_S6_LPv0EEEOT_OT0_, symObjAddr: 0xB648, symBinAddr: 0x1000221F8, symSize: 0x3C }
  - { offsetInCU: 0x118CC, offset: 0x630A9, size: 0x8, addend: 0x0, symName: __ZNSt3__14pairIPKN3glm3vecILi3EfLNS1_9qualifierE0EEES6_EC2B7v160006IS6_S6_LPv0EEEOT_OT0_, symObjAddr: 0xB684, symBinAddr: 0x100022234, symSize: 0x34 }
  - { offsetInCU: 0x1192A, offset: 0x63107, size: 0x8, addend: 0x0, symName: __ZNSt3__118__unwrap_iter_implIPKN3glm3vecILi3EfLNS1_9qualifierE0EEELb1EE8__unwrapB7v160006ES6_, symObjAddr: 0xB6B8, symBinAddr: 0x100022268, symSize: 0x24 }
  - { offsetInCU: 0x11957, offset: 0x63134, size: 0x8, addend: 0x0, symName: __ZNSt3__14pairIPKN3glm3vecILi3EfLNS1_9qualifierE0EEEPS4_EC1B7v160006IRS6_S7_LPv0EEEOT_OT0_, symObjAddr: 0xB7B4, symBinAddr: 0x100022364, symSize: 0x3C }
  - { offsetInCU: 0x119B5, offset: 0x63192, size: 0x8, addend: 0x0, symName: __ZNSt3__14pairIPKN3glm3vecILi3EfLNS1_9qualifierE0EEEPS4_EC2B7v160006IRS6_S7_LPv0EEEOT_OT0_, symObjAddr: 0xB7F0, symBinAddr: 0x1000223A0, symSize: 0x34 }
  - { offsetInCU: 0x11A13, offset: 0x631F0, size: 0x8, addend: 0x0, symName: __ZNSt3__118__unwrap_iter_implIPN3glm3vecILi3EfLNS1_9qualifierE0EEELb1EE8__unwrapB7v160006ES5_, symObjAddr: 0xB824, symBinAddr: 0x1000223D4, symSize: 0x24 }
  - { offsetInCU: 0x11A36, offset: 0x63213, size: 0x8, addend: 0x0, symName: __ZNSt3__14pairIPKN3glm3vecILi3EfLNS1_9qualifierE0EEEPS4_EC1B7v160006IS6_S7_LPv0EEEOT_OT0_, symObjAddr: 0xB848, symBinAddr: 0x1000223F8, symSize: 0x3C }
  - { offsetInCU: 0x11A94, offset: 0x63271, size: 0x8, addend: 0x0, symName: __ZNSt3__14pairIPKN3glm3vecILi3EfLNS1_9qualifierE0EEEPS4_EC2B7v160006IS6_S7_LPv0EEEOT_OT0_, symObjAddr: 0xB884, symBinAddr: 0x100022434, symSize: 0x34 }
  - { offsetInCU: 0x11AF2, offset: 0x632CF, size: 0x8, addend: 0x0, symName: __ZNSt3__118__unwrap_iter_implIPKN3glm3vecILi3EfLNS1_9qualifierE0EEELb1EE8__rewrapB7v160006ES6_S6_, symObjAddr: 0xB8F4, symBinAddr: 0x1000224A4, symSize: 0x58 }
  - { offsetInCU: 0x11B23, offset: 0x63300, size: 0x8, addend: 0x0, symName: __ZNSt3__118__unwrap_iter_implIPN3glm3vecILi3EfLNS1_9qualifierE0EEELb1EE8__rewrapB7v160006ES5_S5_, symObjAddr: 0xB94C, symBinAddr: 0x1000224FC, symSize: 0x58 }
  - { offsetInCU: 0x11B54, offset: 0x63331, size: 0x8, addend: 0x0, symName: __ZNSt3__128__exception_guard_exceptionsINS_6vectorIN3glm3vecILi3EfLNS2_9qualifierE0EEENS_9allocatorIS5_EEE16__destroy_vectorEED2B7v160006Ev, symObjAddr: 0xB9C4, symBinAddr: 0x100022554, symSize: 0x50 }
  - { offsetInCU: 0x11B7E, offset: 0x6335B, size: 0x8, addend: 0x0, symName: __ZN3glm3vecILi4EfLNS_9qualifierE0EEmLIfEERS2_RKNS0_ILi4ET_LS1_0EEE, symObjAddr: 0xBF0C, symBinAddr: 0x100022604, symSize: 0x58 }
  - { offsetInCU: 0x11BC4, offset: 0x633A1, size: 0x8, addend: 0x0, symName: __ZNSt3__16vectorIN3glm3vecILi3EfLNS1_9qualifierE0EEENS_9allocatorIS4_EEE22__construct_one_at_endB7v160006IJS4_EEEvDpOT_, symObjAddr: 0xBF64, symBinAddr: 0x10002265C, symSize: 0x90 }
  - { offsetInCU: 0x11C13, offset: 0x633F0, size: 0x8, addend: 0x0, symName: __ZNSt3__16vectorIN3glm3vecILi3EfLNS1_9qualifierE0EEENS_9allocatorIS4_EEE21__push_back_slow_pathIS4_EEvOT_, symObjAddr: 0xBFF4, symBinAddr: 0x1000226EC, symSize: 0xD8 }
  - { offsetInCU: 0x11C71, offset: 0x6344E, size: 0x8, addend: 0x0, symName: __ZNSt3__116allocator_traitsINS_9allocatorIN3glm3vecILi3EfLNS2_9qualifierE0EEEEEE9constructB7v160006IS5_JS5_EvEEvRS6_PT_DpOT0_, symObjAddr: 0xC0CC, symBinAddr: 0x1000227C4, symSize: 0x34 }
  - { offsetInCU: 0x11CC8, offset: 0x634A5, size: 0x8, addend: 0x0, symName: __ZNSt3__19allocatorIN3glm3vecILi3EfLNS1_9qualifierE0EEEE9constructB7v160006IS4_JS4_EEEvPT_DpOT0_, symObjAddr: 0xC100, symBinAddr: 0x1000227F8, symSize: 0x30 }
  - { offsetInCU: 0x4C, offset: 0x63686, size: 0x8, addend: 0x0, symName: __ZN8nlohmann6detail12static_constINS0_10to_json_fnEE5valueE, symObjAddr: 0x41951, symBinAddr: 0x1000A1ED9, symSize: 0x0 }
  - { offsetInCU: 0x18FD, offset: 0x64F37, size: 0x8, addend: 0x0, symName: __ZN8nlohmann6detail13input_adapterINSt3__112basic_stringIcNS2_11char_traitsIcEENS2_9allocatorIcEEEEEENS0_36container_input_adapter_factory_impl31container_input_adapter_factoryIT_vE12adapter_typeERKSB_, symObjAddr: 0xE000, symBinAddr: 0x10002E0E8, symSize: 0x34 }
  - { offsetInCU: 0x19B5, offset: 0x64FEF, size: 0x8, addend: 0x0, symName: __ZN8nlohmann6detail13input_adapterINSt3__111__wrap_iterIPKcEEEENS0_30iterator_input_adapter_factoryIT_vE12adapter_typeES8_S8_, symObjAddr: 0x131FC, symBinAddr: 0x100033170, symSize: 0x4C }
  - { offsetInCU: 0x2412, offset: 0x65A4C, size: 0x8, addend: 0x0, symName: __ZN8nlohmann6detail7to_jsonINS_10basic_jsonINSt3__13mapENS3_6vectorENS3_12basic_stringIcNS3_11char_traitsIcEENS3_9allocatorIcEEEEbxydS9_NS_14adl_serializerENS5_IhNS9_IhEEEEEESB_Li0EEEvRT_RKT0_, symObjAddr: 0x1ED3C, symBinAddr: 0x10003EC94, symSize: 0x2C }
  - { offsetInCU: 0x2494, offset: 0x65ACE, size: 0x8, addend: 0x0, symName: __ZN8nlohmann6detail7to_jsonINS_10basic_jsonINSt3__13mapENS3_6vectorENS3_12basic_stringIcNS3_11char_traitsIcEENS3_9allocatorIcEEEEbxydS9_NS_14adl_serializerENS5_IhNS9_IhEEEEEEdLi0EEEvRT_T0_, symObjAddr: 0x20F04, symBinAddr: 0x100040E5C, symSize: 0x2C }
  - { offsetInCU: 0x2516, offset: 0x65B50, size: 0x8, addend: 0x0, symName: __ZN8nlohmann6detail7to_jsonINS_10basic_jsonINSt3__13mapENS3_6vectorENS3_12basic_stringIcNS3_11char_traitsIcEENS3_9allocatorIcEEEEbxydS9_NS_14adl_serializerENS5_IhNS9_IhEEEEEEbLi0EEEvRT_T0_, symObjAddr: 0x215A8, symBinAddr: 0x100041500, symSize: 0x38 }
  - { offsetInCU: 0x2598, offset: 0x65BD2, size: 0x8, addend: 0x0, symName: __ZN8nlohmann6detail7to_jsonINS_10basic_jsonINSt3__13mapENS3_6vectorENS3_12basic_stringIcNS3_11char_traitsIcEENS3_9allocatorIcEEEEbxydS9_NS_14adl_serializerENS5_IhNS9_IhEEEEEExLi0EEEvRT_T0_, symObjAddr: 0x22154, symBinAddr: 0x1000420AC, symSize: 0x2C }
  - { offsetInCU: 0x261A, offset: 0x65C54, size: 0x8, addend: 0x0, symName: __ZN8nlohmann6detail7to_jsonINS_10basic_jsonINSt3__13mapENS3_6vectorENS3_12basic_stringIcNS3_11char_traitsIcEENS3_9allocatorIcEEEEbxydS9_NS_14adl_serializerENS5_IhNS9_IhEEEEEEyLi0EEEvRT_T0_, symObjAddr: 0x22CD0, symBinAddr: 0x100042C28, symSize: 0x2C }
  - { offsetInCU: 0x26B1, offset: 0x65CEB, size: 0x8, addend: 0x0, symName: __ZN8nlohmann6detail9from_jsonINS_10basic_jsonINSt3__13mapENS3_6vectorENS3_12basic_stringIcNS3_11char_traitsIcEENS3_9allocatorIcEEEEbxydS9_NS_14adl_serializerENS5_IhNS9_IhEEEEEEjLi0EEEvRKT_RT0_, symObjAddr: 0x26850, symBinAddr: 0x1000467A8, symSize: 0x1C4 }
  - { offsetInCU: 0x2702, offset: 0x65D3C, size: 0x8, addend: 0x0, symName: __ZN8nlohmann6detaileqENS0_20primitive_iterator_tES1_, symObjAddr: 0x30D68, symBinAddr: 0x10004DFE0, symSize: 0x28 }
  - { offsetInCU: 0x273F, offset: 0x65D79, size: 0x8, addend: 0x0, symName: __ZN8nlohmann6detail9from_jsonINS_10basic_jsonINSt3__13mapENS3_6vectorENS3_12basic_stringIcNS3_11char_traitsIcEENS3_9allocatorIcEEEEbxydS9_NS_14adl_serializerENS5_IhNS9_IhEEEEEEfLi0EEEvRKT_RT0_, symObjAddr: 0x30E4C, symBinAddr: 0x10004E0C4, symSize: 0x1D8 }
  - { offsetInCU: 0x2790, offset: 0x65DCA, size: 0x8, addend: 0x0, symName: __ZN8nlohmann6detail9from_jsonINS_10basic_jsonINSt3__13mapENS3_6vectorENS3_12basic_stringIcNS3_11char_traitsIcEENS3_9allocatorIcEEEEbxydS9_NS_14adl_serializerENS5_IhNS9_IhEEEEEEEEvRKT_RNSG_8string_tE, symObjAddr: 0x32B6C, symBinAddr: 0x10004F080, symSize: 0x140 }
  - { offsetInCU: 0x27D2, offset: 0x65E0C, size: 0x8, addend: 0x0, symName: __ZN8nlohmann6detail9from_jsonINS_10basic_jsonINSt3__13mapENS3_6vectorENS3_12basic_stringIcNS3_11char_traitsIcEENS3_9allocatorIcEEEEbxydS9_NS_14adl_serializerENS5_IhNS9_IhEEEEEEiLi0EEEvRKT_RT0_, symObjAddr: 0x34ACC, symBinAddr: 0x1000501D4, symSize: 0x1C4 }
  - { offsetInCU: 0x4636, offset: 0x67C70, size: 0x8, addend: 0x0, symName: __ZNSt3__1L19piecewise_constructE, symObjAddr: 0x41952, symBinAddr: 0x1000A1EDA, symSize: 0x0 }
  - { offsetInCU: 0x18373, offset: 0x7B9AD, size: 0x8, addend: 0x0, symName: __ZNSt3__17advanceB7v160006INS_11__wrap_iterIPKcEEiivEEvRT_T0_, symObjAddr: 0x10FC8, symBinAddr: 0x1000310A8, symSize: 0x58 }
  - { offsetInCU: 0x19ADB, offset: 0x7D115, size: 0x8, addend: 0x0, symName: __ZNSt3__114__copy_alignedB7v160006INS_6vectorIbNS_9allocatorIbEEEELb0EEENS_14__bit_iteratorIT_Lb0EXLi0EEEENS5_IS6_XT0_EXLi0EEEES8_S7_, symObjAddr: 0x17DF0, symBinAddr: 0x100037D48, symSize: 0x278 }
  - { offsetInCU: 0x19C0A, offset: 0x7D244, size: 0x8, addend: 0x0, symName: __ZNSt3__16copy_nB7v160006IPmmS1_EENS_9enable_ifIXsr33__is_cpp17_random_access_iteratorIT_EE5valueET1_E4typeES3_T0_S4_, symObjAddr: 0x185D4, symBinAddr: 0x10003852C, symSize: 0x44 }
  - { offsetInCU: 0x19CB0, offset: 0x7D2EA, size: 0x8, addend: 0x0, symName: __ZNSt3__116__copy_unalignedB7v160006INS_6vectorIbNS_9allocatorIbEEEELb0EEENS_14__bit_iteratorIT_Lb0EXLi0EEEENS5_IS6_XT0_EXLi0EEEES8_S7_, symObjAddr: 0x18068, symBinAddr: 0x100037FC0, symSize: 0x540 }
  - { offsetInCU: 0x1B70B, offset: 0x7ED45, size: 0x8, addend: 0x0, symName: __ZNSt3__17advanceB7v160006INS_14__map_iteratorINS_15__tree_iteratorINS_12__value_typeINS_12basic_stringIcNS_11char_traitsIcEENS_9allocatorIcEEEEN8nlohmann10basic_jsonINS_3mapENS_6vectorES9_bxydS7_NSA_14adl_serializerENSD_IhNS7_IhEEEEEEEEPNS_11__tree_nodeISI_PvEElEEEEiivEEvRT_T0_, symObjAddr: 0x1E904, symBinAddr: 0x10003E85C, symSize: 0x58 }
  - { offsetInCU: 0x1B79D, offset: 0x7EDD7, size: 0x8, addend: 0x0, symName: __ZNSt3__17advanceB7v160006INS_11__wrap_iterIPN8nlohmann10basic_jsonINS_3mapENS_6vectorENS_12basic_stringIcNS_11char_traitsIcEENS_9allocatorIcEEEEbxydS9_NS2_14adl_serializerENS5_IhNS9_IhEEEEEEEEiivEEvRT_T0_, symObjAddr: 0x1E95C, symBinAddr: 0x10003E8B4, symSize: 0x58 }
  - { offsetInCU: 0x1BD9B, offset: 0x7F3D5, size: 0x8, addend: 0x0, symName: __ZNSt3__17advanceB7v160006INS_21__tree_const_iteratorINS_12__value_typeINS_12basic_stringIcNS_11char_traitsIcEENS_9allocatorIcEEEEN8nlohmann10basic_jsonINS_3mapENS_6vectorES8_bxydS6_NS9_14adl_serializerENSC_IhNS6_IhEEEEEEEEPNS_11__tree_nodeISH_PvEElEEllvEEvRT_T0_, symObjAddr: 0x27E40, symBinAddr: 0x100047D98, symSize: 0x50 }
  - { offsetInCU: 0x21DC1, offset: 0x853FB, size: 0x8, addend: 0x0, symName: __ZNSt3__1eqB7v160006INS_9allocatorIcEEEEbRKNS_12basic_stringIcNS_11char_traitsIcEET_EES9_, symObjAddr: 0x4938, symBinAddr: 0x100026330, symSize: 0x148 }
  - { offsetInCU: 0x21E35, offset: 0x8546F, size: 0x8, addend: 0x0, symName: __ZNSt3__14moveB7v160006INS_11__wrap_iterIPN8nlohmann10basic_jsonINS_3mapENS_6vectorENS_12basic_stringIcNS_11char_traitsIcEENS_9allocatorIcEEEEbxydS9_NS2_14adl_serializerENS5_IhNS9_IhEEEEEEEENS_20back_insert_iteratorINS5_ISF_NS9_ISF_EEEEEEEET0_T_SN_SM_, symObjAddr: 0x610C, symBinAddr: 0x100027288, symSize: 0x60 }
  - { offsetInCU: 0x21E8F, offset: 0x854C9, size: 0x8, addend: 0x0, symName: __ZNSt3__113back_inserterB7v160006INS_6vectorIN8nlohmann10basic_jsonINS_3mapES1_NS_12basic_stringIcNS_11char_traitsIcEENS_9allocatorIcEEEEbxydS8_NS2_14adl_serializerENS1_IhNS8_IhEEEEEENS8_ISE_EEEEEENS_20back_insert_iteratorIT_EERSI_, symObjAddr: 0x61CC, symBinAddr: 0x100027348, symSize: 0x2C }
  - { offsetInCU: 0x21EC3, offset: 0x854FD, size: 0x8, addend: 0x0, symName: __ZNSt3__1neB7v160006ERKNS_14__map_iteratorINS_15__tree_iteratorINS_12__value_typeINS_12basic_stringIcNS_11char_traitsIcEENS_9allocatorIcEEEEN8nlohmann10basic_jsonINS_3mapENS_6vectorES8_bxydS6_NS9_14adl_serializerENSC_IhNS6_IhEEEEEEEEPNS_11__tree_nodeISH_PvEElEEEESP_, symObjAddr: 0x6290, symBinAddr: 0x10002740C, symSize: 0x30 }
  - { offsetInCU: 0x226DE, offset: 0x85D18, size: 0x8, addend: 0x0, symName: __ZNSt3__119__debug_db_insert_cB7v160006INS_6vectorIN8nlohmann10basic_jsonINS_3mapES1_NS_12basic_stringIcNS_11char_traitsIcEENS_9allocatorIcEEEEbxydS8_NS2_14adl_serializerENS1_IhNS8_IhEEEEEENS8_ISE_EEEEEEvPT_, symObjAddr: 0x67CC, symBinAddr: 0x100027948, symSize: 0x10 }
  - { offsetInCU: 0x2270F, offset: 0x85D49, size: 0x8, addend: 0x0, symName: __ZNSt3__119__allocate_at_leastB7v160006INS_9allocatorIN8nlohmann10basic_jsonINS_3mapENS_6vectorENS_12basic_stringIcNS_11char_traitsIcEENS1_IcEEEEbxydS1_NS2_14adl_serializerENS5_IhNS1_IhEEEEEEEEEENS_19__allocation_resultINS_16allocator_traitsIT_E7pointerEEERSI_m, symObjAddr: 0x6F04, symBinAddr: 0x100027ECC, symSize: 0x40 }
  - { offsetInCU: 0x22751, offset: 0x85D8B, size: 0x8, addend: 0x0, symName: __ZNSt3__142__uninitialized_allocator_move_if_noexceptB7v160006INS_9allocatorIN8nlohmann10basic_jsonINS_3mapENS_6vectorENS_12basic_stringIcNS_11char_traitsIcEENS1_IcEEEEbxydS1_NS2_14adl_serializerENS5_IhNS1_IhEEEEEEEENS_16reverse_iteratorIPSE_EESI_SI_EET2_RT_T0_T1_SJ_, symObjAddr: 0x7288, symBinAddr: 0x10002814C, symSize: 0x12C }
  - { offsetInCU: 0x227F2, offset: 0x85E2C, size: 0x8, addend: 0x0, symName: __ZNSt3__14swapB7v160006IPN8nlohmann10basic_jsonINS_3mapENS_6vectorENS_12basic_stringIcNS_11char_traitsIcEENS_9allocatorIcEEEEbxydS8_NS1_14adl_serializerENS4_IhNS8_IhEEEEEEEENS_9enable_ifIXaasr21is_move_constructibleIT_EE5valuesr18is_move_assignableISH_EE5valueEvE4typeERSH_SK_, symObjAddr: 0x7400, symBinAddr: 0x1000282C4, symSize: 0x3C }
  - { offsetInCU: 0x22843, offset: 0x85E7D, size: 0x8, addend: 0x0, symName: __ZNSt3__125__debug_db_invalidate_allB7v160006INS_6vectorIN8nlohmann10basic_jsonINS_3mapES1_NS_12basic_stringIcNS_11char_traitsIcEENS_9allocatorIcEEEEbxydS8_NS2_14adl_serializerENS1_IhNS8_IhEEEEEENS8_ISE_EEEEEEvPT_, symObjAddr: 0x7510, symBinAddr: 0x1000283D4, symSize: 0x10 }
  - { offsetInCU: 0x22874, offset: 0x85EAE, size: 0x8, addend: 0x0, symName: __ZNSt3__112__to_addressB7v160006IN8nlohmann10basic_jsonINS_3mapENS_6vectorENS_12basic_stringIcNS_11char_traitsIcEENS_9allocatorIcEEEEbxydS8_NS1_14adl_serializerENS4_IhNS8_IhEEEEEEEEPT_SG_, symObjAddr: 0x7568, symBinAddr: 0x10002842C, symSize: 0x14 }
  - { offsetInCU: 0x228A9, offset: 0x85EE3, size: 0x8, addend: 0x0, symName: __ZNSt3__122__make_exception_guardB7v160006INS_29_AllocatorDestroyRangeReverseINS_9allocatorIN8nlohmann10basic_jsonINS_3mapENS_6vectorENS_12basic_stringIcNS_11char_traitsIcEENS2_IcEEEEbxydS2_NS3_14adl_serializerENS6_IhNS2_IhEEEEEEEENS_16reverse_iteratorIPSF_EEEEEENS_28__exception_guard_exceptionsIT_EESM_, symObjAddr: 0x757C, symBinAddr: 0x100028440, symSize: 0x4C }
  - { offsetInCU: 0x228DF, offset: 0x85F19, size: 0x8, addend: 0x0, symName: __ZNSt3__1neB7v160006IPN8nlohmann10basic_jsonINS_3mapENS_6vectorENS_12basic_stringIcNS_11char_traitsIcEENS_9allocatorIcEEEEbxydS8_NS1_14adl_serializerENS4_IhNS8_IhEEEEEESF_EEbRKNS_16reverse_iteratorIT_EERKNSG_IT0_EE, symObjAddr: 0x760C, symBinAddr: 0x1000284D0, symSize: 0x48 }
  - { offsetInCU: 0x2292B, offset: 0x85F65, size: 0x8, addend: 0x0, symName: __ZNSt3__112__to_addressB7v160006INS_16reverse_iteratorIPN8nlohmann10basic_jsonINS_3mapENS_6vectorENS_12basic_stringIcNS_11char_traitsIcEENS_9allocatorIcEEEEbxydS9_NS2_14adl_serializerENS5_IhNS9_IhEEEEEEEEvEENS_5decayIDTclsr19__to_address_helperIT_EE6__callclsr3stdE7declvalIRKSJ_EEEEE4typeESL_, symObjAddr: 0x7688, symBinAddr: 0x10002854C, symSize: 0x24 }
  - { offsetInCU: 0x22989, offset: 0x85FC3, size: 0x8, addend: 0x0, symName: __ZNSt3__119__allocator_destroyB7v160006INS_9allocatorIN8nlohmann10basic_jsonINS_3mapENS_6vectorENS_12basic_stringIcNS_11char_traitsIcEENS1_IcEEEEbxydS1_NS2_14adl_serializerENS5_IhNS1_IhEEEEEEEENS_16reverse_iteratorINSG_IPSE_EEEESJ_EEvRT_T0_T1_, symObjAddr: 0x7968, symBinAddr: 0x10002882C, symSize: 0x70 }
  - { offsetInCU: 0x229EF, offset: 0x86029, size: 0x8, addend: 0x0, symName: __ZNSt3__1neB7v160006INS_16reverse_iteratorIPN8nlohmann10basic_jsonINS_3mapENS_6vectorENS_12basic_stringIcNS_11char_traitsIcEENS_9allocatorIcEEEEbxydS9_NS2_14adl_serializerENS5_IhNS9_IhEEEEEEEESH_EEbRKNS1_IT_EERKNS1_IT0_EE, symObjAddr: 0x7A14, symBinAddr: 0x1000288D8, symSize: 0x60 }
  - { offsetInCU: 0x22A3B, offset: 0x86075, size: 0x8, addend: 0x0, symName: __ZNSt3__112__to_addressB7v160006INS_16reverse_iteratorINS1_IPN8nlohmann10basic_jsonINS_3mapENS_6vectorENS_12basic_stringIcNS_11char_traitsIcEENS_9allocatorIcEEEEbxydS9_NS2_14adl_serializerENS5_IhNS9_IhEEEEEEEEEEvEENS_5decayIDTclsr19__to_address_helperIT_EE6__callclsr3stdE7declvalIRKSK_EEEEE4typeESM_, symObjAddr: 0x7AA0, symBinAddr: 0x100028964, symSize: 0x24 }
  - { offsetInCU: 0x22A9A, offset: 0x860D4, size: 0x8, addend: 0x0, symName: __ZNSt3__16__moveB7v160006INS_17_ClassicAlgPolicyENS_11__wrap_iterIPN8nlohmann10basic_jsonINS_3mapENS_6vectorENS_12basic_stringIcNS_11char_traitsIcEENS_9allocatorIcEEEEbxydSA_NS3_14adl_serializerENS6_IhNSA_IhEEEEEEEESI_NS_20back_insert_iteratorINS6_ISG_NSA_ISG_EEEEEEEENS_4pairIT0_T2_EESO_T1_SP_, symObjAddr: 0x7FD0, symBinAddr: 0x100028D8C, symSize: 0x5C }
  - { offsetInCU: 0x22B06, offset: 0x86140, size: 0x8, addend: 0x0, symName: __ZNSt3__123__dispatch_copy_or_moveB7v160006INS_17_ClassicAlgPolicyENS_11__move_loopIS1_EENS_14__move_trivialENS_11__wrap_iterIPN8nlohmann10basic_jsonINS_3mapENS_6vectorENS_12basic_stringIcNS_11char_traitsIcEENS_9allocatorIcEEEEbxydSD_NS6_14adl_serializerENS9_IhNSD_IhEEEEEEEESL_NS_20back_insert_iteratorINS9_ISJ_NSD_ISJ_EEEEEEEENS_4pairIT2_T4_EESR_T3_SS_, symObjAddr: 0x802C, symBinAddr: 0x100028DE8, symSize: 0x5C }
  - { offsetInCU: 0x22B84, offset: 0x861BE, size: 0x8, addend: 0x0, symName: __ZNSt3__121__unwrap_and_dispatchB7v160006INS_10__overloadINS_11__move_loopINS_17_ClassicAlgPolicyEEENS_14__move_trivialEEENS_11__wrap_iterIPN8nlohmann10basic_jsonINS_3mapENS_6vectorENS_12basic_stringIcNS_11char_traitsIcEENS_9allocatorIcEEEEbxydSF_NS8_14adl_serializerENSB_IhNSF_IhEEEEEEEESN_NS_20back_insert_iteratorINSB_ISL_NSF_ISL_EEEEEELi0EEENS_4pairIT0_T2_EEST_T1_SU_, symObjAddr: 0x8088, symBinAddr: 0x100028E44, symSize: 0xE8 }
  - { offsetInCU: 0x22C13, offset: 0x8624D, size: 0x8, addend: 0x0, symName: __ZNSt3__114__unwrap_rangeB7v160006INS_11__wrap_iterIPN8nlohmann10basic_jsonINS_3mapENS_6vectorENS_12basic_stringIcNS_11char_traitsIcEENS_9allocatorIcEEEEbxydS9_NS2_14adl_serializerENS5_IhNS9_IhEEEEEEEESG_EENS_4pairIT0_SJ_EET_SL_, symObjAddr: 0x8170, symBinAddr: 0x100028F2C, symSize: 0x70 }
  - { offsetInCU: 0x22FFB, offset: 0x86635, size: 0x8, addend: 0x0, symName: __ZNSt3__113__unwrap_iterB7v160006INS_20back_insert_iteratorINS_6vectorIN8nlohmann10basic_jsonINS_3mapES2_NS_12basic_stringIcNS_11char_traitsIcEENS_9allocatorIcEEEEbxydS9_NS3_14adl_serializerENS2_IhNS9_IhEEEEEENS9_ISF_EEEEEENS_18__unwrap_iter_implISI_Lb0EEELi0EEEDTclsrT0_8__unwrapclsr3stdE7declvalIT_EEEESM_, symObjAddr: 0x8278, symBinAddr: 0x100029034, symSize: 0x34 }
  - { offsetInCU: 0x2303E, offset: 0x86678, size: 0x8, addend: 0x0, symName: __ZNSt3__19make_pairB7v160006INS_11__wrap_iterIPN8nlohmann10basic_jsonINS_3mapENS_6vectorENS_12basic_stringIcNS_11char_traitsIcEENS_9allocatorIcEEEEbxydS9_NS2_14adl_serializerENS5_IhNS9_IhEEEEEEEENS_20back_insert_iteratorINS5_ISF_NS9_ISF_EEEEEEEENS_4pairINS_18__unwrap_ref_decayIT_E4typeENSN_IT0_E4typeEEEOSO_OSR_, symObjAddr: 0x82AC, symBinAddr: 0x100029068, symSize: 0x38 }
  - { offsetInCU: 0x2308E, offset: 0x866C8, size: 0x8, addend: 0x0, symName: __ZNSt3__114__rewrap_rangeB7v160006INS_11__wrap_iterIPN8nlohmann10basic_jsonINS_3mapENS_6vectorENS_12basic_stringIcNS_11char_traitsIcEENS_9allocatorIcEEEEbxydS9_NS2_14adl_serializerENS5_IhNS9_IhEEEEEEEESG_EET_SI_T0_, symObjAddr: 0x82E4, symBinAddr: 0x1000290A0, symSize: 0x3C }
  - { offsetInCU: 0x230DA, offset: 0x86714, size: 0x8, addend: 0x0, symName: __ZNSt3__113__rewrap_iterB7v160006INS_20back_insert_iteratorINS_6vectorIN8nlohmann10basic_jsonINS_3mapES2_NS_12basic_stringIcNS_11char_traitsIcEENS_9allocatorIcEEEEbxydS9_NS3_14adl_serializerENS2_IhNS9_IhEEEEEENS9_ISF_EEEEEESI_NS_18__unwrap_iter_implISI_Lb0EEEEET_SL_T0_, symObjAddr: 0x8320, symBinAddr: 0x1000290DC, symSize: 0x54 }
  - { offsetInCU: 0x2312E, offset: 0x86768, size: 0x8, addend: 0x0, symName: __ZNSt3__19make_pairB7v160006IPN8nlohmann10basic_jsonINS_3mapENS_6vectorENS_12basic_stringIcNS_11char_traitsIcEENS_9allocatorIcEEEEbxydS8_NS1_14adl_serializerENS4_IhNS8_IhEEEEEESF_EENS_4pairINS_18__unwrap_ref_decayIT_E4typeENSH_IT0_E4typeEEEOSI_OSL_, symObjAddr: 0x8374, symBinAddr: 0x100029130, symSize: 0x38 }
  - { offsetInCU: 0x2317E, offset: 0x867B8, size: 0x8, addend: 0x0, symName: __ZNSt3__113__unwrap_iterB7v160006INS_11__wrap_iterIPN8nlohmann10basic_jsonINS_3mapENS_6vectorENS_12basic_stringIcNS_11char_traitsIcEENS_9allocatorIcEEEEbxydS9_NS2_14adl_serializerENS5_IhNS9_IhEEEEEEEENS_18__unwrap_iter_implISH_Lb1EEELi0EEEDTclsrT0_8__unwrapclsr3stdE7declvalIT_EEEESL_, symObjAddr: 0x83AC, symBinAddr: 0x100029168, symSize: 0x2C }
  - { offsetInCU: 0x232E9, offset: 0x86923, size: 0x8, addend: 0x0, symName: __ZNSt3__112__to_addressB7v160006INS_11__wrap_iterIPN8nlohmann10basic_jsonINS_3mapENS_6vectorENS_12basic_stringIcNS_11char_traitsIcEENS_9allocatorIcEEEEbxydS9_NS2_14adl_serializerENS5_IhNS9_IhEEEEEEEEvEENS_5decayIDTclsr19__to_address_helperIT_EE6__callclsr3stdE7declvalIRKSJ_EEEEE4typeESL_, symObjAddr: 0x8470, symBinAddr: 0x10002922C, symSize: 0x24 }
  - { offsetInCU: 0x235FC, offset: 0x86C36, size: 0x8, addend: 0x0, symName: __ZNSt3__19make_pairB7v160006IPN8nlohmann10basic_jsonINS_3mapENS_6vectorENS_12basic_stringIcNS_11char_traitsIcEENS_9allocatorIcEEEEbxydS8_NS1_14adl_serializerENS4_IhNS8_IhEEEEEENS_20back_insert_iteratorINS4_ISE_NS8_ISE_EEEEEEEENS_4pairINS_18__unwrap_ref_decayIT_E4typeENSL_IT0_E4typeEEEOSM_OSP_, symObjAddr: 0x8590, symBinAddr: 0x10002934C, symSize: 0x38 }
  - { offsetInCU: 0x23768, offset: 0x86DA2, size: 0x8, addend: 0x0, symName: __ZNSt3__113__rewrap_iterB7v160006INS_11__wrap_iterIPN8nlohmann10basic_jsonINS_3mapENS_6vectorENS_12basic_stringIcNS_11char_traitsIcEENS_9allocatorIcEEEEbxydS9_NS2_14adl_serializerENS5_IhNS9_IhEEEEEEEESG_NS_18__unwrap_iter_implISH_Lb1EEEEET_SK_T0_, symObjAddr: 0x86C8, symBinAddr: 0x100029484, symSize: 0x4C }
  - { offsetInCU: 0x237EF, offset: 0x86E29, size: 0x8, addend: 0x0, symName: __ZNSt3__1neB7v160006ERKNS_15__tree_iteratorINS_12__value_typeINS_12basic_stringIcNS_11char_traitsIcEENS_9allocatorIcEEEEN8nlohmann10basic_jsonINS_3mapENS_6vectorES7_bxydS5_NS8_14adl_serializerENSB_IhNS5_IhEEEEEEEEPNS_11__tree_nodeISG_PvEElEESN_, symObjAddr: 0x8AD8, symBinAddr: 0x100029894, symSize: 0x34 }
  - { offsetInCU: 0x2382C, offset: 0x86E66, size: 0x8, addend: 0x0, symName: __ZNSt3__1eqB7v160006ERKNS_15__tree_iteratorINS_12__value_typeINS_12basic_stringIcNS_11char_traitsIcEENS_9allocatorIcEEEEN8nlohmann10basic_jsonINS_3mapENS_6vectorES7_bxydS5_NS8_14adl_serializerENSB_IhNS5_IhEEEEEEEEPNS_11__tree_nodeISG_PvEElEESN_, symObjAddr: 0x8B0C, symBinAddr: 0x1000298C8, symSize: 0x30 }
  - { offsetInCU: 0x2389C, offset: 0x86ED6, size: 0x8, addend: 0x0, symName: __ZNSt3__17launderB7v160006INS_4pairIKNS_12basic_stringIcNS_11char_traitsIcEENS_9allocatorIcEEEEN8nlohmann10basic_jsonINS_3mapENS_6vectorES7_bxydS5_NS9_14adl_serializerENSC_IhNS5_IhEEEEEEEEEEPT_SJ_, symObjAddr: 0x8BB8, symBinAddr: 0x100029974, symSize: 0x24 }
  - { offsetInCU: 0x238D3, offset: 0x86F0D, size: 0x8, addend: 0x0, symName: __ZNSt3__19__launderB7v160006INS_4pairIKNS_12basic_stringIcNS_11char_traitsIcEENS_9allocatorIcEEEEN8nlohmann10basic_jsonINS_3mapENS_6vectorES7_bxydS5_NS9_14adl_serializerENSC_IhNS5_IhEEEEEEEEEEPT_SJ_, symObjAddr: 0x8BDC, symBinAddr: 0x100029998, symSize: 0x14 }
  - { offsetInCU: 0x2390B, offset: 0x86F45, size: 0x8, addend: 0x0, symName: __ZNSt3__116__tree_next_iterB7v160006IPNS_15__tree_end_nodeIPNS_16__tree_node_baseIPvEEEES5_EET_T0_, symObjAddr: 0x8F90, symBinAddr: 0x100029CCC, symSize: 0x90 }
  - { offsetInCU: 0x23949, offset: 0x86F83, size: 0x8, addend: 0x0, symName: __ZNSt3__110__tree_minB7v160006IPNS_16__tree_node_baseIPvEEEET_S5_, symObjAddr: 0x9020, symBinAddr: 0x100029D5C, symSize: 0x40 }
  - { offsetInCU: 0x2397E, offset: 0x86FB8, size: 0x8, addend: 0x0, symName: __ZNSt3__120__tree_is_left_childB7v160006IPNS_16__tree_node_baseIPvEEEEbT_, symObjAddr: 0x9060, symBinAddr: 0x100029D9C, symSize: 0x2C }
  - { offsetInCU: 0x239B3, offset: 0x86FED, size: 0x8, addend: 0x0, symName: __ZNSt3__118__debug_db_erase_cB7v160006INS_6vectorIhNS_9allocatorIhEEEEEEvPT_, symObjAddr: 0x9C1C, symBinAddr: 0x10002A958, symSize: 0x10 }
  - { offsetInCU: 0x239E4, offset: 0x8701E, size: 0x8, addend: 0x0, symName: __ZNSt3__112__to_addressB7v160006IhEEPT_S2_, symObjAddr: 0x9D50, symBinAddr: 0x10002AA8C, symSize: 0x14 }
  - { offsetInCU: 0x23A19, offset: 0x87053, size: 0x8, addend: 0x0, symName: __ZNSt3__118__debug_db_erase_cB7v160006INS_6vectorIN8nlohmann10basic_jsonINS_3mapES1_NS_12basic_stringIcNS_11char_traitsIcEENS_9allocatorIcEEEEbxydS8_NS2_14adl_serializerENS1_IhNS8_IhEEEEEENS8_ISE_EEEEEEvPT_, symObjAddr: 0xA07C, symBinAddr: 0x10002ADB8, symSize: 0x10 }
  - { offsetInCU: 0x23A4A, offset: 0x87084, size: 0x8, addend: 0x0, symName: __ZNSt3__118__debug_db_erase_cB7v160006INS_6vectorINS_12basic_stringIcNS_11char_traitsIcEENS_9allocatorIcEEEENS5_IS7_EEEEEEvPT_, symObjAddr: 0xA294, symBinAddr: 0x10002AFD0, symSize: 0x10 }
  - { offsetInCU: 0x23A7B, offset: 0x870B5, size: 0x8, addend: 0x0, symName: __ZNSt3__112__to_addressB7v160006INS_12basic_stringIcNS_11char_traitsIcEENS_9allocatorIcEEEEEEPT_S8_, symObjAddr: 0xA37C, symBinAddr: 0x10002B0B8, symSize: 0x14 }
  - { offsetInCU: 0x23AB0, offset: 0x870EA, size: 0x8, addend: 0x0, symName: __ZNSt3__119__debug_db_insert_cB7v160006INS_6vectorIhNS_9allocatorIhEEEEEEvPT_, symObjAddr: 0xAAA0, symBinAddr: 0x10002B284, symSize: 0x10 }
  - { offsetInCU: 0x23EDF, offset: 0x87519, size: 0x8, addend: 0x0, symName: __ZNSt3__1neB7v160006INS_3mapINS_12basic_stringIcNS_11char_traitsIcEENS_9allocatorIcEEEEN8nlohmann10basic_jsonIS1_NS_6vectorES7_bxydS5_NS8_14adl_serializerENSA_IhNS5_IhEEEEEENS_4lessIvEENS5_INS_4pairIKS7_SE_EEEEEEZNSE_6createISL_JEEEPT_DpOT0_EUlPSL_E_EEbRKNS_10unique_ptrISN_T0_EEDn, symObjAddr: 0xB448, symBinAddr: 0x10002BC2C, symSize: 0x2C }
  - { offsetInCU: 0x24329, offset: 0x87963, size: 0x8, addend: 0x0, symName: __ZNSt3__1neB7v160006INS_6vectorIN8nlohmann10basic_jsonINS_3mapES1_NS_12basic_stringIcNS_11char_traitsIcEENS_9allocatorIcEEEEbxydS8_NS2_14adl_serializerENS1_IhNS8_IhEEEEEENS8_ISE_EEEEZNSE_6createISG_JEEEPT_DpOT0_EUlPSG_E_EEbRKNS_10unique_ptrISI_T0_EEDn, symObjAddr: 0xBC8C, symBinAddr: 0x10002C470, symSize: 0x2C }
  - { offsetInCU: 0x246BF, offset: 0x87CF9, size: 0x8, addend: 0x0, symName: __ZNSt3__1neB7v160006INS_12basic_stringIcNS_11char_traitsIcEENS_9allocatorIcEEEEZN8nlohmann10basic_jsonINS_3mapENS_6vectorES6_bxydS4_NS7_14adl_serializerENSA_IhNS4_IhEEEEE6createIS6_JRA1_KcEEEPT_DpOT0_EUlPS6_E_EEbRKNS_10unique_ptrISJ_T0_EEDn, symObjAddr: 0xC184, symBinAddr: 0x10002C968, symSize: 0x2C }
  - { offsetInCU: 0x24B09, offset: 0x88143, size: 0x8, addend: 0x0, symName: __ZNSt3__1neB7v160006IN8nlohmann27byte_container_with_subtypeINS_6vectorIhNS_9allocatorIhEEEEEEZNS1_10basic_jsonINS_3mapES3_NS_12basic_stringIcNS_11char_traitsIcEENS4_IcEEEEbxydS4_NS1_14adl_serializerES6_E6createIS7_JEEEPT_DpOT0_EUlPS7_E_EEbRKNS_10unique_ptrISI_T0_EEDn, symObjAddr: 0xC668, symBinAddr: 0x10002CE4C, symSize: 0x2C }
  - { offsetInCU: 0x24B54, offset: 0x8818E, size: 0x8, addend: 0x0, symName: __ZNSt3__1plB7v160006IcNS_11char_traitsIcEENS_9allocatorIcEEEENS_12basic_stringIT_T0_T1_EEOS9_RKS9_, symObjAddr: 0xCAF4, symBinAddr: 0x10002D2D8, symSize: 0x40 }
  - { offsetInCU: 0x24BAC, offset: 0x881E6, size: 0x8, addend: 0x0, symName: __ZNSt3__1plB7v160006IcNS_11char_traitsIcEENS_9allocatorIcEEEENS_12basic_stringIT_T0_T1_EEOS9_SA_, symObjAddr: 0xCB34, symBinAddr: 0x10002D318, symSize: 0x40 }
  - { offsetInCU: 0x24C05, offset: 0x8823F, size: 0x8, addend: 0x0, symName: __ZNSt3__115__debug_db_swapB7v160006INS_12basic_stringIcNS_11char_traitsIcEENS_9allocatorIcEEEEEEvPT_S8_, symObjAddr: 0xCEC4, symBinAddr: 0x10002D5F8, symSize: 0x14 }
  - { offsetInCU: 0x24C43, offset: 0x8827D, size: 0x8, addend: 0x0, symName: __ZNSt3__1plB7v160006IcNS_11char_traitsIcEENS_9allocatorIcEEEENS_12basic_stringIT_T0_T1_EEOS9_PKS6_, symObjAddr: 0xCED8, symBinAddr: 0x10002D60C, symSize: 0x40 }
  - { offsetInCU: 0x24C9C, offset: 0x882D6, size: 0x8, addend: 0x0, symName: __ZNSt3__119__debug_db_insert_cB7v160006INS_6vectorINS_12basic_stringIcNS_11char_traitsIcEENS_9allocatorIcEEEENS5_IS7_EEEEEEvPT_, symObjAddr: 0xD1D8, symBinAddr: 0x10002D90C, symSize: 0x10 }
  - { offsetInCU: 0x24CCD, offset: 0x88307, size: 0x8, addend: 0x0, symName: __ZNSt3__119__debug_db_insert_cB7v160006INS_6vectorI4MeshNS_9allocatorIS2_EEEEEEvPT_, symObjAddr: 0xD470, symBinAddr: 0x10002DA38, symSize: 0x10 }
  - { offsetInCU: 0x24CFE, offset: 0x88338, size: 0x8, addend: 0x0, symName: __ZNSt3__118__debug_db_erase_cB7v160006INS_6vectorI4MeshNS_9allocatorIS2_EEEEEEvPT_, symObjAddr: 0xDC30, symBinAddr: 0x10002DD18, symSize: 0x10 }
  - { offsetInCU: 0x24D2F, offset: 0x88369, size: 0x8, addend: 0x0, symName: __ZNSt3__112__to_addressB7v160006I4MeshEEPT_S3_, symObjAddr: 0xDD4C, symBinAddr: 0x10002DE34, symSize: 0x14 }
  - { offsetInCU: 0x24D64, offset: 0x8839E, size: 0x8, addend: 0x0, symName: __ZNSt3__119__debug_db_insert_cB7v160006INS_6vectorIcNS_9allocatorIcEEEEEEvPT_, symObjAddr: 0xEBA8, symBinAddr: 0x10002EC88, symSize: 0x10 }
  - { offsetInCU: 0x2531B, offset: 0x88955, size: 0x8, addend: 0x0, symName: __ZNSt3__1neB7v160006IPKcEEbRKNS_11__wrap_iterIT_EES7_, symObjAddr: 0x10F68, symBinAddr: 0x100031048, symSize: 0x34 }
  - { offsetInCU: 0x2535E, offset: 0x88998, size: 0x8, addend: 0x0, symName: __ZNSt3__1eqB7v160006IPKcEEbRKNS_11__wrap_iterIT_EES7_, symObjAddr: 0x11020, symBinAddr: 0x100031100, symSize: 0x48 }
  - { offsetInCU: 0x253A1, offset: 0x889DB, size: 0x8, addend: 0x0, symName: __ZNSt3__121__convert_to_integralB7v160006Ei, symObjAddr: 0x11080, symBinAddr: 0x100031160, symSize: 0x14 }
  - { offsetInCU: 0x253CC, offset: 0x88A06, size: 0x8, addend: 0x0, symName: __ZNSt3__19__advanceB7v160006INS_11__wrap_iterIPKcEEEEvRT_NS_15iterator_traitsIS5_E15difference_typeENS_26random_access_iterator_tagE, symObjAddr: 0x11094, symBinAddr: 0x100031174, symSize: 0x2C }
  - { offsetInCU: 0x25418, offset: 0x88A52, size: 0x8, addend: 0x0, symName: __ZNSt3__119__allocate_at_leastB7v160006INS_9allocatorIcEEEENS_19__allocation_resultINS_16allocator_traitsIT_E7pointerEEERS5_m, symObjAddr: 0x11950, symBinAddr: 0x1000319D0, symSize: 0x40 }
  - { offsetInCU: 0x2545A, offset: 0x88A94, size: 0x8, addend: 0x0, symName: __ZNSt3__142__uninitialized_allocator_move_if_noexceptB7v160006INS_9allocatorIcEENS_16reverse_iteratorIPcEES5_cvEET1_RT_T0_S9_S6_, symObjAddr: 0x11BBC, symBinAddr: 0x100031BE4, symSize: 0x78 }
  - { offsetInCU: 0x254D8, offset: 0x88B12, size: 0x8, addend: 0x0, symName: __ZNSt3__14swapB7v160006IPcEENS_9enable_ifIXaasr21is_move_constructibleIT_EE5valuesr18is_move_assignableIS3_EE5valueEvE4typeERS3_S6_, symObjAddr: 0x11C80, symBinAddr: 0x100031CA8, symSize: 0x3C }
  - { offsetInCU: 0x25529, offset: 0x88B63, size: 0x8, addend: 0x0, symName: __ZNSt3__125__debug_db_invalidate_allB7v160006INS_6vectorIcNS_9allocatorIcEEEEEEvPT_, symObjAddr: 0x11D68, symBinAddr: 0x100031D90, symSize: 0x10 }
  - { offsetInCU: 0x2555A, offset: 0x88B94, size: 0x8, addend: 0x0, symName: __ZNSt3__14moveB7v160006INS_16reverse_iteratorIPcEES3_EET0_T_S5_S4_, symObjAddr: 0x11DC0, symBinAddr: 0x100031DE8, symSize: 0x78 }
  - { offsetInCU: 0x255B4, offset: 0x88BEE, size: 0x8, addend: 0x0, symName: __ZNSt3__16__moveB7v160006INS_17_ClassicAlgPolicyENS_16reverse_iteratorIPcEES4_S4_EENS_4pairIT0_T2_EES6_T1_S7_, symObjAddr: 0x11E38, symBinAddr: 0x100031E60, symSize: 0x64 }
  - { offsetInCU: 0x25620, offset: 0x88C5A, size: 0x8, addend: 0x0, symName: __ZNSt3__123__dispatch_copy_or_moveB7v160006INS_17_ClassicAlgPolicyENS_11__move_loopIS1_EENS_14__move_trivialENS_16reverse_iteratorIPcEES7_S7_EENS_4pairIT2_T4_EES9_T3_SA_, symObjAddr: 0x11E9C, symBinAddr: 0x100031EC4, symSize: 0x64 }
  - { offsetInCU: 0x2569E, offset: 0x88CD8, size: 0x8, addend: 0x0, symName: __ZNSt3__121__unwrap_and_dispatchB7v160006INS_10__overloadINS_11__move_loopINS_17_ClassicAlgPolicyEEENS_14__move_trivialEEENS_16reverse_iteratorIPcEES9_S9_Li0EEENS_4pairIT0_T2_EESB_T1_SC_, symObjAddr: 0x11F00, symBinAddr: 0x100031F28, symSize: 0x12C }
  - { offsetInCU: 0x2572E, offset: 0x88D68, size: 0x8, addend: 0x0, symName: __ZNSt3__114__unwrap_rangeB7v160006INS_16reverse_iteratorIPcEES3_EENS_4pairIT0_S5_EET_S7_, symObjAddr: 0x1202C, symBinAddr: 0x100032054, symSize: 0x84 }
  - { offsetInCU: 0x2584E, offset: 0x88E88, size: 0x8, addend: 0x0, symName: __ZNSt3__113__unwrap_iterB7v160006INS_16reverse_iteratorIPcEENS_18__unwrap_iter_implIS3_Lb0EEELi0EEEDTclsrT0_8__unwrapclsr3stdE7declvalIT_EEEES7_, symObjAddr: 0x12150, symBinAddr: 0x100032178, symSize: 0x44 }
  - { offsetInCU: 0x25891, offset: 0x88ECB, size: 0x8, addend: 0x0, symName: __ZNSt3__19make_pairB7v160006INS_16reverse_iteratorIPcEES3_EENS_4pairINS_18__unwrap_ref_decayIT_E4typeENS5_IT0_E4typeEEEOS6_OS9_, symObjAddr: 0x12194, symBinAddr: 0x1000321BC, symSize: 0x38 }
  - { offsetInCU: 0x258E1, offset: 0x88F1B, size: 0x8, addend: 0x0, symName: __ZNSt3__114__rewrap_rangeB7v160006INS_16reverse_iteratorIPcEES3_EET_S4_T0_, symObjAddr: 0x121CC, symBinAddr: 0x1000321F4, symSize: 0x5C }
  - { offsetInCU: 0x2592D, offset: 0x88F67, size: 0x8, addend: 0x0, symName: __ZNSt3__113__rewrap_iterB7v160006INS_16reverse_iteratorIPcEES3_NS_18__unwrap_iter_implIS3_Lb0EEEEET_S6_T0_, symObjAddr: 0x12228, symBinAddr: 0x100032250, symSize: 0x74 }
  - { offsetInCU: 0x25982, offset: 0x88FBC, size: 0x8, addend: 0x0, symName: __ZNSt3__1neB7v160006IPcS1_EEbRKNS_16reverse_iteratorIT_EERKNS2_IT0_EE, symObjAddr: 0x1229C, symBinAddr: 0x1000322C4, symSize: 0x48 }
  - { offsetInCU: 0x25A3A, offset: 0x89074, size: 0x8, addend: 0x0, symName: __ZNSt3__125__debug_db_invalidate_allB7v160006INS_12basic_stringIcNS_11char_traitsIcEENS_9allocatorIcEEEEEEvPT_, symObjAddr: 0x12E44, symBinAddr: 0x100032E6C, symSize: 0x10 }
  - { offsetInCU: 0x25A6B, offset: 0x890A5, size: 0x8, addend: 0x0, symName: __ZNSt3__118__debug_db_erase_cB7v160006INS_6vectorIcNS_9allocatorIcEEEEEEvPT_, symObjAddr: 0x1319C, symBinAddr: 0x100033110, symSize: 0x10 }
  - { offsetInCU: 0x25A9C, offset: 0x890D6, size: 0x8, addend: 0x0, symName: __ZNSt3__15beginB7v160006INS_12basic_stringIcNS_11char_traitsIcEENS_9allocatorIcEEEEEEDTcldtfp_5beginEERKT_, symObjAddr: 0x13248, symBinAddr: 0x1000331BC, symSize: 0x2C }
  - { offsetInCU: 0x25AD1, offset: 0x8910B, size: 0x8, addend: 0x0, symName: __ZNSt3__13endB7v160006INS_12basic_stringIcNS_11char_traitsIcEENS_9allocatorIcEEEEEEDTcldtfp_3endEERKT_, symObjAddr: 0x13274, symBinAddr: 0x1000331E8, symSize: 0x2C }
  - { offsetInCU: 0x25B06, offset: 0x89140, size: 0x8, addend: 0x0, symName: __ZNSt3__119__debug_db_insert_cB7v160006INS_6vectorIPN8nlohmann10basic_jsonINS_3mapES1_NS_12basic_stringIcNS_11char_traitsIcEENS_9allocatorIcEEEEbxydS8_NS2_14adl_serializerENS1_IhNS8_IhEEEEEENS8_ISF_EEEEEEvPT_, symObjAddr: 0x16E60, symBinAddr: 0x100036DD4, symSize: 0x10 }
  - { offsetInCU: 0x25B37, offset: 0x89171, size: 0x8, addend: 0x0, symName: __ZNSt3__125__debug_db_invalidate_allB7v160006INS_6vectorIbNS_9allocatorIbEEEEEEvPT_, symObjAddr: 0x17758, symBinAddr: 0x1000376CC, symSize: 0x10 }
  - { offsetInCU: 0x25B68, offset: 0x891A2, size: 0x8, addend: 0x0, symName: __ZNSt3__119__allocate_at_leastB7v160006INS_9allocatorImEEEENS_19__allocation_resultINS_16allocator_traitsIT_E7pointerEEERS5_m, symObjAddr: 0x179FC, symBinAddr: 0x100037954, symSize: 0x40 }
  - { offsetInCU: 0x25BAB, offset: 0x891E5, size: 0x8, addend: 0x0, symName: __ZNSt3__18distanceB7v160006INS_14__bit_iteratorINS_6vectorIbNS_9allocatorIbEEEELb0ELm0EEEEENS_15iterator_traitsIT_E15difference_typeES8_S8_, symObjAddr: 0x17B64, symBinAddr: 0x100037ABC, symSize: 0x5C }
  - { offsetInCU: 0x25BEF, offset: 0x89229, size: 0x8, addend: 0x0, symName: __ZNSt3__14copyB7v160006INS_6vectorIbNS_9allocatorIbEEEELb0EEENS_14__bit_iteratorIT_Lb0EXLi0EEEENS5_IS6_XT0_EXLi0EEEES8_S7_, symObjAddr: 0x17BF4, symBinAddr: 0x100037B4C, symSize: 0xE8 }
  - { offsetInCU: 0x25C52, offset: 0x8928C, size: 0x8, addend: 0x0, symName: __ZNSt3__110__distanceB7v160006INS_14__bit_iteratorINS_6vectorIbNS_9allocatorIbEEEELb0ELm0EEEEENS_15iterator_traitsIT_E15difference_typeES8_S8_NS_26random_access_iterator_tagE, symObjAddr: 0x17D40, symBinAddr: 0x100037C98, symSize: 0x38 }
  - { offsetInCU: 0x25CA1, offset: 0x892DB, size: 0x8, addend: 0x0, symName: __ZNSt3__1miB7v160006ERKNS_14__bit_iteratorINS_6vectorIbNS_9allocatorIbEEEELb0ELm0EEES7_, symObjAddr: 0x17D78, symBinAddr: 0x100037CD0, symSize: 0x48 }
  - { offsetInCU: 0x25CDF, offset: 0x89319, size: 0x8, addend: 0x0, symName: __ZNSt3__13minB7v160006IlEERKT_S3_S3_, symObjAddr: 0x185A8, symBinAddr: 0x100038500, symSize: 0x2C }
  - { offsetInCU: 0x25D22, offset: 0x8935C, size: 0x8, addend: 0x0, symName: __ZNSt3__112__to_addressB7v160006ImEEPT_S2_, symObjAddr: 0x18618, symBinAddr: 0x100038570, symSize: 0x14 }
  - { offsetInCU: 0x25D57, offset: 0x89391, size: 0x8, addend: 0x0, symName: __ZNSt3__13minB7v160006IlNS_6__lessIllEEEERKT_S5_S5_T0_, symObjAddr: 0x1862C, symBinAddr: 0x100038584, symSize: 0x54 }
  - { offsetInCU: 0x25DEC, offset: 0x89426, size: 0x8, addend: 0x0, symName: __ZNSt3__14copyB7v160006IPmS1_EET0_T_S3_S2_, symObjAddr: 0x186B4, symBinAddr: 0x10003860C, symSize: 0x40 }
  - { offsetInCU: 0x25E46, offset: 0x89480, size: 0x8, addend: 0x0, symName: __ZNSt3__16__copyB7v160006INS_17_ClassicAlgPolicyEPmS2_S2_EENS_4pairIT0_T2_EES4_T1_S5_, symObjAddr: 0x186F4, symBinAddr: 0x10003864C, symSize: 0x44 }
  - { offsetInCU: 0x25EB2, offset: 0x894EC, size: 0x8, addend: 0x0, symName: __ZNSt3__123__dispatch_copy_or_moveB7v160006INS_17_ClassicAlgPolicyENS_11__copy_loopIS1_EENS_14__copy_trivialEPmS5_S5_EENS_4pairIT2_T4_EES7_T3_S8_, symObjAddr: 0x18738, symBinAddr: 0x100038690, symSize: 0x44 }
  - { offsetInCU: 0x25F30, offset: 0x8956A, size: 0x8, addend: 0x0, symName: __ZNSt3__121__unwrap_and_dispatchB7v160006INS_10__overloadINS_11__copy_loopINS_17_ClassicAlgPolicyEEENS_14__copy_trivialEEEPmS7_S7_Li0EEENS_4pairIT0_T2_EES9_T1_SA_, symObjAddr: 0x1877C, symBinAddr: 0x1000386D4, symSize: 0xB4 }
  - { offsetInCU: 0x25FBE, offset: 0x895F8, size: 0x8, addend: 0x0, symName: __ZNSt3__114__unwrap_rangeB7v160006IPmS1_EENS_4pairIT0_S3_EET_S5_, symObjAddr: 0x18830, symBinAddr: 0x100038788, symSize: 0x60 }
  - { offsetInCU: 0x2618F, offset: 0x897C9, size: 0x8, addend: 0x0, symName: __ZNSt3__113__unwrap_iterB7v160006IPmNS_18__unwrap_iter_implIS1_Lb1EEELi0EEEDTclsrT0_8__unwrapclsr3stdE7declvalIT_EEEES5_, symObjAddr: 0x188D8, symBinAddr: 0x100038830, symSize: 0x24 }
  - { offsetInCU: 0x261D2, offset: 0x8980C, size: 0x8, addend: 0x0, symName: __ZNSt3__19make_pairB7v160006IPmS1_EENS_4pairINS_18__unwrap_ref_decayIT_E4typeENS3_IT0_E4typeEEEOS4_OS7_, symObjAddr: 0x188FC, symBinAddr: 0x100038854, symSize: 0x38 }
  - { offsetInCU: 0x26222, offset: 0x8985C, size: 0x8, addend: 0x0, symName: __ZNSt3__114__rewrap_rangeB7v160006IPmS1_EET_S2_T0_, symObjAddr: 0x18934, symBinAddr: 0x10003888C, symSize: 0x2C }
  - { offsetInCU: 0x2626E, offset: 0x898A8, size: 0x8, addend: 0x0, symName: __ZNSt3__113__rewrap_iterB7v160006IPmS1_NS_18__unwrap_iter_implIS1_Lb1EEEEET_S4_T0_, symObjAddr: 0x18960, symBinAddr: 0x1000388B8, symSize: 0x3C }
  - { offsetInCU: 0x262C3, offset: 0x898FD, size: 0x8, addend: 0x0, symName: __ZNSt3__119__copy_trivial_implB7v160006ImmEENS_4pairIPT_PT0_EES3_S3_S5_, symObjAddr: 0x1899C, symBinAddr: 0x1000388F4, symSize: 0x84 }
  - { offsetInCU: 0x2632A, offset: 0x89964, size: 0x8, addend: 0x0, symName: __ZNSt3__19make_pairB7v160006IRPmS1_EENS_4pairINS_18__unwrap_ref_decayIT_E4typeENS4_IT0_E4typeEEEOS5_OS8_, symObjAddr: 0x18A20, symBinAddr: 0x100038978, symSize: 0x38 }
  - { offsetInCU: 0x263CD, offset: 0x89A07, size: 0x8, addend: 0x0, symName: __ZNSt3__14swapB7v160006IPmEENS_9enable_ifIXaasr21is_move_constructibleIT_EE5valuesr18is_move_assignableIS3_EE5valueEvE4typeERS3_S6_, symObjAddr: 0x18C14, symBinAddr: 0x100038B6C, symSize: 0x3C }
  - { offsetInCU: 0x2641E, offset: 0x89A58, size: 0x8, addend: 0x0, symName: __ZNSt3__14swapB7v160006ImEENS_9enable_ifIXaasr21is_move_constructibleIT_EE5valuesr18is_move_assignableIS2_EE5valueEvE4typeERS2_S5_, symObjAddr: 0x18C50, symBinAddr: 0x100038BA8, symSize: 0x3C }
  - { offsetInCU: 0x2646F, offset: 0x89AA9, size: 0x8, addend: 0x0, symName: __ZNSt3__116__swap_allocatorB7v160006INS_9allocatorImEEEEvRT_S4_NS_17integral_constantIbLb0EEE, symObjAddr: 0x18C8C, symBinAddr: 0x100038BE4, symSize: 0x14 }
  - { offsetInCU: 0x264B3, offset: 0x89AED, size: 0x8, addend: 0x0, symName: __ZNSt3__125__debug_db_invalidate_allB7v160006INS_6vectorIbNS_9allocatorIbEEE16__destroy_vectorEEEvPT_, symObjAddr: 0x18ED4, symBinAddr: 0x100038E2C, symSize: 0x10 }
  - { offsetInCU: 0x264E4, offset: 0x89B1E, size: 0x8, addend: 0x0, symName: __ZNSt3__118__debug_db_erase_cB7v160006INS_6vectorIPN8nlohmann10basic_jsonINS_3mapES1_NS_12basic_stringIcNS_11char_traitsIcEENS_9allocatorIcEEEEbxydS8_NS2_14adl_serializerENS1_IhNS8_IhEEEEEENS8_ISF_EEEEEEvPT_, symObjAddr: 0x19110, symBinAddr: 0x100039068, symSize: 0x10 }
  - { offsetInCU: 0x26515, offset: 0x89B4F, size: 0x8, addend: 0x0, symName: __ZNSt3__112__to_addressB7v160006IPN8nlohmann10basic_jsonINS_3mapENS_6vectorENS_12basic_stringIcNS_11char_traitsIcEENS_9allocatorIcEEEEbxydS8_NS1_14adl_serializerENS4_IhNS8_IhEEEEEEEEPT_SH_, symObjAddr: 0x19254, symBinAddr: 0x1000391AC, symSize: 0x14 }
  - { offsetInCU: 0x26549, offset: 0x89B83, size: 0x8, addend: 0x0, symName: __ZNSt3__1plB7v160006IcNS_11char_traitsIcEENS_9allocatorIcEEEENS_12basic_stringIT_T0_T1_EEPKS6_OS9_, symObjAddr: 0x1A040, symBinAddr: 0x100039F98, symSize: 0x44 }
  - { offsetInCU: 0x266D4, offset: 0x89D0E, size: 0x8, addend: 0x0, symName: __ZNSt3__125__throw_bad_function_callB7v160006Ev, symObjAddr: 0x1A9D4, symBinAddr: 0x10003A92C, symSize: 0x38 }
  - { offsetInCU: 0x26724, offset: 0x89D5E, size: 0x8, addend: 0x0, symName: __ZNSt3__119__allocate_at_leastB7v160006INS_9allocatorIPN8nlohmann10basic_jsonINS_3mapENS_6vectorENS_12basic_stringIcNS_11char_traitsIcEENS1_IcEEEEbxydS1_NS2_14adl_serializerENS5_IhNS1_IhEEEEEEEEEENS_19__allocation_resultINS_16allocator_traitsIT_E7pointerEEERSJ_m, symObjAddr: 0x1B51C, symBinAddr: 0x10003B474, symSize: 0x40 }
  - { offsetInCU: 0x26766, offset: 0x89DA0, size: 0x8, addend: 0x0, symName: __ZNSt3__142__uninitialized_allocator_move_if_noexceptB7v160006INS_9allocatorIPN8nlohmann10basic_jsonINS_3mapENS_6vectorENS_12basic_stringIcNS_11char_traitsIcEENS1_IcEEEEbxydS1_NS2_14adl_serializerENS5_IhNS1_IhEEEEEEEENS_16reverse_iteratorIPSF_EESJ_SF_vEET1_RT_T0_SN_SK_, symObjAddr: 0x1B6D0, symBinAddr: 0x10003B628, symSize: 0x78 }
  - { offsetInCU: 0x267E4, offset: 0x89E1E, size: 0x8, addend: 0x0, symName: __ZNSt3__14swapB7v160006IPPN8nlohmann10basic_jsonINS_3mapENS_6vectorENS_12basic_stringIcNS_11char_traitsIcEENS_9allocatorIcEEEEbxydS8_NS1_14adl_serializerENS4_IhNS8_IhEEEEEEEENS_9enable_ifIXaasr21is_move_constructibleIT_EE5valuesr18is_move_assignableISI_EE5valueEvE4typeERSI_SL_, symObjAddr: 0x1B794, symBinAddr: 0x10003B6EC, symSize: 0x3C }
  - { offsetInCU: 0x26835, offset: 0x89E6F, size: 0x8, addend: 0x0, symName: __ZNSt3__125__debug_db_invalidate_allB7v160006INS_6vectorIPN8nlohmann10basic_jsonINS_3mapES1_NS_12basic_stringIcNS_11char_traitsIcEENS_9allocatorIcEEEEbxydS8_NS2_14adl_serializerENS1_IhNS8_IhEEEEEENS8_ISF_EEEEEEvPT_, symObjAddr: 0x1B87C, symBinAddr: 0x10003B7D4, symSize: 0x10 }
  - { offsetInCU: 0x26866, offset: 0x89EA0, size: 0x8, addend: 0x0, symName: __ZNSt3__14moveB7v160006INS_16reverse_iteratorIPPN8nlohmann10basic_jsonINS_3mapENS_6vectorENS_12basic_stringIcNS_11char_traitsIcEENS_9allocatorIcEEEEbxydS9_NS2_14adl_serializerENS5_IhNS9_IhEEEEEEEESI_EET0_T_SK_SJ_, symObjAddr: 0x1B88C, symBinAddr: 0x10003B7E4, symSize: 0x78 }
  - { offsetInCU: 0x268C0, offset: 0x89EFA, size: 0x8, addend: 0x0, symName: __ZNSt3__16__moveB7v160006INS_17_ClassicAlgPolicyENS_16reverse_iteratorIPPN8nlohmann10basic_jsonINS_3mapENS_6vectorENS_12basic_stringIcNS_11char_traitsIcEENS_9allocatorIcEEEEbxydSA_NS3_14adl_serializerENS6_IhNSA_IhEEEEEEEESJ_SJ_EENS_4pairIT0_T2_EESL_T1_SM_, symObjAddr: 0x1B904, symBinAddr: 0x10003B85C, symSize: 0x64 }
  - { offsetInCU: 0x2692C, offset: 0x89F66, size: 0x8, addend: 0x0, symName: __ZNSt3__123__dispatch_copy_or_moveB7v160006INS_17_ClassicAlgPolicyENS_11__move_loopIS1_EENS_14__move_trivialENS_16reverse_iteratorIPPN8nlohmann10basic_jsonINS_3mapENS_6vectorENS_12basic_stringIcNS_11char_traitsIcEENS_9allocatorIcEEEEbxydSD_NS6_14adl_serializerENS9_IhNSD_IhEEEEEEEESM_SM_EENS_4pairIT2_T4_EESO_T3_SP_, symObjAddr: 0x1B968, symBinAddr: 0x10003B8C0, symSize: 0x64 }
  - { offsetInCU: 0x269AA, offset: 0x89FE4, size: 0x8, addend: 0x0, symName: __ZNSt3__121__unwrap_and_dispatchB7v160006INS_10__overloadINS_11__move_loopINS_17_ClassicAlgPolicyEEENS_14__move_trivialEEENS_16reverse_iteratorIPPN8nlohmann10basic_jsonINS_3mapENS_6vectorENS_12basic_stringIcNS_11char_traitsIcEENS_9allocatorIcEEEEbxydSF_NS8_14adl_serializerENSB_IhNSF_IhEEEEEEEESO_SO_Li0EEENS_4pairIT0_T2_EESQ_T1_SR_, symObjAddr: 0x1B9CC, symBinAddr: 0x10003B924, symSize: 0x12C }
  - { offsetInCU: 0x26A3A, offset: 0x8A074, size: 0x8, addend: 0x0, symName: __ZNSt3__114__unwrap_rangeB7v160006INS_16reverse_iteratorIPPN8nlohmann10basic_jsonINS_3mapENS_6vectorENS_12basic_stringIcNS_11char_traitsIcEENS_9allocatorIcEEEEbxydS9_NS2_14adl_serializerENS5_IhNS9_IhEEEEEEEESI_EENS_4pairIT0_SK_EET_SM_, symObjAddr: 0x1BAF8, symBinAddr: 0x10003BA50, symSize: 0x84 }
  - { offsetInCU: 0x26B5A, offset: 0x8A194, size: 0x8, addend: 0x0, symName: __ZNSt3__113__unwrap_iterB7v160006INS_16reverse_iteratorIPPN8nlohmann10basic_jsonINS_3mapENS_6vectorENS_12basic_stringIcNS_11char_traitsIcEENS_9allocatorIcEEEEbxydS9_NS2_14adl_serializerENS5_IhNS9_IhEEEEEEEENS_18__unwrap_iter_implISI_Lb0EEELi0EEEDTclsrT0_8__unwrapclsr3stdE7declvalIT_EEEESM_, symObjAddr: 0x1BC1C, symBinAddr: 0x10003BB74, symSize: 0x44 }
  - { offsetInCU: 0x26B9D, offset: 0x8A1D7, size: 0x8, addend: 0x0, symName: __ZNSt3__19make_pairB7v160006INS_16reverse_iteratorIPPN8nlohmann10basic_jsonINS_3mapENS_6vectorENS_12basic_stringIcNS_11char_traitsIcEENS_9allocatorIcEEEEbxydS9_NS2_14adl_serializerENS5_IhNS9_IhEEEEEEEESI_EENS_4pairINS_18__unwrap_ref_decayIT_E4typeENSK_IT0_E4typeEEEOSL_OSO_, symObjAddr: 0x1BC60, symBinAddr: 0x10003BBB8, symSize: 0x38 }
  - { offsetInCU: 0x26BED, offset: 0x8A227, size: 0x8, addend: 0x0, symName: __ZNSt3__114__rewrap_rangeB7v160006INS_16reverse_iteratorIPPN8nlohmann10basic_jsonINS_3mapENS_6vectorENS_12basic_stringIcNS_11char_traitsIcEENS_9allocatorIcEEEEbxydS9_NS2_14adl_serializerENS5_IhNS9_IhEEEEEEEESI_EET_SJ_T0_, symObjAddr: 0x1BC98, symBinAddr: 0x10003BBF0, symSize: 0x5C }
  - { offsetInCU: 0x26C39, offset: 0x8A273, size: 0x8, addend: 0x0, symName: __ZNSt3__113__rewrap_iterB7v160006INS_16reverse_iteratorIPPN8nlohmann10basic_jsonINS_3mapENS_6vectorENS_12basic_stringIcNS_11char_traitsIcEENS_9allocatorIcEEEEbxydS9_NS2_14adl_serializerENS5_IhNS9_IhEEEEEEEESI_NS_18__unwrap_iter_implISI_Lb0EEEEET_SL_T0_, symObjAddr: 0x1BCF4, symBinAddr: 0x10003BC4C, symSize: 0x74 }
  - { offsetInCU: 0x26C8E, offset: 0x8A2C8, size: 0x8, addend: 0x0, symName: __ZNSt3__1neB7v160006IPPN8nlohmann10basic_jsonINS_3mapENS_6vectorENS_12basic_stringIcNS_11char_traitsIcEENS_9allocatorIcEEEEbxydS8_NS1_14adl_serializerENS4_IhNS8_IhEEEEEESG_EEbRKNS_16reverse_iteratorIT_EERKNSH_IT0_EE, symObjAddr: 0x1BD68, symBinAddr: 0x10003BCC0, symSize: 0x48 }
  - { offsetInCU: 0x26D46, offset: 0x8A380, size: 0x8, addend: 0x0, symName: __ZNSt3__119__debug_db_insert_iB7v160006INS_11__wrap_iterIPN8nlohmann10basic_jsonINS_3mapENS_6vectorENS_12basic_stringIcNS_11char_traitsIcEENS_9allocatorIcEEEEbxydS9_NS2_14adl_serializerENS5_IhNS9_IhEEEEEEEEEEvPT_, symObjAddr: 0x1CF64, symBinAddr: 0x10003CEBC, symSize: 0x10 }
  - { offsetInCU: 0x26D77, offset: 0x8A3B1, size: 0x8, addend: 0x0, symName: __ZNSt3__1neB7v160006IPN8nlohmann10basic_jsonINS_3mapENS_6vectorENS_12basic_stringIcNS_11char_traitsIcEENS_9allocatorIcEEEEbxydS8_NS1_14adl_serializerENS4_IhNS8_IhEEEEEEEEbRKNS_11__wrap_iterIT_EESK_, symObjAddr: 0x1D024, symBinAddr: 0x10003CF7C, symSize: 0x34 }
  - { offsetInCU: 0x26DED, offset: 0x8A427, size: 0x8, addend: 0x0, symName: __ZNSt3__1eqB7v160006IPN8nlohmann10basic_jsonINS_3mapENS_6vectorENS_12basic_stringIcNS_11char_traitsIcEENS_9allocatorIcEEEEbxydS8_NS1_14adl_serializerENS4_IhNS8_IhEEEEEEEEbRKNS_11__wrap_iterIT_EESK_, symObjAddr: 0x1D238, symBinAddr: 0x10003D190, symSize: 0x48 }
  - { offsetInCU: 0x26E2F, offset: 0x8A469, size: 0x8, addend: 0x0, symName: __ZNSt3__113__tree_removeB7v160006IPNS_16__tree_node_baseIPvEEEEvT_S5_, symObjAddr: 0x1D968, symBinAddr: 0x10003D8C0, symSize: 0x6EC }
  - { offsetInCU: 0x26EAE, offset: 0x8A4E8, size: 0x8, addend: 0x0, symName: __ZNSt3__111__tree_nextB7v160006IPNS_16__tree_node_baseIPvEEEET_S5_, symObjAddr: 0x1E074, symBinAddr: 0x10003DFCC, symSize: 0x80 }
  - { offsetInCU: 0x26EE2, offset: 0x8A51C, size: 0x8, addend: 0x0, symName: __ZNSt3__118__tree_left_rotateB7v160006IPNS_16__tree_node_baseIPvEEEEvT_, symObjAddr: 0x1E114, symBinAddr: 0x10003E06C, symSize: 0xCC }
  - { offsetInCU: 0x26F24, offset: 0x8A55E, size: 0x8, addend: 0x0, symName: __ZNSt3__119__tree_right_rotateB7v160006IPNS_16__tree_node_baseIPvEEEEvT_, symObjAddr: 0x1E1E0, symBinAddr: 0x10003E138, symSize: 0xCC }
  - { offsetInCU: 0x26F67, offset: 0x8A5A1, size: 0x8, addend: 0x0, symName: __ZNSt3__1miB7v160006IPKN8nlohmann10basic_jsonINS_3mapENS_6vectorENS_12basic_stringIcNS_11char_traitsIcEENS_9allocatorIcEEEEbxydS8_NS1_14adl_serializerENS4_IhNS8_IhEEEEEESG_EEDTmicldtfp_4baseEcldtfp0_4baseEERKNS_11__wrap_iterIT_EERKNSI_IT0_EE, symObjAddr: 0x1E2CC, symBinAddr: 0x10003E224, symSize: 0x48 }
  - { offsetInCU: 0x26FB3, offset: 0x8A5ED, size: 0x8, addend: 0x0, symName: __ZNSt3__14moveB7v160006IPN8nlohmann10basic_jsonINS_3mapENS_6vectorENS_12basic_stringIcNS_11char_traitsIcEENS_9allocatorIcEEEEbxydS8_NS1_14adl_serializerENS4_IhNS8_IhEEEEEESF_EET0_T_SH_SG_, symObjAddr: 0x1E340, symBinAddr: 0x10003E298, symSize: 0x40 }
  - { offsetInCU: 0x2700D, offset: 0x8A647, size: 0x8, addend: 0x0, symName: __ZNSt3__16__moveB7v160006INS_17_ClassicAlgPolicyEPN8nlohmann10basic_jsonINS_3mapENS_6vectorENS_12basic_stringIcNS_11char_traitsIcEENS_9allocatorIcEEEEbxydS9_NS2_14adl_serializerENS5_IhNS9_IhEEEEEESG_SG_EENS_4pairIT0_T2_EESI_T1_SJ_, symObjAddr: 0x1E45C, symBinAddr: 0x10003E3B4, symSize: 0x44 }
  - { offsetInCU: 0x27079, offset: 0x8A6B3, size: 0x8, addend: 0x0, symName: __ZNSt3__123__dispatch_copy_or_moveB7v160006INS_17_ClassicAlgPolicyENS_11__move_loopIS1_EENS_14__move_trivialEPN8nlohmann10basic_jsonINS_3mapENS_6vectorENS_12basic_stringIcNS_11char_traitsIcEENS_9allocatorIcEEEEbxydSC_NS5_14adl_serializerENS8_IhNSC_IhEEEEEESJ_SJ_EENS_4pairIT2_T4_EESL_T3_SM_, symObjAddr: 0x1E4A0, symBinAddr: 0x10003E3F8, symSize: 0x44 }
  - { offsetInCU: 0x270F7, offset: 0x8A731, size: 0x8, addend: 0x0, symName: __ZNSt3__121__unwrap_and_dispatchB7v160006INS_10__overloadINS_11__move_loopINS_17_ClassicAlgPolicyEEENS_14__move_trivialEEEPN8nlohmann10basic_jsonINS_3mapENS_6vectorENS_12basic_stringIcNS_11char_traitsIcEENS_9allocatorIcEEEEbxydSE_NS7_14adl_serializerENSA_IhNSE_IhEEEEEESL_SL_Li0EEENS_4pairIT0_T2_EESN_T1_SO_, symObjAddr: 0x1E4E4, symBinAddr: 0x10003E43C, symSize: 0xB4 }
  - { offsetInCU: 0x27185, offset: 0x8A7BF, size: 0x8, addend: 0x0, symName: __ZNSt3__114__unwrap_rangeB7v160006IPN8nlohmann10basic_jsonINS_3mapENS_6vectorENS_12basic_stringIcNS_11char_traitsIcEENS_9allocatorIcEEEEbxydS8_NS1_14adl_serializerENS4_IhNS8_IhEEEEEESF_EENS_4pairIT0_SH_EET_SJ_, symObjAddr: 0x1E598, symBinAddr: 0x10003E4F0, symSize: 0x60 }
  - { offsetInCU: 0x271D1, offset: 0x8A80B, size: 0x8, addend: 0x0, symName: __ZNSt3__113__unwrap_iterB7v160006IPN8nlohmann10basic_jsonINS_3mapENS_6vectorENS_12basic_stringIcNS_11char_traitsIcEENS_9allocatorIcEEEEbxydS8_NS1_14adl_serializerENS4_IhNS8_IhEEEEEENS_18__unwrap_iter_implISF_Lb1EEELi0EEEDTclsrT0_8__unwrapclsr3stdE7declvalIT_EEEESJ_, symObjAddr: 0x1E6A0, symBinAddr: 0x10003E5F8, symSize: 0x24 }
  - { offsetInCU: 0x27215, offset: 0x8A84F, size: 0x8, addend: 0x0, symName: __ZNSt3__114__rewrap_rangeB7v160006IPN8nlohmann10basic_jsonINS_3mapENS_6vectorENS_12basic_stringIcNS_11char_traitsIcEENS_9allocatorIcEEEEbxydS8_NS1_14adl_serializerENS4_IhNS8_IhEEEEEESF_EET_SG_T0_, symObjAddr: 0x1E6C4, symBinAddr: 0x10003E61C, symSize: 0x2C }
  - { offsetInCU: 0x27261, offset: 0x8A89B, size: 0x8, addend: 0x0, symName: __ZNSt3__113__rewrap_iterB7v160006IPN8nlohmann10basic_jsonINS_3mapENS_6vectorENS_12basic_stringIcNS_11char_traitsIcEENS_9allocatorIcEEEEbxydS8_NS1_14adl_serializerENS4_IhNS8_IhEEEEEESF_NS_18__unwrap_iter_implISF_Lb1EEEEET_SI_T0_, symObjAddr: 0x1E6F0, symBinAddr: 0x10003E648, symSize: 0x3C }
  - { offsetInCU: 0x27308, offset: 0x8A942, size: 0x8, addend: 0x0, symName: __ZNSt3__19__advanceB7v160006INS_14__map_iteratorINS_15__tree_iteratorINS_12__value_typeINS_12basic_stringIcNS_11char_traitsIcEENS_9allocatorIcEEEEN8nlohmann10basic_jsonINS_3mapENS_6vectorES9_bxydS7_NSA_14adl_serializerENSD_IhNS7_IhEEEEEEEEPNS_11__tree_nodeISI_PvEElEEEEEEvRT_NS_15iterator_traitsISP_E15difference_typeENS_26bidirectional_iterator_tagE, symObjAddr: 0x1E9D4, symBinAddr: 0x10003E92C, symSize: 0xA4 }
  - { offsetInCU: 0x27354, offset: 0x8A98E, size: 0x8, addend: 0x0, symName: __ZNSt3__116__tree_prev_iterB7v160006IPNS_16__tree_node_baseIPvEEPNS_15__tree_end_nodeIS4_EEEET_T0_, symObjAddr: 0x1EADC, symBinAddr: 0x10003EA34, symSize: 0x88 }
  - { offsetInCU: 0x273A0, offset: 0x8A9DA, size: 0x8, addend: 0x0, symName: __ZNSt3__110__tree_maxB7v160006IPNS_16__tree_node_baseIPvEEEET_S5_, symObjAddr: 0x1EB64, symBinAddr: 0x10003EABC, symSize: 0x40 }
  - { offsetInCU: 0x273D4, offset: 0x8AA0E, size: 0x8, addend: 0x0, symName: __ZNSt3__19__advanceB7v160006INS_11__wrap_iterIPN8nlohmann10basic_jsonINS_3mapENS_6vectorENS_12basic_stringIcNS_11char_traitsIcEENS_9allocatorIcEEEEbxydS9_NS2_14adl_serializerENS5_IhNS9_IhEEEEEEEEEEvRT_NS_15iterator_traitsISI_E15difference_typeENS_26random_access_iterator_tagE, symObjAddr: 0x1EBA4, symBinAddr: 0x10003EAFC, symSize: 0x2C }
  - { offsetInCU: 0x2775F, offset: 0x8AD99, size: 0x8, addend: 0x0, symName: __ZNSt3__1neB7v160006INS_12basic_stringIcNS_11char_traitsIcEENS_9allocatorIcEEEEZN8nlohmann10basic_jsonINS_3mapENS_6vectorES6_bxydS4_NS7_14adl_serializerENSA_IhNS4_IhEEEEE6createIS6_JRKS6_EEEPT_DpOT0_EUlPS6_E_EEbRKNS_10unique_ptrISI_T0_EEDn, symObjAddr: 0x1EFB8, symBinAddr: 0x10003EF10, symSize: 0x2C }
  - { offsetInCU: 0x277E1, offset: 0x8AE1B, size: 0x8, addend: 0x0, symName: __ZNSt3__116forward_as_tupleB7v160006IJRKNS_12basic_stringIcNS_11char_traitsIcEENS_9allocatorIcEEEEEEENS_5tupleIJDpOT_EEESC_, symObjAddr: 0x1F410, symBinAddr: 0x10003F368, symSize: 0x2C }
  - { offsetInCU: 0x2781A, offset: 0x8AE54, size: 0x8, addend: 0x0, symName: __ZNSt3__116forward_as_tupleB7v160006IJEEENS_5tupleIJDpOT_EEES4_, symObjAddr: 0x1F43C, symBinAddr: 0x10003F394, symSize: 0x4 }
  - { offsetInCU: 0x2783E, offset: 0x8AE78, size: 0x8, addend: 0x0, symName: __ZNSt3__1ltB7v160006IcNS_11char_traitsIcEENS_9allocatorIcEEEEbRKNS_12basic_stringIT_T0_T1_EESB_, symObjAddr: 0x1F9F0, symBinAddr: 0x10003F948, symSize: 0x38 }
  - { offsetInCU: 0x278BB, offset: 0x8AEF5, size: 0x8, addend: 0x0, symName: __ZNSt3__118__constexpr_memcmpB7v160006IcEEiPKT_S3_m, symObjAddr: 0x1FC8C, symBinAddr: 0x10003FBE4, symSize: 0x34 }
  - { offsetInCU: 0x2790B, offset: 0x8AF45, size: 0x8, addend: 0x0, symName: __ZNSt3__17launderB7v160006IKNS_4pairIKNS_12basic_stringIcNS_11char_traitsIcEENS_9allocatorIcEEEEN8nlohmann10basic_jsonINS_3mapENS_6vectorES7_bxydS5_NS9_14adl_serializerENSC_IhNS5_IhEEEEEEEEEEPT_SK_, symObjAddr: 0x1FD4C, symBinAddr: 0x10003FCA4, symSize: 0x24 }
  - { offsetInCU: 0x27942, offset: 0x8AF7C, size: 0x8, addend: 0x0, symName: __ZNSt3__19__launderB7v160006IKNS_4pairIKNS_12basic_stringIcNS_11char_traitsIcEENS_9allocatorIcEEEEN8nlohmann10basic_jsonINS_3mapENS_6vectorES7_bxydS5_NS9_14adl_serializerENSC_IhNS5_IhEEEEEEEEEEPT_SK_, symObjAddr: 0x1FD70, symBinAddr: 0x10003FCC8, symSize: 0x14 }
  - { offsetInCU: 0x279A3, offset: 0x8AFDD, size: 0x8, addend: 0x0, symName: __ZNSt3__13getB7v160006ILm0EJRKNS_12basic_stringIcNS_11char_traitsIcEENS_9allocatorIcEEEEEEERNS_13tuple_elementIXT_ENS_5tupleIJDpT0_EEEE4typeERSD_, symObjAddr: 0x2017C, symBinAddr: 0x1000400D4, symSize: 0x24 }
  - { offsetInCU: 0x279E6, offset: 0x8B020, size: 0x8, addend: 0x0, symName: __ZNSt3__127__tree_balance_after_insertB7v160006IPNS_16__tree_node_baseIPvEEEEvT_S5_, symObjAddr: 0x2022C, symBinAddr: 0x100040184, symSize: 0x27C }
  - { offsetInCU: 0x27D4A, offset: 0x8B384, size: 0x8, addend: 0x0, symName: __ZNSt3__14swapB7v160006IN8nlohmann6detail7value_tEEENS_9enable_ifIXaasr21is_move_constructibleIT_EE5valuesr18is_move_assignableIS5_EE5valueEvE4typeERS5_S8_, symObjAddr: 0x25A10, symBinAddr: 0x100045968, symSize: 0x3C }
  - { offsetInCU: 0x27D9B, offset: 0x8B3D5, size: 0x8, addend: 0x0, symName: __ZNSt3__14swapB7v160006IN8nlohmann10basic_jsonINS_3mapENS_6vectorENS_12basic_stringIcNS_11char_traitsIcEENS_9allocatorIcEEEEbxydS8_NS1_14adl_serializerENS4_IhNS8_IhEEEEE10json_valueEEENS_9enable_ifIXaasr21is_move_constructibleIT_EE5valuesr18is_move_assignableISH_EE5valueEvE4typeERSH_SK_, symObjAddr: 0x25A4C, symBinAddr: 0x1000459A4, symSize: 0x3C }
  - { offsetInCU: 0x27DEC, offset: 0x8B426, size: 0x8, addend: 0x0, symName: __ZNSt3__115__debug_db_swapB7v160006INS_6vectorIhNS_9allocatorIhEEEEEEvPT_S6_, symObjAddr: 0x25C14, symBinAddr: 0x100045B6C, symSize: 0x14 }
  - { offsetInCU: 0x27E2B, offset: 0x8B465, size: 0x8, addend: 0x0, symName: __ZNSt3__125__debug_db_invalidate_allB7v160006INS_6vectorIhNS_9allocatorIhEEEEEEvPT_, symObjAddr: 0x25D30, symBinAddr: 0x100045C88, symSize: 0x10 }
  - { offsetInCU: 0x27E5B, offset: 0x8B495, size: 0x8, addend: 0x0, symName: __ZNSt3__116forward_as_tupleB7v160006IJNS_12basic_stringIcNS_11char_traitsIcEENS_9allocatorIcEEEEEEENS_5tupleIJDpOT_EEESA_, symObjAddr: 0x25F6C, symBinAddr: 0x100045EC4, symSize: 0x2C }
  - { offsetInCU: 0x27E94, offset: 0x8B4CE, size: 0x8, addend: 0x0, symName: __ZNSt3__13getB7v160006ILm0EJONS_12basic_stringIcNS_11char_traitsIcEENS_9allocatorIcEEEEEEERNS_13tuple_elementIXT_ENS_5tupleIJDpT0_EEEE4typeERSC_, symObjAddr: 0x2620C, symBinAddr: 0x100046164, symSize: 0x24 }
  - { offsetInCU: 0x2822C, offset: 0x8B866, size: 0x8, addend: 0x0, symName: __ZNSt3__1neB7v160006INS_3mapINS_12basic_stringIcNS_11char_traitsIcEENS_9allocatorIcEEEEN8nlohmann10basic_jsonIS1_NS_6vectorES7_bxydS5_NS8_14adl_serializerENSA_IhNS5_IhEEEEEENS_4lessIvEENS5_INS_4pairIKS7_SE_EEEEEEZNSE_6createISL_JRKSL_EEEPT_DpOT0_EUlPSL_E_EEbRKNS_10unique_ptrISP_T0_EEDn, symObjAddr: 0x27124, symBinAddr: 0x10004707C, symSize: 0x2C }
  - { offsetInCU: 0x28277, offset: 0x8B8B1, size: 0x8, addend: 0x0, symName: __ZNSt3__1neB7v160006ERKNS_20__map_const_iteratorINS_21__tree_const_iteratorINS_12__value_typeINS_12basic_stringIcNS_11char_traitsIcEENS_9allocatorIcEEEEN8nlohmann10basic_jsonINS_3mapENS_6vectorES8_bxydS6_NS9_14adl_serializerENSC_IhNS6_IhEEEEEEEEPNS_11__tree_nodeISH_PvEElEEEESP_, symObjAddr: 0x276C4, symBinAddr: 0x10004761C, symSize: 0x30 }
  - { offsetInCU: 0x282B4, offset: 0x8B8EE, size: 0x8, addend: 0x0, symName: __ZNSt3__1neB7v160006ERKNS_21__tree_const_iteratorINS_12__value_typeINS_12basic_stringIcNS_11char_traitsIcEENS_9allocatorIcEEEEN8nlohmann10basic_jsonINS_3mapENS_6vectorES7_bxydS5_NS8_14adl_serializerENSB_IhNS5_IhEEEEEEEEPNS_11__tree_nodeISG_PvEElEESN_, symObjAddr: 0x277CC, symBinAddr: 0x100047724, symSize: 0x34 }
  - { offsetInCU: 0x282F1, offset: 0x8B92B, size: 0x8, addend: 0x0, symName: __ZNSt3__1eqB7v160006ERKNS_21__tree_const_iteratorINS_12__value_typeINS_12basic_stringIcNS_11char_traitsIcEENS_9allocatorIcEEEEN8nlohmann10basic_jsonINS_3mapENS_6vectorES7_bxydS5_NS8_14adl_serializerENSB_IhNS5_IhEEEEEEEEPNS_11__tree_nodeISG_PvEElEESN_, symObjAddr: 0x27800, symBinAddr: 0x100047758, symSize: 0x30 }
  - { offsetInCU: 0x28353, offset: 0x8B98D, size: 0x8, addend: 0x0, symName: __ZNSt3__14nextB7v160006INS_21__tree_const_iteratorINS_12__value_typeINS_12basic_stringIcNS_11char_traitsIcEENS_9allocatorIcEEEEN8nlohmann10basic_jsonINS_3mapENS_6vectorES8_bxydS6_NS9_14adl_serializerENSC_IhNS6_IhEEEEEEEEPNS_11__tree_nodeISH_PvEElEEEENS_9enable_ifIXsr25__is_cpp17_input_iteratorIT_EE5valueESO_E4typeESO_NS_15iterator_traitsISO_E15difference_typeE, symObjAddr: 0x27DF0, symBinAddr: 0x100047D48, symSize: 0x50 }
  - { offsetInCU: 0x28396, offset: 0x8B9D0, size: 0x8, addend: 0x0, symName: __ZNSt3__121__convert_to_integralB7v160006El, symObjAddr: 0x27E90, symBinAddr: 0x100047DE8, symSize: 0x14 }
  - { offsetInCU: 0x283C1, offset: 0x8B9FB, size: 0x8, addend: 0x0, symName: __ZNSt3__19__advanceB7v160006INS_21__tree_const_iteratorINS_12__value_typeINS_12basic_stringIcNS_11char_traitsIcEENS_9allocatorIcEEEEN8nlohmann10basic_jsonINS_3mapENS_6vectorES8_bxydS6_NS9_14adl_serializerENSC_IhNS6_IhEEEEEEEEPNS_11__tree_nodeISH_PvEElEEEEvRT_NS_15iterator_traitsISN_E15difference_typeENS_26bidirectional_iterator_tagE, symObjAddr: 0x27EA4, symBinAddr: 0x100047DFC, symSize: 0xA4 }
  - { offsetInCU: 0x2877F, offset: 0x8BDB9, size: 0x8, addend: 0x0, symName: __ZNSt3__1neB7v160006INS_6vectorIN8nlohmann10basic_jsonINS_3mapES1_NS_12basic_stringIcNS_11char_traitsIcEENS_9allocatorIcEEEEbxydS8_NS2_14adl_serializerENS1_IhNS8_IhEEEEEENS8_ISE_EEEEZNSE_6createISG_JRKSG_EEEPT_DpOT0_EUlPSG_E_EEbRKNS_10unique_ptrISK_T0_EEDn, symObjAddr: 0x2851C, symBinAddr: 0x100048474, symSize: 0x2C }
  - { offsetInCU: 0x287CB, offset: 0x8BE05, size: 0x8, addend: 0x0, symName: __ZNSt3__122__make_exception_guardB7v160006INS_6vectorIN8nlohmann10basic_jsonINS_3mapES1_NS_12basic_stringIcNS_11char_traitsIcEENS_9allocatorIcEEEEbxydS8_NS2_14adl_serializerENS1_IhNS8_IhEEEEEENS8_ISE_EEE16__destroy_vectorEEENS_28__exception_guard_exceptionsIT_EESJ_, symObjAddr: 0x28868, symBinAddr: 0x1000487C0, symSize: 0x40 }
  - { offsetInCU: 0x287FF, offset: 0x8BE39, size: 0x8, addend: 0x0, symName: __ZNSt3__130__uninitialized_allocator_copyB7v160006INS_9allocatorIN8nlohmann10basic_jsonINS_3mapENS_6vectorENS_12basic_stringIcNS_11char_traitsIcEENS1_IcEEEEbxydS1_NS2_14adl_serializerENS5_IhNS1_IhEEEEEEEEPSE_SG_SG_EET2_RT_T0_T1_SH_, symObjAddr: 0x28ADC, symBinAddr: 0x100048A34, symSize: 0xF4 }
  - { offsetInCU: 0x2889E, offset: 0x8BED8, size: 0x8, addend: 0x0, symName: __ZNSt3__122__make_exception_guardB7v160006INS_29_AllocatorDestroyRangeReverseINS_9allocatorIN8nlohmann10basic_jsonINS_3mapENS_6vectorENS_12basic_stringIcNS_11char_traitsIcEENS2_IcEEEEbxydS2_NS3_14adl_serializerENS6_IhNS2_IhEEEEEEEEPSF_EEEENS_28__exception_guard_exceptionsIT_EESK_, symObjAddr: 0x28BD0, symBinAddr: 0x100048B28, symSize: 0x4C }
  - { offsetInCU: 0x288D3, offset: 0x8BF0D, size: 0x8, addend: 0x0, symName: __ZNSt3__119__allocator_destroyB7v160006INS_9allocatorIN8nlohmann10basic_jsonINS_3mapENS_6vectorENS_12basic_stringIcNS_11char_traitsIcEENS1_IcEEEEbxydS1_NS2_14adl_serializerENS5_IhNS1_IhEEEEEEEENS_16reverse_iteratorIPSE_EESI_EEvRT_T0_T1_, symObjAddr: 0x28E60, symBinAddr: 0x100048DB8, symSize: 0x70 }
  - { offsetInCU: 0x28C76, offset: 0x8C2B0, size: 0x8, addend: 0x0, symName: __ZNSt3__1neB7v160006IN8nlohmann27byte_container_with_subtypeINS_6vectorIhNS_9allocatorIhEEEEEEZNS1_10basic_jsonINS_3mapES3_NS_12basic_stringIcNS_11char_traitsIcEENS4_IcEEEEbxydS4_NS1_14adl_serializerES6_E6createIS7_JRKS7_EEEPT_DpOT0_EUlPS7_E_EEbRKNS_10unique_ptrISK_T0_EEDn, symObjAddr: 0x29284, symBinAddr: 0x1000491DC, symSize: 0x2C }
  - { offsetInCU: 0x28CC2, offset: 0x8C2FC, size: 0x8, addend: 0x0, symName: __ZNSt3__122__make_exception_guardB7v160006INS_6vectorIhNS_9allocatorIhEEE16__destroy_vectorEEENS_28__exception_guard_exceptionsIT_EES7_, symObjAddr: 0x29638, symBinAddr: 0x100049590, symSize: 0x40 }
  - { offsetInCU: 0x28CF7, offset: 0x8C331, size: 0x8, addend: 0x0, symName: __ZNSt3__119__allocate_at_leastB7v160006INS_9allocatorIhEEEENS_19__allocation_resultINS_16allocator_traitsIT_E7pointerEEERS5_m, symObjAddr: 0x29960, symBinAddr: 0x1000498B8, symSize: 0x40 }
  - { offsetInCU: 0x28D39, offset: 0x8C373, size: 0x8, addend: 0x0, symName: __ZNSt3__130__uninitialized_allocator_copyB7v160006INS_9allocatorIhEEPhS3_S3_EET2_RT_T0_T1_S4_, symObjAddr: 0x29B18, symBinAddr: 0x100049A70, symSize: 0xF4 }
  - { offsetInCU: 0x28DD8, offset: 0x8C412, size: 0x8, addend: 0x0, symName: __ZNSt3__122__make_exception_guardB7v160006INS_29_AllocatorDestroyRangeReverseINS_9allocatorIhEEPhEEEENS_28__exception_guard_exceptionsIT_EES7_, symObjAddr: 0x29C7C, symBinAddr: 0x100049BD4, symSize: 0x4C }
  - { offsetInCU: 0x28E0D, offset: 0x8C447, size: 0x8, addend: 0x0, symName: __ZNSt3__119__allocator_destroyB7v160006INS_9allocatorIhEENS_16reverse_iteratorIPhEES5_EEvRT_T0_T1_, symObjAddr: 0x29F04, symBinAddr: 0x100049E5C, symSize: 0x70 }
  - { offsetInCU: 0x28E71, offset: 0x8C4AB, size: 0x8, addend: 0x0, symName: __ZNSt3__1neB7v160006IPhS1_EEbRKNS_16reverse_iteratorIT_EERKNS2_IT0_EE, symObjAddr: 0x29FA8, symBinAddr: 0x100049F00, symSize: 0x48 }
  - { offsetInCU: 0x28EBD, offset: 0x8C4F7, size: 0x8, addend: 0x0, symName: __ZNSt3__112__to_addressB7v160006INS_16reverse_iteratorIPhEEvEENS_5decayIDTclsr19__to_address_helperIT_EE6__callclsr3stdE7declvalIRKS5_EEEEE4typeES7_, symObjAddr: 0x29FF0, symBinAddr: 0x100049F48, symSize: 0x24 }
  - { offsetInCU: 0x28F1B, offset: 0x8C555, size: 0x8, addend: 0x0, symName: __ZNSt3__130__uninitialized_allocator_copyB7v160006INS_9allocatorIfEEPfS3_S3_EET2_RT_T0_T1_S4_, symObjAddr: 0x2AEB8, symBinAddr: 0x10004A40C, symSize: 0xF4 }
  - { offsetInCU: 0x28FBA, offset: 0x8C5F4, size: 0x8, addend: 0x0, symName: __ZNSt3__122__make_exception_guardB7v160006INS_29_AllocatorDestroyRangeReverseINS_9allocatorIfEEPfEEEENS_28__exception_guard_exceptionsIT_EES7_, symObjAddr: 0x2B01C, symBinAddr: 0x10004A500, symSize: 0x4C }
  - { offsetInCU: 0x28FEF, offset: 0x8C629, size: 0x8, addend: 0x0, symName: __ZNSt3__119__allocator_destroyB7v160006INS_9allocatorIfEENS_16reverse_iteratorIPfEES5_EEvRT_T0_T1_, symObjAddr: 0x2B2A4, symBinAddr: 0x10004A788, symSize: 0x70 }
  - { offsetInCU: 0x29053, offset: 0x8C68D, size: 0x8, addend: 0x0, symName: __ZNSt3__112__to_addressB7v160006INS_16reverse_iteratorIPfEEvEENS_5decayIDTclsr19__to_address_helperIT_EE6__callclsr3stdE7declvalIRKS5_EEEEE4typeES7_, symObjAddr: 0x2B390, symBinAddr: 0x10004A7F8, symSize: 0x24 }
  - { offsetInCU: 0x290B2, offset: 0x8C6EC, size: 0x8, addend: 0x0, symName: __ZNSt3__118__debug_db_erase_cB7v160006INS_6vectorIN3glm3vecILi2EfLNS2_9qualifierE0EEENS_9allocatorIS5_EEEEEEvPT_, symObjAddr: 0x2BBD4, symBinAddr: 0x10004AA64, symSize: 0x10 }
  - { offsetInCU: 0x290E3, offset: 0x8C71D, size: 0x8, addend: 0x0, symName: __ZNSt3__112__to_addressB7v160006IN3glm3vecILi2EfLNS1_9qualifierE0EEEEEPT_S6_, symObjAddr: 0x2BD18, symBinAddr: 0x10004ABA8, symSize: 0x14 }
  - { offsetInCU: 0x29117, offset: 0x8C751, size: 0x8, addend: 0x0, symName: __ZNSt3__130__uninitialized_allocator_copyB7v160006INS_9allocatorIN3glm3vecILi3EfLNS2_9qualifierE0EEEEEPS5_S7_S7_EET2_RT_T0_T1_S8_, symObjAddr: 0x2C5F0, symBinAddr: 0x10004AFA8, symSize: 0xF4 }
  - { offsetInCU: 0x291B6, offset: 0x8C7F0, size: 0x8, addend: 0x0, symName: __ZNSt3__122__make_exception_guardB7v160006INS_29_AllocatorDestroyRangeReverseINS_9allocatorIN3glm3vecILi3EfLNS3_9qualifierE0EEEEEPS6_EEEENS_28__exception_guard_exceptionsIT_EESB_, symObjAddr: 0x2C75C, symBinAddr: 0x10004B09C, symSize: 0x4C }
  - { offsetInCU: 0x291EB, offset: 0x8C825, size: 0x8, addend: 0x0, symName: __ZNSt3__119__allocator_destroyB7v160006INS_9allocatorIN3glm3vecILi3EfLNS2_9qualifierE0EEEEENS_16reverse_iteratorIPS5_EES9_EEvRT_T0_T1_, symObjAddr: 0x2C9EC, symBinAddr: 0x10004B32C, symSize: 0x70 }
  - { offsetInCU: 0x2924F, offset: 0x8C889, size: 0x8, addend: 0x0, symName: __ZNSt3__112__to_addressB7v160006INS_16reverse_iteratorIPN3glm3vecILi3EfLNS2_9qualifierE0EEEEEvEENS_5decayIDTclsr19__to_address_helperIT_EE6__callclsr3stdE7declvalIRKS9_EEEEE4typeESB_, symObjAddr: 0x2CAD8, symBinAddr: 0x10004B39C, symSize: 0x24 }
  - { offsetInCU: 0x292AE, offset: 0x8C8E8, size: 0x8, addend: 0x0, symName: __ZNSt3__122__make_exception_guardB7v160006INS_6vectorIN3glm3vecILi2EfLNS2_9qualifierE0EEENS_9allocatorIS5_EEE16__destroy_vectorEEENS_28__exception_guard_exceptionsIT_EESB_, symObjAddr: 0x2CDD8, symBinAddr: 0x10004B5A4, symSize: 0x40 }
  - { offsetInCU: 0x292E3, offset: 0x8C91D, size: 0x8, addend: 0x0, symName: __ZNSt3__119__debug_db_insert_cB7v160006INS_6vectorIN3glm3vecILi2EfLNS2_9qualifierE0EEENS_9allocatorIS5_EEEEEEvPT_, symObjAddr: 0x2CE18, symBinAddr: 0x10004B5E4, symSize: 0x10 }
  - { offsetInCU: 0x29314, offset: 0x8C94E, size: 0x8, addend: 0x0, symName: __ZNSt3__119__allocate_at_leastB7v160006INS_9allocatorIN3glm3vecILi2EfLNS2_9qualifierE0EEEEEEENS_19__allocation_resultINS_16allocator_traitsIT_E7pointerEEERS9_m, symObjAddr: 0x2D12C, symBinAddr: 0x10004B8F8, symSize: 0x40 }
  - { offsetInCU: 0x29356, offset: 0x8C990, size: 0x8, addend: 0x0, symName: __ZNSt3__130__uninitialized_allocator_copyB7v160006INS_9allocatorIN3glm3vecILi2EfLNS2_9qualifierE0EEEEEPS5_S7_S7_EET2_RT_T0_T1_S8_, symObjAddr: 0x2D344, symBinAddr: 0x10004BB10, symSize: 0xF4 }
  - { offsetInCU: 0x293F5, offset: 0x8CA2F, size: 0x8, addend: 0x0, symName: __ZNSt3__122__make_exception_guardB7v160006INS_29_AllocatorDestroyRangeReverseINS_9allocatorIN3glm3vecILi2EfLNS3_9qualifierE0EEEEEPS6_EEEENS_28__exception_guard_exceptionsIT_EESB_, symObjAddr: 0x2D4A8, symBinAddr: 0x10004BC74, symSize: 0x4C }
  - { offsetInCU: 0x2942A, offset: 0x8CA64, size: 0x8, addend: 0x0, symName: __ZNSt3__119__allocator_destroyB7v160006INS_9allocatorIN3glm3vecILi2EfLNS2_9qualifierE0EEEEENS_16reverse_iteratorIPS5_EES9_EEvRT_T0_T1_, symObjAddr: 0x2D730, symBinAddr: 0x10004BEFC, symSize: 0x70 }
  - { offsetInCU: 0x2948E, offset: 0x8CAC8, size: 0x8, addend: 0x0, symName: __ZNSt3__1neB7v160006IPN3glm3vecILi2EfLNS1_9qualifierE0EEES5_EEbRKNS_16reverse_iteratorIT_EERKNS6_IT0_EE, symObjAddr: 0x2D7D4, symBinAddr: 0x10004BFA0, symSize: 0x48 }
  - { offsetInCU: 0x294DA, offset: 0x8CB14, size: 0x8, addend: 0x0, symName: __ZNSt3__112__to_addressB7v160006INS_16reverse_iteratorIPN3glm3vecILi2EfLNS2_9qualifierE0EEEEEvEENS_5decayIDTclsr19__to_address_helperIT_EE6__callclsr3stdE7declvalIRKS9_EEEEE4typeESB_, symObjAddr: 0x2D81C, symBinAddr: 0x10004BFE8, symSize: 0x24 }
  - { offsetInCU: 0x29539, offset: 0x8CB73, size: 0x8, addend: 0x0, symName: __ZNSt3__115__debug_db_swapB7v160006INS_6vectorIjNS_9allocatorIjEEEEEEvPT_S6_, symObjAddr: 0x2EB00, symBinAddr: 0x10004C680, symSize: 0x14 }
  - { offsetInCU: 0x29578, offset: 0x8CBB2, size: 0x8, addend: 0x0, symName: __ZNSt3__115__debug_db_swapB7v160006INS_6vectorI7TextureNS_9allocatorIS2_EEEEEEvPT_S7_, symObjAddr: 0x2ED04, symBinAddr: 0x10004C808, symSize: 0x14 }
  - { offsetInCU: 0x295B7, offset: 0x8CBF1, size: 0x8, addend: 0x0, symName: __ZNSt3__119__allocate_at_leastB7v160006INS_9allocatorI4MeshEEEENS_19__allocation_resultINS_16allocator_traitsIT_E7pointerEEERS6_m, symObjAddr: 0x2F264, symBinAddr: 0x10004CD08, symSize: 0x40 }
  - { offsetInCU: 0x295F9, offset: 0x8CC33, size: 0x8, addend: 0x0, symName: __ZNSt3__142__uninitialized_allocator_move_if_noexceptB7v160006INS_9allocatorI4MeshEENS_16reverse_iteratorIPS2_EES6_S6_EET2_RT_T0_T1_S7_, symObjAddr: 0x2F41C, symBinAddr: 0x10004CEC0, symSize: 0x12C }
  - { offsetInCU: 0x2969A, offset: 0x8CCD4, size: 0x8, addend: 0x0, symName: __ZNSt3__14swapB7v160006IP4MeshEENS_9enable_ifIXaasr21is_move_constructibleIT_EE5valuesr18is_move_assignableIS4_EE5valueEvE4typeERS4_S7_, symObjAddr: 0x2F594, symBinAddr: 0x10004D038, symSize: 0x3C }
  - { offsetInCU: 0x296EB, offset: 0x8CD25, size: 0x8, addend: 0x0, symName: __ZNSt3__125__debug_db_invalidate_allB7v160006INS_6vectorI4MeshNS_9allocatorIS2_EEEEEEvPT_, symObjAddr: 0x2F698, symBinAddr: 0x10004D13C, symSize: 0x10 }
  - { offsetInCU: 0x2971C, offset: 0x8CD56, size: 0x8, addend: 0x0, symName: __ZNSt3__122__make_exception_guardB7v160006INS_29_AllocatorDestroyRangeReverseINS_9allocatorI4MeshEENS_16reverse_iteratorIPS3_EEEEEENS_28__exception_guard_exceptionsIT_EESA_, symObjAddr: 0x2F6A8, symBinAddr: 0x10004D14C, symSize: 0x4C }
  - { offsetInCU: 0x29752, offset: 0x8CD8C, size: 0x8, addend: 0x0, symName: __ZNSt3__1neB7v160006IP4MeshS2_EEbRKNS_16reverse_iteratorIT_EERKNS3_IT0_EE, symObjAddr: 0x2F738, symBinAddr: 0x10004D1DC, symSize: 0x48 }
  - { offsetInCU: 0x2979E, offset: 0x8CDD8, size: 0x8, addend: 0x0, symName: __ZNSt3__112__to_addressB7v160006INS_16reverse_iteratorIP4MeshEEvEENS_5decayIDTclsr19__to_address_helperIT_EE6__callclsr3stdE7declvalIRKS6_EEEEE4typeES8_, symObjAddr: 0x2F780, symBinAddr: 0x10004D224, symSize: 0x24 }
  - { offsetInCU: 0x297FC, offset: 0x8CE36, size: 0x8, addend: 0x0, symName: __ZNSt3__119__allocator_destroyB7v160006INS_9allocatorI4MeshEENS_16reverse_iteratorINS4_IPS2_EEEES7_EEvRT_T0_T1_, symObjAddr: 0x2FA30, symBinAddr: 0x10004D4D4, symSize: 0x70 }
  - { offsetInCU: 0x29862, offset: 0x8CE9C, size: 0x8, addend: 0x0, symName: __ZNSt3__1neB7v160006INS_16reverse_iteratorIP4MeshEES4_EEbRKNS1_IT_EERKNS1_IT0_EE, symObjAddr: 0x2FADC, symBinAddr: 0x10004D580, symSize: 0x60 }
  - { offsetInCU: 0x298AE, offset: 0x8CEE8, size: 0x8, addend: 0x0, symName: __ZNSt3__112__to_addressB7v160006INS_16reverse_iteratorINS1_IP4MeshEEEEvEENS_5decayIDTclsr19__to_address_helperIT_EE6__callclsr3stdE7declvalIRKS7_EEEEE4typeES9_, symObjAddr: 0x2FB3C, symBinAddr: 0x10004D5E0, symSize: 0x24 }
  - { offsetInCU: 0x29930, offset: 0x8CF6A, size: 0x8, addend: 0x0, symName: __ZNSt3__1ltB7v160006IcNS_11char_traitsIcEENS_9allocatorIcEEEEbRKNS_12basic_stringIT_T0_T1_EEPKS6_, symObjAddr: 0x309A0, symBinAddr: 0x10004DC18, symSize: 0x38 }
  - { offsetInCU: 0x29988, offset: 0x8CFC2, size: 0x8, addend: 0x0, symName: __ZNSt3__1ltB7v160006IcNS_11char_traitsIcEENS_9allocatorIcEEEEbPKT_RKNS_12basic_stringIS5_T0_T1_EE, symObjAddr: 0x30A0C, symBinAddr: 0x10004DC84, symSize: 0x38 }
  - { offsetInCU: 0x299E0, offset: 0x8D01A, size: 0x8, addend: 0x0, symName: __ZNSt3__1eqB7v160006ERKNS_14__map_iteratorINS_15__tree_iteratorINS_12__value_typeINS_12basic_stringIcNS_11char_traitsIcEENS_9allocatorIcEEEEN8nlohmann10basic_jsonINS_3mapENS_6vectorES8_bxydS6_NS9_14adl_serializerENSC_IhNS6_IhEEEEEEEEPNS_11__tree_nodeISH_PvEElEEEESP_, symObjAddr: 0x30D38, symBinAddr: 0x10004DFB0, symSize: 0x30 }
  - { offsetInCU: 0x29A1E, offset: 0x8D058, size: 0x8, addend: 0x0, symName: __ZNSt3__18distanceB7v160006INS_11__wrap_iterIPcEEEENS_15iterator_traitsIT_E15difference_typeES5_S5_, symObjAddr: 0x33BDC, symBinAddr: 0x10004F420, symSize: 0x3C }
  - { offsetInCU: 0x29A61, offset: 0x8D09B, size: 0x8, addend: 0x0, symName: __ZNSt3__110__distanceB7v160006INS_11__wrap_iterIPcEEEENS_15iterator_traitsIT_E15difference_typeES5_S5_NS_26random_access_iterator_tagE, symObjAddr: 0x33CB4, symBinAddr: 0x10004F4F8, symSize: 0x30 }
  - { offsetInCU: 0x29AAF, offset: 0x8D0E9, size: 0x8, addend: 0x0, symName: __ZNSt3__1miB7v160006IPcS1_EEDTmicldtfp_4baseEcldtfp0_4baseEERKNS_11__wrap_iterIT_EERKNS3_IT0_EE, symObjAddr: 0x33CE4, symBinAddr: 0x10004F528, symSize: 0x40 }
  - { offsetInCU: 0x29AFA, offset: 0x8D134, size: 0x8, addend: 0x0, symName: __ZNSt3__130__uninitialized_allocator_copyB7v160006INS_9allocatorIhEENS_11__wrap_iterIPcEES5_PhEET2_RT_T0_T1_S7_, symObjAddr: 0x33D3C, symBinAddr: 0x10004F580, symSize: 0xF8 }
  - { offsetInCU: 0x29B99, offset: 0x8D1D3, size: 0x8, addend: 0x0, symName: __ZNSt3__1neB7v160006IPcEEbRKNS_11__wrap_iterIT_EES6_, symObjAddr: 0x33E34, symBinAddr: 0x10004F678, symSize: 0x34 }
  - { offsetInCU: 0x29BDC, offset: 0x8D216, size: 0x8, addend: 0x0, symName: __ZNSt3__1eqB7v160006IPcEEbRKNS_11__wrap_iterIT_EES6_, symObjAddr: 0x33ED4, symBinAddr: 0x10004F718, symSize: 0x48 }
  - { offsetInCU: 0x29C1E, offset: 0x8D258, size: 0x8, addend: 0x0, symName: __ZNSt3__142__uninitialized_allocator_move_if_noexceptB7v160006INS_9allocatorIjEENS_16reverse_iteratorIPjEES5_jvEET1_RT_T0_S9_S6_, symObjAddr: 0x36524, symBinAddr: 0x100050AE4, symSize: 0x78 }
  - { offsetInCU: 0x29C9C, offset: 0x8D2D6, size: 0x8, addend: 0x0, symName: __ZNSt3__14swapB7v160006IPjEENS_9enable_ifIXaasr21is_move_constructibleIT_EE5valuesr18is_move_assignableIS3_EE5valueEvE4typeERS3_S6_, symObjAddr: 0x365E8, symBinAddr: 0x100050B5C, symSize: 0x3C }
  - { offsetInCU: 0x29CED, offset: 0x8D327, size: 0x8, addend: 0x0, symName: __ZNSt3__14moveB7v160006INS_16reverse_iteratorIPjEES3_EET0_T_S5_S4_, symObjAddr: 0x366E0, symBinAddr: 0x100050B98, symSize: 0x78 }
  - { offsetInCU: 0x29D47, offset: 0x8D381, size: 0x8, addend: 0x0, symName: __ZNSt3__16__moveB7v160006INS_17_ClassicAlgPolicyENS_16reverse_iteratorIPjEES4_S4_EENS_4pairIT0_T2_EES6_T1_S7_, symObjAddr: 0x36758, symBinAddr: 0x100050C10, symSize: 0x64 }
  - { offsetInCU: 0x29DB3, offset: 0x8D3ED, size: 0x8, addend: 0x0, symName: __ZNSt3__123__dispatch_copy_or_moveB7v160006INS_17_ClassicAlgPolicyENS_11__move_loopIS1_EENS_14__move_trivialENS_16reverse_iteratorIPjEES7_S7_EENS_4pairIT2_T4_EES9_T3_SA_, symObjAddr: 0x367BC, symBinAddr: 0x100050C74, symSize: 0x64 }
  - { offsetInCU: 0x29E31, offset: 0x8D46B, size: 0x8, addend: 0x0, symName: __ZNSt3__121__unwrap_and_dispatchB7v160006INS_10__overloadINS_11__move_loopINS_17_ClassicAlgPolicyEEENS_14__move_trivialEEENS_16reverse_iteratorIPjEES9_S9_Li0EEENS_4pairIT0_T2_EESB_T1_SC_, symObjAddr: 0x36820, symBinAddr: 0x100050CD8, symSize: 0x12C }
  - { offsetInCU: 0x29EC1, offset: 0x8D4FB, size: 0x8, addend: 0x0, symName: __ZNSt3__114__unwrap_rangeB7v160006INS_16reverse_iteratorIPjEES3_EENS_4pairIT0_S5_EET_S7_, symObjAddr: 0x3694C, symBinAddr: 0x100050E04, symSize: 0x84 }
  - { offsetInCU: 0x29FE1, offset: 0x8D61B, size: 0x8, addend: 0x0, symName: __ZNSt3__113__unwrap_iterB7v160006INS_16reverse_iteratorIPjEENS_18__unwrap_iter_implIS3_Lb0EEELi0EEEDTclsrT0_8__unwrapclsr3stdE7declvalIT_EEEES7_, symObjAddr: 0x36A70, symBinAddr: 0x100050F28, symSize: 0x44 }
  - { offsetInCU: 0x2A024, offset: 0x8D65E, size: 0x8, addend: 0x0, symName: __ZNSt3__19make_pairB7v160006INS_16reverse_iteratorIPjEES3_EENS_4pairINS_18__unwrap_ref_decayIT_E4typeENS5_IT0_E4typeEEEOS6_OS9_, symObjAddr: 0x36AB4, symBinAddr: 0x100050F6C, symSize: 0x38 }
  - { offsetInCU: 0x2A074, offset: 0x8D6AE, size: 0x8, addend: 0x0, symName: __ZNSt3__114__rewrap_rangeB7v160006INS_16reverse_iteratorIPjEES3_EET_S4_T0_, symObjAddr: 0x36AEC, symBinAddr: 0x100050FA4, symSize: 0x5C }
  - { offsetInCU: 0x2A0C0, offset: 0x8D6FA, size: 0x8, addend: 0x0, symName: __ZNSt3__113__rewrap_iterB7v160006INS_16reverse_iteratorIPjEES3_NS_18__unwrap_iter_implIS3_Lb0EEEEET_S6_T0_, symObjAddr: 0x36B48, symBinAddr: 0x100051000, symSize: 0x74 }
  - { offsetInCU: 0x2A180, offset: 0x8D7BA, size: 0x8, addend: 0x0, symName: __ZNSt3__142__uninitialized_allocator_move_if_noexceptB7v160006INS_9allocatorI7TextureEENS_16reverse_iteratorIPS2_EES6_S2_vEET1_RT_T0_SA_S7_, symObjAddr: 0x37814, symBinAddr: 0x1000518D8, symSize: 0x78 }
  - { offsetInCU: 0x2A1FE, offset: 0x8D838, size: 0x8, addend: 0x0, symName: __ZNSt3__14swapB7v160006IP7TextureEENS_9enable_ifIXaasr21is_move_constructibleIT_EE5valuesr18is_move_assignableIS4_EE5valueEvE4typeERS4_S7_, symObjAddr: 0x378D8, symBinAddr: 0x100051950, symSize: 0x3C }
  - { offsetInCU: 0x2A24F, offset: 0x8D889, size: 0x8, addend: 0x0, symName: __ZNSt3__14moveB7v160006INS_16reverse_iteratorIP7TextureEES4_EET0_T_S6_S5_, symObjAddr: 0x379EC, symBinAddr: 0x10005198C, symSize: 0x78 }
  - { offsetInCU: 0x2A2A9, offset: 0x8D8E3, size: 0x8, addend: 0x0, symName: __ZNSt3__16__moveB7v160006INS_17_ClassicAlgPolicyENS_16reverse_iteratorIP7TextureEES5_S5_EENS_4pairIT0_T2_EES7_T1_S8_, symObjAddr: 0x37A64, symBinAddr: 0x100051A04, symSize: 0x64 }
  - { offsetInCU: 0x2A315, offset: 0x8D94F, size: 0x8, addend: 0x0, symName: __ZNSt3__123__dispatch_copy_or_moveB7v160006INS_17_ClassicAlgPolicyENS_11__move_loopIS1_EENS_14__move_trivialENS_16reverse_iteratorIP7TextureEES8_S8_EENS_4pairIT2_T4_EESA_T3_SB_, symObjAddr: 0x37AC8, symBinAddr: 0x100051A68, symSize: 0x64 }
  - { offsetInCU: 0x2A393, offset: 0x8D9CD, size: 0x8, addend: 0x0, symName: __ZNSt3__121__unwrap_and_dispatchB7v160006INS_10__overloadINS_11__move_loopINS_17_ClassicAlgPolicyEEENS_14__move_trivialEEENS_16reverse_iteratorIP7TextureEESA_SA_Li0EEENS_4pairIT0_T2_EESC_T1_SD_, symObjAddr: 0x37B2C, symBinAddr: 0x100051ACC, symSize: 0x12C }
  - { offsetInCU: 0x2A423, offset: 0x8DA5D, size: 0x8, addend: 0x0, symName: __ZNSt3__114__unwrap_rangeB7v160006INS_16reverse_iteratorIP7TextureEES4_EENS_4pairIT0_S6_EET_S8_, symObjAddr: 0x37C58, symBinAddr: 0x100051BF8, symSize: 0x84 }
  - { offsetInCU: 0x2A543, offset: 0x8DB7D, size: 0x8, addend: 0x0, symName: __ZNSt3__113__unwrap_iterB7v160006INS_16reverse_iteratorIP7TextureEENS_18__unwrap_iter_implIS4_Lb0EEELi0EEEDTclsrT0_8__unwrapclsr3stdE7declvalIT_EEEES8_, symObjAddr: 0x37D84, symBinAddr: 0x100051D24, symSize: 0x44 }
  - { offsetInCU: 0x2A586, offset: 0x8DBC0, size: 0x8, addend: 0x0, symName: __ZNSt3__19make_pairB7v160006INS_16reverse_iteratorIP7TextureEES4_EENS_4pairINS_18__unwrap_ref_decayIT_E4typeENS6_IT0_E4typeEEEOS7_OSA_, symObjAddr: 0x37DC8, symBinAddr: 0x100051D68, symSize: 0x38 }
  - { offsetInCU: 0x2A5D6, offset: 0x8DC10, size: 0x8, addend: 0x0, symName: __ZNSt3__114__rewrap_rangeB7v160006INS_16reverse_iteratorIP7TextureEES4_EET_S5_T0_, symObjAddr: 0x37E00, symBinAddr: 0x100051DA0, symSize: 0x5C }
  - { offsetInCU: 0x2A622, offset: 0x8DC5C, size: 0x8, addend: 0x0, symName: __ZNSt3__113__rewrap_iterB7v160006INS_16reverse_iteratorIP7TextureEES4_NS_18__unwrap_iter_implIS4_Lb0EEEEET_S7_T0_, symObjAddr: 0x37E5C, symBinAddr: 0x100051DFC, symSize: 0x74 }
  - { offsetInCU: 0x2A6E2, offset: 0x8DD1C, size: 0x8, addend: 0x0, symName: __ZNSt3__110__str_findB7v160006IcmNS_11char_traitsIcEELm18446744073709551615EEET0_PKT_S3_S6_S3_S3_, symObjAddr: 0x38260, symBinAddr: 0x100052148, symSize: 0xE4 }
  - { offsetInCU: 0x2A789, offset: 0x8DDC3, size: 0x8, addend: 0x0, symName: __ZNSt3__118__search_substringB7v160006IcNS_11char_traitsIcEEEEPKT_S5_S5_S5_S5_, symObjAddr: 0x38344, symBinAddr: 0x10005222C, symSize: 0x154 }
  - { offsetInCU: 0x2A824, offset: 0x8DE5E, size: 0x8, addend: 0x0, symName: __ZNSt3__123__constexpr_char_memchrB7v160006EPKcim, symObjAddr: 0x38508, symBinAddr: 0x1000523F0, symSize: 0x34 }
  - { offsetInCU: 0x2A86C, offset: 0x8DEA6, size: 0x8, addend: 0x0, symName: __ZNSt3__119__allocate_at_leastB7v160006INS_9allocatorINS_12basic_stringIcNS_11char_traitsIcEENS1_IcEEEEEEEENS_19__allocation_resultINS_16allocator_traitsIT_E7pointerEEERSA_m, symObjAddr: 0x38BF8, symBinAddr: 0x100052AE0, symSize: 0x40 }
  - { offsetInCU: 0x2A8AE, offset: 0x8DEE8, size: 0x8, addend: 0x0, symName: __ZNSt3__142__uninitialized_allocator_move_if_noexceptB7v160006INS_9allocatorINS_12basic_stringIcNS_11char_traitsIcEENS1_IcEEEEEENS_16reverse_iteratorIPS6_EESA_SA_EET2_RT_T0_T1_SB_, symObjAddr: 0x38D54, symBinAddr: 0x100052C3C, symSize: 0x12C }
  - { offsetInCU: 0x2A94F, offset: 0x8DF89, size: 0x8, addend: 0x0, symName: __ZNSt3__14swapB7v160006IPNS_12basic_stringIcNS_11char_traitsIcEENS_9allocatorIcEEEEEENS_9enable_ifIXaasr21is_move_constructibleIT_EE5valuesr18is_move_assignableIS9_EE5valueEvE4typeERS9_SC_, symObjAddr: 0x38ECC, symBinAddr: 0x100052DB4, symSize: 0x3C }
  - { offsetInCU: 0x2A9A0, offset: 0x8DFDA, size: 0x8, addend: 0x0, symName: __ZNSt3__125__debug_db_invalidate_allB7v160006INS_6vectorINS_12basic_stringIcNS_11char_traitsIcEENS_9allocatorIcEEEENS5_IS7_EEEEEEvPT_, symObjAddr: 0x38FD0, symBinAddr: 0x100052EB8, symSize: 0x10 }
  - { offsetInCU: 0x2A9D1, offset: 0x8E00B, size: 0x8, addend: 0x0, symName: __ZNSt3__122__make_exception_guardB7v160006INS_29_AllocatorDestroyRangeReverseINS_9allocatorINS_12basic_stringIcNS_11char_traitsIcEENS2_IcEEEEEENS_16reverse_iteratorIPS7_EEEEEENS_28__exception_guard_exceptionsIT_EESE_, symObjAddr: 0x38FE0, symBinAddr: 0x100052EC8, symSize: 0x4C }
  - { offsetInCU: 0x2AA07, offset: 0x8E041, size: 0x8, addend: 0x0, symName: __ZNSt3__1neB7v160006IPNS_12basic_stringIcNS_11char_traitsIcEENS_9allocatorIcEEEES7_EEbRKNS_16reverse_iteratorIT_EERKNS8_IT0_EE, symObjAddr: 0x39070, symBinAddr: 0x100052F58, symSize: 0x48 }
  - { offsetInCU: 0x2AA53, offset: 0x8E08D, size: 0x8, addend: 0x0, symName: __ZNSt3__112__to_addressB7v160006INS_16reverse_iteratorIPNS_12basic_stringIcNS_11char_traitsIcEENS_9allocatorIcEEEEEEvEENS_5decayIDTclsr19__to_address_helperIT_EE6__callclsr3stdE7declvalIRKSB_EEEEE4typeESD_, symObjAddr: 0x390EC, symBinAddr: 0x100052FD4, symSize: 0x24 }
  - { offsetInCU: 0x2AAB1, offset: 0x8E0EB, size: 0x8, addend: 0x0, symName: __ZNSt3__119__allocator_destroyB7v160006INS_9allocatorINS_12basic_stringIcNS_11char_traitsIcEENS1_IcEEEEEENS_16reverse_iteratorINS8_IPS6_EEEESB_EEvRT_T0_T1_, symObjAddr: 0x393CC, symBinAddr: 0x1000532B4, symSize: 0x70 }
  - { offsetInCU: 0x2AB17, offset: 0x8E151, size: 0x8, addend: 0x0, symName: __ZNSt3__1neB7v160006INS_16reverse_iteratorIPNS_12basic_stringIcNS_11char_traitsIcEENS_9allocatorIcEEEEEES9_EEbRKNS1_IT_EERKNS1_IT0_EE, symObjAddr: 0x39478, symBinAddr: 0x100053360, symSize: 0x60 }
  - { offsetInCU: 0x2AB63, offset: 0x8E19D, size: 0x8, addend: 0x0, symName: __ZNSt3__112__to_addressB7v160006INS_16reverse_iteratorINS1_IPNS_12basic_stringIcNS_11char_traitsIcEENS_9allocatorIcEEEEEEEEvEENS_5decayIDTclsr19__to_address_helperIT_EE6__callclsr3stdE7declvalIRKSC_EEEEE4typeESE_, symObjAddr: 0x394D8, symBinAddr: 0x1000533C0, symSize: 0x24 }
  - { offsetInCU: 0x2ABC1, offset: 0x8E1FB, size: 0x8, addend: 0x0, symName: __ZNSt3__142__uninitialized_allocator_move_if_noexceptB7v160006INS_9allocatorIN3glm3vecILi2EfLNS2_9qualifierE0EEEEENS_16reverse_iteratorIPS5_EES9_S5_vEET1_RT_T0_SD_SA_, symObjAddr: 0x3B3F8, symBinAddr: 0x100053E90, symSize: 0x78 }
  - { offsetInCU: 0x2AC3F, offset: 0x8E279, size: 0x8, addend: 0x0, symName: __ZNSt3__14swapB7v160006IPN3glm3vecILi2EfLNS1_9qualifierE0EEEEENS_9enable_ifIXaasr21is_move_constructibleIT_EE5valuesr18is_move_assignableIS7_EE5valueEvE4typeERS7_SA_, symObjAddr: 0x3B470, symBinAddr: 0x100053F08, symSize: 0x3C }
  - { offsetInCU: 0x2AC90, offset: 0x8E2CA, size: 0x8, addend: 0x0, symName: __ZNSt3__125__debug_db_invalidate_allB7v160006INS_6vectorIN3glm3vecILi2EfLNS2_9qualifierE0EEENS_9allocatorIS5_EEEEEEvPT_, symObjAddr: 0x3B4AC, symBinAddr: 0x100053F44, symSize: 0x10 }
  - { offsetInCU: 0x2ACC1, offset: 0x8E2FB, size: 0x8, addend: 0x0, symName: __ZNSt3__14moveB7v160006INS_16reverse_iteratorIPN3glm3vecILi2EfLNS2_9qualifierE0EEEEES7_EET0_T_S9_S8_, symObjAddr: 0x3B4BC, symBinAddr: 0x100053F54, symSize: 0x78 }
  - { offsetInCU: 0x2AD1B, offset: 0x8E355, size: 0x8, addend: 0x0, symName: __ZNSt3__16__moveB7v160006INS_17_ClassicAlgPolicyENS_16reverse_iteratorIPN3glm3vecILi2EfLNS3_9qualifierE0EEEEES8_S8_EENS_4pairIT0_T2_EESA_T1_SB_, symObjAddr: 0x3B534, symBinAddr: 0x100053FCC, symSize: 0x64 }
  - { offsetInCU: 0x2AD87, offset: 0x8E3C1, size: 0x8, addend: 0x0, symName: __ZNSt3__123__dispatch_copy_or_moveB7v160006INS_17_ClassicAlgPolicyENS_11__move_loopIS1_EENS_14__move_trivialENS_16reverse_iteratorIPN3glm3vecILi2EfLNS6_9qualifierE0EEEEESB_SB_EENS_4pairIT2_T4_EESD_T3_SE_, symObjAddr: 0x3B598, symBinAddr: 0x100054030, symSize: 0x64 }
  - { offsetInCU: 0x2AE05, offset: 0x8E43F, size: 0x8, addend: 0x0, symName: __ZNSt3__121__unwrap_and_dispatchB7v160006INS_10__overloadINS_11__move_loopINS_17_ClassicAlgPolicyEEENS_14__move_trivialEEENS_16reverse_iteratorIPN3glm3vecILi2EfLNS8_9qualifierE0EEEEESD_SD_Li0EEENS_4pairIT0_T2_EESF_T1_SG_, symObjAddr: 0x3B5FC, symBinAddr: 0x100054094, symSize: 0x12C }
  - { offsetInCU: 0x2AE95, offset: 0x8E4CF, size: 0x8, addend: 0x0, symName: __ZNSt3__114__unwrap_rangeB7v160006INS_16reverse_iteratorIPN3glm3vecILi2EfLNS2_9qualifierE0EEEEES7_EENS_4pairIT0_S9_EET_SB_, symObjAddr: 0x3B728, symBinAddr: 0x1000541C0, symSize: 0x84 }
  - { offsetInCU: 0x2AFB5, offset: 0x8E5EF, size: 0x8, addend: 0x0, symName: __ZNSt3__113__unwrap_iterB7v160006INS_16reverse_iteratorIPN3glm3vecILi2EfLNS2_9qualifierE0EEEEENS_18__unwrap_iter_implIS7_Lb0EEELi0EEEDTclsrT0_8__unwrapclsr3stdE7declvalIT_EEEESB_, symObjAddr: 0x3B84C, symBinAddr: 0x1000542E4, symSize: 0x44 }
  - { offsetInCU: 0x2AFF8, offset: 0x8E632, size: 0x8, addend: 0x0, symName: __ZNSt3__19make_pairB7v160006INS_16reverse_iteratorIPN3glm3vecILi2EfLNS2_9qualifierE0EEEEES7_EENS_4pairINS_18__unwrap_ref_decayIT_E4typeENS9_IT0_E4typeEEEOSA_OSD_, symObjAddr: 0x3B890, symBinAddr: 0x100054328, symSize: 0x38 }
  - { offsetInCU: 0x2B048, offset: 0x8E682, size: 0x8, addend: 0x0, symName: __ZNSt3__114__rewrap_rangeB7v160006INS_16reverse_iteratorIPN3glm3vecILi2EfLNS2_9qualifierE0EEEEES7_EET_S8_T0_, symObjAddr: 0x3B8C8, symBinAddr: 0x100054360, symSize: 0x5C }
  - { offsetInCU: 0x2B094, offset: 0x8E6CE, size: 0x8, addend: 0x0, symName: __ZNSt3__113__rewrap_iterB7v160006INS_16reverse_iteratorIPN3glm3vecILi2EfLNS2_9qualifierE0EEEEES7_NS_18__unwrap_iter_implIS7_Lb0EEEEET_SA_T0_, symObjAddr: 0x3B924, symBinAddr: 0x1000543BC, symSize: 0x74 }
  - { offsetInCU: 0x2B155, offset: 0x8E78F, size: 0x8, addend: 0x0, symName: __ZNSt3__119__debug_db_insert_cB7v160006INS_6vectorIN3glm3vecILi4EfLNS2_9qualifierE0EEENS_9allocatorIS5_EEEEEEvPT_, symObjAddr: 0x3CD00, symBinAddr: 0x10005479C, symSize: 0x10 }
  - { offsetInCU: 0x2B186, offset: 0x8E7C0, size: 0x8, addend: 0x0, symName: __ZNSt3__118__debug_db_erase_cB7v160006INS_6vectorIN3glm3vecILi4EfLNS2_9qualifierE0EEENS_9allocatorIS5_EEEEEEvPT_, symObjAddr: 0x3CFC4, symBinAddr: 0x100054A60, symSize: 0x10 }
  - { offsetInCU: 0x2B1B7, offset: 0x8E7F1, size: 0x8, addend: 0x0, symName: __ZNSt3__112__to_addressB7v160006IN3glm3vecILi4EfLNS1_9qualifierE0EEEEEPT_S6_, symObjAddr: 0x3D108, symBinAddr: 0x100054BA4, symSize: 0x14 }
  - { offsetInCU: 0x2B1EC, offset: 0x8E826, size: 0x8, addend: 0x0, symName: __ZNSt3__119__allocate_at_leastB7v160006INS_9allocatorIN3glm3vecILi4EfLNS2_9qualifierE0EEEEEEENS_19__allocation_resultINS_16allocator_traitsIT_E7pointerEEERS9_m, symObjAddr: 0x3DA10, symBinAddr: 0x1000554AC, symSize: 0x40 }
  - { offsetInCU: 0x2B22E, offset: 0x8E868, size: 0x8, addend: 0x0, symName: __ZNSt3__142__uninitialized_allocator_move_if_noexceptB7v160006INS_9allocatorIN3glm3vecILi4EfLNS2_9qualifierE0EEEEENS_16reverse_iteratorIPS5_EES9_S5_vEET1_RT_T0_SD_SA_, symObjAddr: 0x3DBC4, symBinAddr: 0x100055660, symSize: 0x78 }
  - { offsetInCU: 0x2B2AC, offset: 0x8E8E6, size: 0x8, addend: 0x0, symName: __ZNSt3__14swapB7v160006IPN3glm3vecILi4EfLNS1_9qualifierE0EEEEENS_9enable_ifIXaasr21is_move_constructibleIT_EE5valuesr18is_move_assignableIS7_EE5valueEvE4typeERS7_SA_, symObjAddr: 0x3DC88, symBinAddr: 0x100055724, symSize: 0x3C }
  - { offsetInCU: 0x2B2FD, offset: 0x8E937, size: 0x8, addend: 0x0, symName: __ZNSt3__125__debug_db_invalidate_allB7v160006INS_6vectorIN3glm3vecILi4EfLNS2_9qualifierE0EEENS_9allocatorIS5_EEEEEEvPT_, symObjAddr: 0x3DD70, symBinAddr: 0x10005580C, symSize: 0x10 }
  - { offsetInCU: 0x2B32E, offset: 0x8E968, size: 0x8, addend: 0x0, symName: __ZNSt3__14moveB7v160006INS_16reverse_iteratorIPN3glm3vecILi4EfLNS2_9qualifierE0EEEEES7_EET0_T_S9_S8_, symObjAddr: 0x3DD80, symBinAddr: 0x10005581C, symSize: 0x78 }
  - { offsetInCU: 0x2B388, offset: 0x8E9C2, size: 0x8, addend: 0x0, symName: __ZNSt3__16__moveB7v160006INS_17_ClassicAlgPolicyENS_16reverse_iteratorIPN3glm3vecILi4EfLNS3_9qualifierE0EEEEES8_S8_EENS_4pairIT0_T2_EESA_T1_SB_, symObjAddr: 0x3DDF8, symBinAddr: 0x100055894, symSize: 0x64 }
  - { offsetInCU: 0x2B3F4, offset: 0x8EA2E, size: 0x8, addend: 0x0, symName: __ZNSt3__123__dispatch_copy_or_moveB7v160006INS_17_ClassicAlgPolicyENS_11__move_loopIS1_EENS_14__move_trivialENS_16reverse_iteratorIPN3glm3vecILi4EfLNS6_9qualifierE0EEEEESB_SB_EENS_4pairIT2_T4_EESD_T3_SE_, symObjAddr: 0x3DE5C, symBinAddr: 0x1000558F8, symSize: 0x64 }
  - { offsetInCU: 0x2B472, offset: 0x8EAAC, size: 0x8, addend: 0x0, symName: __ZNSt3__121__unwrap_and_dispatchB7v160006INS_10__overloadINS_11__move_loopINS_17_ClassicAlgPolicyEEENS_14__move_trivialEEENS_16reverse_iteratorIPN3glm3vecILi4EfLNS8_9qualifierE0EEEEESD_SD_Li0EEENS_4pairIT0_T2_EESF_T1_SG_, symObjAddr: 0x3DEC0, symBinAddr: 0x10005595C, symSize: 0x12C }
  - { offsetInCU: 0x2B502, offset: 0x8EB3C, size: 0x8, addend: 0x0, symName: __ZNSt3__114__unwrap_rangeB7v160006INS_16reverse_iteratorIPN3glm3vecILi4EfLNS2_9qualifierE0EEEEES7_EENS_4pairIT0_S9_EET_SB_, symObjAddr: 0x3DFEC, symBinAddr: 0x100055A88, symSize: 0x84 }
  - { offsetInCU: 0x2B622, offset: 0x8EC5C, size: 0x8, addend: 0x0, symName: __ZNSt3__113__unwrap_iterB7v160006INS_16reverse_iteratorIPN3glm3vecILi4EfLNS2_9qualifierE0EEEEENS_18__unwrap_iter_implIS7_Lb0EEELi0EEEDTclsrT0_8__unwrapclsr3stdE7declvalIT_EEEESB_, symObjAddr: 0x3E110, symBinAddr: 0x100055BAC, symSize: 0x44 }
  - { offsetInCU: 0x2B665, offset: 0x8EC9F, size: 0x8, addend: 0x0, symName: __ZNSt3__19make_pairB7v160006INS_16reverse_iteratorIPN3glm3vecILi4EfLNS2_9qualifierE0EEEEES7_EENS_4pairINS_18__unwrap_ref_decayIT_E4typeENS9_IT0_E4typeEEEOSA_OSD_, symObjAddr: 0x3E154, symBinAddr: 0x100055BF0, symSize: 0x38 }
  - { offsetInCU: 0x2B6B5, offset: 0x8ECEF, size: 0x8, addend: 0x0, symName: __ZNSt3__114__rewrap_rangeB7v160006INS_16reverse_iteratorIPN3glm3vecILi4EfLNS2_9qualifierE0EEEEES7_EET_S8_T0_, symObjAddr: 0x3E18C, symBinAddr: 0x100055C28, symSize: 0x5C }
  - { offsetInCU: 0x2B701, offset: 0x8ED3B, size: 0x8, addend: 0x0, symName: __ZNSt3__113__rewrap_iterB7v160006INS_16reverse_iteratorIPN3glm3vecILi4EfLNS2_9qualifierE0EEEEES7_NS_18__unwrap_iter_implIS7_Lb0EEEEET_SA_T0_, symObjAddr: 0x3E1E8, symBinAddr: 0x100055C84, symSize: 0x74 }
  - { offsetInCU: 0x2B756, offset: 0x8ED90, size: 0x8, addend: 0x0, symName: __ZNSt3__1neB7v160006IPN3glm3vecILi4EfLNS1_9qualifierE0EEES5_EEbRKNS_16reverse_iteratorIT_EERKNS6_IT0_EE, symObjAddr: 0x3E25C, symBinAddr: 0x100055CF8, symSize: 0x48 }
  - { offsetInCU: 0x2C2AB, offset: 0x8F8E5, size: 0x8, addend: 0x0, symName: __ZN8nlohmann6detail12static_constINS0_12from_json_fnEE5valueE, symObjAddr: 0x41973, symBinAddr: 0x1000A1EFB, symSize: 0x0 }
  - { offsetInCU: 0x2C4E4, offset: 0x8FB1E, size: 0x8, addend: 0x0, symName: __ZN3glm9make_vec3IfEENS_3vecILi3ET_LNS_9qualifierE0EEEPKS2_, symObjAddr: 0x3618, symBinAddr: 0x100025C2C, symSize: 0x44 }
  - { offsetInCU: 0x2C52A, offset: 0x8FB64, size: 0x8, addend: 0x0, symName: __ZN3glm9make_quatIfEENS_3quaIT_LNS_9qualifierE0EEEPKS2_, symObjAddr: 0x36C8, symBinAddr: 0x100025CDC, symSize: 0x40 }
  - { offsetInCU: 0x2C570, offset: 0x8FBAA, size: 0x8, addend: 0x0, symName: __ZN3glm9make_mat4IfEENS_3matILi4ELi4ET_LNS_9qualifierE0EEEPKS2_, symObjAddr: 0x37E0, symBinAddr: 0x100025DF4, symSize: 0x24 }
  - { offsetInCU: 0x2C5A8, offset: 0x8FBE2, size: 0x8, addend: 0x0, symName: __ZN3glm9value_ptrIfLNS_9qualifierE0EEEPT_RNS_3vecILi3ES2_XT0_EEE, symObjAddr: 0x31034, symBinAddr: 0x10004E2AC, symSize: 0x14 }
  - { offsetInCU: 0x2C5E7, offset: 0x8FC21, size: 0x8, addend: 0x0, symName: __ZN3glm9value_ptrIfLNS_9qualifierE0EEEPT_RNS_3quaIS2_XT0_EEE, symObjAddr: 0x31324, symBinAddr: 0x10004E59C, symSize: 0x28 }
  - { offsetInCU: 0x2C625, offset: 0x8FC5F, size: 0x8, addend: 0x0, symName: __ZN3glm11make_mat4x4IfEENS_3matILi4ELi4ET_LNS_9qualifierE0EEEPKS2_, symObjAddr: 0x319AC, symBinAddr: 0x10004EC24, symSize: 0x38 }
  - { offsetInCU: 0x2D530, offset: 0x90B6A, size: 0x8, addend: 0x0, symName: __ZNSt3__16vectorIN8nlohmann10basic_jsonINS_3mapES0_NS_12basic_stringIcNS_11char_traitsIcEENS_9allocatorIcEEEEbxydS7_NS1_14adl_serializerENS0_IhNS7_IhEEEEEENS7_ISD_EEE26__swap_out_circular_bufferERNS_14__split_bufferISD_RSE_EE, symObjAddr: 0x69CC, symBinAddr: 0x100027B48, symSize: 0x118 }
  - { offsetInCU: 0x2DD10, offset: 0x9134A, size: 0x8, addend: 0x0, symName: __ZNSt3__16vectorIcNS_9allocatorIcEEE26__swap_out_circular_bufferERNS_14__split_bufferIcRS2_EE, symObjAddr: 0x11550, symBinAddr: 0x10003161C, symSize: 0x118 }
  - { offsetInCU: 0x2E03A, offset: 0x91674, size: 0x8, addend: 0x0, symName: __ZNSt3__16vectorIPN8nlohmann10basic_jsonINS_3mapES0_NS_12basic_stringIcNS_11char_traitsIcEENS_9allocatorIcEEEEbxydS7_NS1_14adl_serializerENS0_IhNS7_IhEEEEEENS7_ISE_EEE26__swap_out_circular_bufferERNS_14__split_bufferISE_RSF_EE, symObjAddr: 0x1B1B4, symBinAddr: 0x10003B10C, symSize: 0x118 }
  - { offsetInCU: 0x2E4CD, offset: 0x91B07, size: 0x8, addend: 0x0, symName: __ZNSt3__16vectorI4MeshNS_9allocatorIS1_EEE26__swap_out_circular_bufferERNS_14__split_bufferIS1_RS3_EE, symObjAddr: 0x2EEEC, symBinAddr: 0x10004C990, symSize: 0x118 }
  - { offsetInCU: 0x2E560, offset: 0x91B9A, size: 0x8, addend: 0x0, symName: __ZNSt3__16vectorIjNS_9allocatorIjEEE26__swap_out_circular_bufferERNS_14__split_bufferIjRS2_EE, symObjAddr: 0x36008, symBinAddr: 0x100050774, symSize: 0x118 }
  - { offsetInCU: 0x2E5A8, offset: 0x91BE2, size: 0x8, addend: 0x0, symName: __ZNSt3__16vectorI7TextureNS_9allocatorIS1_EEE26__swap_out_circular_bufferERNS_14__split_bufferIS1_RS3_EE, symObjAddr: 0x372E4, symBinAddr: 0x10005155C, symSize: 0x118 }
  - { offsetInCU: 0x2E5F0, offset: 0x91C2A, size: 0x8, addend: 0x0, symName: __ZNSt3__16vectorINS_12basic_stringIcNS_11char_traitsIcEENS_9allocatorIcEEEENS4_IS6_EEE26__swap_out_circular_bufferERNS_14__split_bufferIS6_RS7_EE, symObjAddr: 0x388BC, symBinAddr: 0x1000527A4, symSize: 0x118 }
  - { offsetInCU: 0x2E688, offset: 0x91CC2, size: 0x8, addend: 0x0, symName: __ZNSt3__16vectorIN3glm3vecILi2EfLNS1_9qualifierE0EEENS_9allocatorIS4_EEE26__swap_out_circular_bufferERNS_14__split_bufferIS4_RS6_EE, symObjAddr: 0x3B088, symBinAddr: 0x100053B20, symSize: 0x118 }
  - { offsetInCU: 0x2E83D, offset: 0x91E77, size: 0x8, addend: 0x0, symName: __ZNSt3__16vectorIN3glm3vecILi4EfLNS1_9qualifierE0EEENS_9allocatorIS4_EEE26__swap_out_circular_bufferERNS_14__split_bufferIS4_RS6_EE, symObjAddr: 0x3D6A8, symBinAddr: 0x100055144, symSize: 0x118 }
  - { offsetInCU: 0x308AC, offset: 0x93EE6, size: 0x8, addend: 0x0, symName: __ZN5ModelC2EPKcN3glm3vecILi3EfLNS2_9qualifierE0EEE, symObjAddr: 0x0, symBinAddr: 0x100022828, symSize: 0x22C }
  - { offsetInCU: 0x3090C, offset: 0x93F46, size: 0x8, addend: 0x0, symName: __ZNSt3__16vectorIhNS_9allocatorIhEEEC1B7v160006Ev, symObjAddr: 0x22C, symBinAddr: 0x100022A54, symSize: 0x2C }
  - { offsetInCU: 0x30936, offset: 0x93F70, size: 0x8, addend: 0x0, symName: __ZN8nlohmann10basic_jsonINSt3__13mapENS1_6vectorENS1_12basic_stringIcNS1_11char_traitsIcEENS1_9allocatorIcEEEEbxydS7_NS_14adl_serializerENS3_IhNS7_IhEEEEEC1EDn, symObjAddr: 0x258, symBinAddr: 0x100022A80, symSize: 0x4C }
  - { offsetInCU: 0x3096B, offset: 0x93FA5, size: 0x8, addend: 0x0, symName: __ZNSt3__16vectorINS_12basic_stringIcNS_11char_traitsIcEENS_9allocatorIcEEEENS4_IS6_EEEC1B7v160006Ev, symObjAddr: 0x2A4, symBinAddr: 0x100022ACC, symSize: 0x2C }
  - { offsetInCU: 0x30995, offset: 0x93FCF, size: 0x8, addend: 0x0, symName: __ZNSt3__16vectorI4MeshNS_9allocatorIS1_EEEC1B7v160006Ev, symObjAddr: 0x2FC, symBinAddr: 0x100022AF8, symSize: 0x2C }
  - { offsetInCU: 0x309BF, offset: 0x93FF9, size: 0x8, addend: 0x0, symName: __ZN8nlohmann10basic_jsonINSt3__13mapENS1_6vectorENS1_12basic_stringIcNS1_11char_traitsIcEENS1_9allocatorIcEEEEbxydS7_NS_14adl_serializerENS3_IhNS7_IhEEEEE5parseIRS9_EESD_OT_NS1_8functionIFbiNS_6detail13parse_event_tERSD_EEEbb, symObjAddr: 0x328, symBinAddr: 0x100022B24, symSize: 0x1A4 }
  - { offsetInCU: 0x30A2F, offset: 0x94069, size: 0x8, addend: 0x0, symName: __ZNSt3__18functionIFbiN8nlohmann6detail13parse_event_tERNS1_10basic_jsonINS_3mapENS_6vectorENS_12basic_stringIcNS_11char_traitsIcEENS_9allocatorIcEEEEbxydSA_NS1_14adl_serializerENS6_IhNSA_IhEEEEEEEEC1B7v160006EDn, symObjAddr: 0x4CC, symBinAddr: 0x100022CC8, symSize: 0x34 }
  - { offsetInCU: 0x30A64, offset: 0x9409E, size: 0x8, addend: 0x0, symName: __ZN8nlohmann10basic_jsonINSt3__13mapENS1_6vectorENS1_12basic_stringIcNS1_11char_traitsIcEENS1_9allocatorIcEEEEbxydS7_NS_14adl_serializerENS3_IhNS7_IhEEEEEaSESD_, symObjAddr: 0x500, symBinAddr: 0x100022CFC, symSize: 0x80 }
  - { offsetInCU: 0x30A9A, offset: 0x940D4, size: 0x8, addend: 0x0, symName: __ZN8nlohmann10basic_jsonINSt3__13mapENS1_6vectorENS1_12basic_stringIcNS1_11char_traitsIcEENS1_9allocatorIcEEEEbxydS7_NS_14adl_serializerENS3_IhNS7_IhEEEEED1Ev, symObjAddr: 0x580, symBinAddr: 0x100022D7C, symSize: 0x2C }
  - { offsetInCU: 0x30AC4, offset: 0x940FE, size: 0x8, addend: 0x0, symName: __ZNSt3__18functionIFbiN8nlohmann6detail13parse_event_tERNS1_10basic_jsonINS_3mapENS_6vectorENS_12basic_stringIcNS_11char_traitsIcEENS_9allocatorIcEEEEbxydSA_NS1_14adl_serializerENS6_IhNSA_IhEEEEEEEED1Ev, symObjAddr: 0x5AC, symBinAddr: 0x100022DA8, symSize: 0x2C }
  - { offsetInCU: 0x30AF0, offset: 0x9412A, size: 0x8, addend: 0x0, symName: __ZN5Model7GetDataEv, symObjAddr: 0x5D8, symBinAddr: 0x100022DD4, symSize: 0x240 }
  - { offsetInCU: 0x30B62, offset: 0x9419C, size: 0x8, addend: 0x0, symName: __ZNSt3__16vectorIhNS_9allocatorIhEEEaSB7v160006EOS3_, symObjAddr: 0x818, symBinAddr: 0x100023014, symSize: 0x34 }
  - { offsetInCU: 0x30B99, offset: 0x941D3, size: 0x8, addend: 0x0, symName: __ZNSt3__16vectorIhNS_9allocatorIhEEED1B7v160006Ev, symObjAddr: 0x84C, symBinAddr: 0x100023048, symSize: 0x2C }
  - { offsetInCU: 0x30BC3, offset: 0x941FD, size: 0x8, addend: 0x0, symName: __ZN5Model12TraverseNodeEjN3glm3matILi4ELi4EfLNS0_9qualifierE0EEE, symObjAddr: 0x878, symBinAddr: 0x100023074, symSize: 0x9BC }
  - { offsetInCU: 0x30D6F, offset: 0x943A9, size: 0x8, addend: 0x0, symName: __ZNSt3__16vectorI4MeshNS_9allocatorIS1_EEED1B7v160006Ev, symObjAddr: 0x1268, symBinAddr: 0x100023A30, symSize: 0x2C }
  - { offsetInCU: 0x30D99, offset: 0x943D3, size: 0x8, addend: 0x0, symName: __ZNSt3__16vectorINS_12basic_stringIcNS_11char_traitsIcEENS_9allocatorIcEEEENS4_IS6_EEED1B7v160006Ev, symObjAddr: 0x12C0, symBinAddr: 0x100023A5C, symSize: 0x2C }
  - { offsetInCU: 0x30DC3, offset: 0x943FD, size: 0x8, addend: 0x0, symName: __ZN5ModelC1EPKcN3glm3vecILi3EfLNS2_9qualifierE0EEE, symObjAddr: 0x12EC, symBinAddr: 0x100023A88, symSize: 0x4C }
  - { offsetInCU: 0x30E0B, offset: 0x94445, size: 0x8, addend: 0x0, symName: __ZN5Model4DrawER6ShaderR6Camera, symObjAddr: 0x1338, symBinAddr: 0x100023AD4, symSize: 0x18C }
  - { offsetInCU: 0x30E6B, offset: 0x944A5, size: 0x8, addend: 0x0, symName: __ZNKSt3__16vectorI4MeshNS_9allocatorIS1_EEE4sizeB7v160006Ev, symObjAddr: 0x14C4, symBinAddr: 0x100023C60, symSize: 0x28 }
  - { offsetInCU: 0x30E91, offset: 0x944CB, size: 0x8, addend: 0x0, symName: __ZNSt3__16vectorI4MeshNS_9allocatorIS1_EEEixB7v160006Em, symObjAddr: 0x14EC, symBinAddr: 0x100023C88, symSize: 0x2C }
  - { offsetInCU: 0x30EC8, offset: 0x94502, size: 0x8, addend: 0x0, symName: __ZN5Model8LoadMeshEj, symObjAddr: 0x15A8, symBinAddr: 0x100023CB4, symSize: 0x674 }
  - { offsetInCU: 0x30FBD, offset: 0x945F7, size: 0x8, addend: 0x0, symName: __ZN8nlohmann10basic_jsonINSt3__13mapENS1_6vectorENS1_12basic_stringIcNS1_11char_traitsIcEENS1_9allocatorIcEEEEbxydS7_NS_14adl_serializerENS3_IhNS7_IhEEEEEixIKcEERSD_PT_, symObjAddr: 0x1C1C, symBinAddr: 0x100024328, symSize: 0x1E4 }
  - { offsetInCU: 0x30FFB, offset: 0x94635, size: 0x8, addend: 0x0, symName: __ZN8nlohmann10basic_jsonINSt3__13mapENS1_6vectorENS1_12basic_stringIcNS1_11char_traitsIcEENS1_9allocatorIcEEEEbxydS7_NS_14adl_serializerENS3_IhNS7_IhEEEEEixEm, symObjAddr: 0x1E00, symBinAddr: 0x10002450C, symSize: 0x1C0 }
  - { offsetInCU: 0x31030, offset: 0x9466A, size: 0x8, addend: 0x0, symName: __ZNK8nlohmann10basic_jsonINSt3__13mapENS1_6vectorENS1_12basic_stringIcNS1_11char_traitsIcEENS1_9allocatorIcEEEEbxydS7_NS_14adl_serializerENS3_IhNS7_IhEEEEEcvT_IjLi0EEEv, symObjAddr: 0x1FC0, symBinAddr: 0x1000246CC, symSize: 0x24 }
  - { offsetInCU: 0x31065, offset: 0x9469F, size: 0x8, addend: 0x0, symName: __ZN5Model9GetFloatsEN8nlohmann10basic_jsonINSt3__13mapENS2_6vectorENS2_12basic_stringIcNS2_11char_traitsIcEENS2_9allocatorIcEEEEbxydS8_NS0_14adl_serializerENS4_IhNS8_IhEEEEEE, symObjAddr: 0x1FE4, symBinAddr: 0x1000246F0, symSize: 0x488 }
  - { offsetInCU: 0x31172, offset: 0x947AC, size: 0x8, addend: 0x0, symName: __ZN8nlohmann10basic_jsonINSt3__13mapENS1_6vectorENS1_12basic_stringIcNS1_11char_traitsIcEENS1_9allocatorIcEEEEbxydS7_NS_14adl_serializerENS3_IhNS7_IhEEEEEC1ERKSD_, symObjAddr: 0x246C, symBinAddr: 0x100024B78, symSize: 0x34 }
  - { offsetInCU: 0x311AB, offset: 0x947E5, size: 0x8, addend: 0x0, symName: __ZN5Model15GroupFloatsVec3ENSt3__16vectorIfNS0_9allocatorIfEEEE, symObjAddr: 0x24A0, symBinAddr: 0x100024BAC, symSize: 0x158 }
  - { offsetInCU: 0x31211, offset: 0x9484B, size: 0x8, addend: 0x0, symName: __ZNSt3__16vectorIfNS_9allocatorIfEEEC1ERKS3_, symObjAddr: 0x25F8, symBinAddr: 0x100024D04, symSize: 0x34 }
  - { offsetInCU: 0x3124C, offset: 0x94886, size: 0x8, addend: 0x0, symName: __ZN5Model15GroupFloatsVec2ENSt3__16vectorIfNS0_9allocatorIfEEEE, symObjAddr: 0x2658, symBinAddr: 0x100024D38, symSize: 0x130 }
  - { offsetInCU: 0x312B2, offset: 0x948EC, size: 0x8, addend: 0x0, symName: __ZN5Model16AssembleVerticesENSt3__16vectorIN3glm3vecILi3EfLNS2_9qualifierE0EEENS0_9allocatorIS5_EEEES8_NS1_INS3_ILi2EfLS4_0EEENS6_IS9_EEEE, symObjAddr: 0x2788, symBinAddr: 0x100024E68, symSize: 0x17C }
  - { offsetInCU: 0x31338, offset: 0x94972, size: 0x8, addend: 0x0, symName: __ZNSt3__16vectorIN3glm3vecILi3EfLNS1_9qualifierE0EEENS_9allocatorIS4_EEEC1ERKS7_, symObjAddr: 0x2904, symBinAddr: 0x100024FE4, symSize: 0x34 }
  - { offsetInCU: 0x31373, offset: 0x949AD, size: 0x8, addend: 0x0, symName: __ZNSt3__16vectorIN3glm3vecILi2EfLNS1_9qualifierE0EEENS_9allocatorIS4_EEEC1ERKS7_, symObjAddr: 0x2938, symBinAddr: 0x100025018, symSize: 0x34 }
  - { offsetInCU: 0x313AE, offset: 0x949E8, size: 0x8, addend: 0x0, symName: __ZNSt3__16vectorIN3glm3vecILi2EfLNS1_9qualifierE0EEENS_9allocatorIS4_EEED1B7v160006Ev, symObjAddr: 0x296C, symBinAddr: 0x10002504C, symSize: 0x2C }
  - { offsetInCU: 0x313D8, offset: 0x94A12, size: 0x8, addend: 0x0, symName: __ZN5Model10GetIndicesEN8nlohmann10basic_jsonINSt3__13mapENS2_6vectorENS2_12basic_stringIcNS2_11char_traitsIcEENS2_9allocatorIcEEEEbxydS8_NS0_14adl_serializerENS4_IhNS8_IhEEEEEE, symObjAddr: 0x29C4, symBinAddr: 0x100025078, symSize: 0x528 }
  - { offsetInCU: 0x31549, offset: 0x94B83, size: 0x8, addend: 0x0, symName: __ZN5Model11GetTexturesEv, symObjAddr: 0x2EEC, symBinAddr: 0x1000255A0, symSize: 0x44C }
  - { offsetInCU: 0x3162E, offset: 0x94C68, size: 0x8, addend: 0x0, symName: __ZNSt3__16vectorI4MeshNS_9allocatorIS1_EEE9push_backB7v160006EOS1_, symObjAddr: 0x3338, symBinAddr: 0x1000259EC, symSize: 0x6C }
  - { offsetInCU: 0x31665, offset: 0x94C9F, size: 0x8, addend: 0x0, symName: __ZN4MeshD1Ev, symObjAddr: 0x33A4, symBinAddr: 0x100025A58, symSize: 0x2C }
  - { offsetInCU: 0x316A7, offset: 0x94CE1, size: 0x8, addend: 0x0, symName: __ZN8nlohmann10basic_jsonINSt3__13mapENS1_6vectorENS1_12basic_stringIcNS1_11char_traitsIcEENS1_9allocatorIcEEEEbxydS7_NS_14adl_serializerENS3_IhNS7_IhEEEEE4findIRA12_KcEENS_6detail9iter_implISD_EEOT_, symObjAddr: 0x3470, symBinAddr: 0x100025A84, symSize: 0x6C }
  - { offsetInCU: 0x316F5, offset: 0x94D2F, size: 0x8, addend: 0x0, symName: __ZNK8nlohmann6detail9iter_implINS_10basic_jsonINSt3__13mapENS3_6vectorENS3_12basic_stringIcNS3_11char_traitsIcEENS3_9allocatorIcEEEEbxydS9_NS_14adl_serializerENS5_IhNS9_IhEEEEEEEneISG_LDn0EEEbRKT_, symObjAddr: 0x34DC, symBinAddr: 0x100025AF0, symSize: 0x34 }
  - { offsetInCU: 0x31739, offset: 0x94D73, size: 0x8, addend: 0x0, symName: __ZN8nlohmann10basic_jsonINSt3__13mapENS1_6vectorENS1_12basic_stringIcNS1_11char_traitsIcEENS1_9allocatorIcEEEEbxydS7_NS_14adl_serializerENS3_IhNS7_IhEEEEE3endEv, symObjAddr: 0x3510, symBinAddr: 0x100025B24, symSize: 0x40 }
  - { offsetInCU: 0x3176F, offset: 0x94DA9, size: 0x8, addend: 0x0, symName: __ZNK8nlohmann10basic_jsonINSt3__13mapENS1_6vectorENS1_12basic_stringIcNS1_11char_traitsIcEENS1_9allocatorIcEEEEbxydS7_NS_14adl_serializerENS3_IhNS7_IhEEEEE4sizeEv, symObjAddr: 0x3550, symBinAddr: 0x100025B64, symSize: 0xA4 }
  - { offsetInCU: 0x31795, offset: 0x94DCF, size: 0x8, addend: 0x0, symName: __ZNK8nlohmann10basic_jsonINSt3__13mapENS1_6vectorENS1_12basic_stringIcNS1_11char_traitsIcEENS1_9allocatorIcEEEEbxydS7_NS_14adl_serializerENS3_IhNS7_IhEEEEEcvT_IfLi0EEEv, symObjAddr: 0x35F4, symBinAddr: 0x100025C08, symSize: 0x24 }
  - { offsetInCU: 0x317E0, offset: 0x94E1A, size: 0x8, addend: 0x0, symName: __ZN8nlohmann10basic_jsonINSt3__13mapENS1_6vectorENS1_12basic_stringIcNS1_11char_traitsIcEENS1_9allocatorIcEEEEbxydS7_NS_14adl_serializerENS3_IhNS7_IhEEEEE4findIRA9_KcEENS_6detail9iter_implISD_EEOT_, symObjAddr: 0x365C, symBinAddr: 0x100025C70, symSize: 0x6C }
  - { offsetInCU: 0x31844, offset: 0x94E7E, size: 0x8, addend: 0x0, symName: __ZN8nlohmann10basic_jsonINSt3__13mapENS1_6vectorENS1_12basic_stringIcNS1_11char_traitsIcEENS1_9allocatorIcEEEEbxydS7_NS_14adl_serializerENS3_IhNS7_IhEEEEE4findIRA6_KcEENS_6detail9iter_implISD_EEOT_, symObjAddr: 0x3708, symBinAddr: 0x100025D1C, symSize: 0x6C }
  - { offsetInCU: 0x318A8, offset: 0x94EE2, size: 0x8, addend: 0x0, symName: __ZN8nlohmann10basic_jsonINSt3__13mapENS1_6vectorENS1_12basic_stringIcNS1_11char_traitsIcEENS1_9allocatorIcEEEEbxydS7_NS_14adl_serializerENS3_IhNS7_IhEEEEE4findIRA7_KcEENS_6detail9iter_implISD_EEOT_, symObjAddr: 0x3774, symBinAddr: 0x100025D88, symSize: 0x6C }
  - { offsetInCU: 0x3190C, offset: 0x94F46, size: 0x8, addend: 0x0, symName: __ZN8nlohmann10basic_jsonINSt3__13mapENS1_6vectorENS1_12basic_stringIcNS1_11char_traitsIcEENS1_9allocatorIcEEEEbxydS7_NS_14adl_serializerENS3_IhNS7_IhEEEEE4findIRA5_KcEENS_6detail9iter_implISD_EEOT_, symObjAddr: 0x40AC, symBinAddr: 0x100025E18, symSize: 0x6C }
  - { offsetInCU: 0x3195A, offset: 0x94F94, size: 0x8, addend: 0x0, symName: __ZNK8nlohmann10basic_jsonINSt3__13mapENS1_6vectorENS1_12basic_stringIcNS1_11char_traitsIcEENS1_9allocatorIcEEEEbxydS7_NS_14adl_serializerENS3_IhNS7_IhEEEEEcvT_IS9_Li0EEEv, symObjAddr: 0x4144, symBinAddr: 0x100025E84, symSize: 0x2C }
  - { offsetInCU: 0x31994, offset: 0x94FCE, size: 0x8, addend: 0x0, symName: __ZNKSt3__112basic_stringIcNS_11char_traitsIcEENS_9allocatorIcEEE6substrB7v160006Emm, symObjAddr: 0x41A4, symBinAddr: 0x100025EB0, symSize: 0x68 }
  - { offsetInCU: 0x319D8, offset: 0x95012, size: 0x8, addend: 0x0, symName: __ZNKSt3__112basic_stringIcNS_11char_traitsIcEENS_9allocatorIcEEE12find_last_ofB7v160006Ecm, symObjAddr: 0x420C, symBinAddr: 0x100025F18, symSize: 0x34 }
  - { offsetInCU: 0x31A1E, offset: 0x95058, size: 0x8, addend: 0x0, symName: __ZNSt3__112basic_stringIcNS_11char_traitsIcEENS_9allocatorIcEEE5beginB7v160006Ev, symObjAddr: 0x43CC, symBinAddr: 0x100025F4C, symSize: 0x4C }
  - { offsetInCU: 0x31A44, offset: 0x9507E, size: 0x8, addend: 0x0, symName: __ZNSt3__112basic_stringIcNS_11char_traitsIcEENS_9allocatorIcEEE3endB7v160006Ev, symObjAddr: 0x4418, symBinAddr: 0x100025F98, symSize: 0x54 }
  - { offsetInCU: 0x31A6A, offset: 0x950A4, size: 0x8, addend: 0x0, symName: __ZNSt3__16vectorIhNS_9allocatorIhEEEC1INS_11__wrap_iterIPcEELi0EEET_S8_, symObjAddr: 0x446C, symBinAddr: 0x100025FEC, symSize: 0x3C }
  - { offsetInCU: 0x31AC8, offset: 0x95102, size: 0x8, addend: 0x0, symName: __ZNK8nlohmann10basic_jsonINSt3__13mapENS1_6vectorENS1_12basic_stringIcNS1_11char_traitsIcEENS1_9allocatorIcEEEEbxydS7_NS_14adl_serializerENS3_IhNS7_IhEEEEE5valueIiLi0EEET_RKS9_RKSF_, symObjAddr: 0x44D4, symBinAddr: 0x100026028, symSize: 0x1B0 }
  - { offsetInCU: 0x31B38, offset: 0x95172, size: 0x8, addend: 0x0, symName: __ZNSt16invalid_argumentC1B7v160006EPKc, symObjAddr: 0x4730, symBinAddr: 0x1000261D8, symSize: 0x34 }
  - { offsetInCU: 0x31B70, offset: 0x951AA, size: 0x8, addend: 0x0, symName: __ZNSt3__16vectorIhNS_9allocatorIhEEEixB7v160006Em, symObjAddr: 0x4764, symBinAddr: 0x10002620C, symSize: 0x24 }
  - { offsetInCU: 0x31BA7, offset: 0x951E1, size: 0x8, addend: 0x0, symName: __ZNSt3__16vectorIfNS_9allocatorIfEEE9push_backB7v160006ERKf, symObjAddr: 0x4788, symBinAddr: 0x100026230, symSize: 0x6C }
  - { offsetInCU: 0x31BDE, offset: 0x95218, size: 0x8, addend: 0x0, symName: __ZNSt3__16vectorIjNS_9allocatorIjEEE9push_backB7v160006EOj, symObjAddr: 0x4820, symBinAddr: 0x10002629C, symSize: 0x6C }
  - { offsetInCU: 0x31C15, offset: 0x9524F, size: 0x8, addend: 0x0, symName: __ZNKSt3__16vectorINS_12basic_stringIcNS_11char_traitsIcEENS_9allocatorIcEEEENS4_IS6_EEE4sizeB7v160006Ev, symObjAddr: 0x4910, symBinAddr: 0x100026308, symSize: 0x28 }
  - { offsetInCU: 0x31C3B, offset: 0x95275, size: 0x8, addend: 0x0, symName: __ZNSt3__16vectorINS_12basic_stringIcNS_11char_traitsIcEENS_9allocatorIcEEEENS4_IS6_EEEixB7v160006Em, symObjAddr: 0x4A80, symBinAddr: 0x100026478, symSize: 0x2C }
  - { offsetInCU: 0x31C72, offset: 0x952AC, size: 0x8, addend: 0x0, symName: __ZNSt3__16vectorI7TextureNS_9allocatorIS1_EEE9push_backB7v160006ERKS1_, symObjAddr: 0x4AAC, symBinAddr: 0x1000264A4, symSize: 0x6C }
  - { offsetInCU: 0x31CA9, offset: 0x952E3, size: 0x8, addend: 0x0, symName: __ZNKSt3__112basic_stringIcNS_11char_traitsIcEENS_9allocatorIcEEE4findB7v160006EPKcm, symObjAddr: 0x4B44, symBinAddr: 0x100026510, symSize: 0x74 }
  - { offsetInCU: 0x31CEF, offset: 0x95329, size: 0x8, addend: 0x0, symName: __ZNSt3__16vectorINS_12basic_stringIcNS_11char_traitsIcEENS_9allocatorIcEEEENS4_IS6_EEE9push_backB7v160006ERKS6_, symObjAddr: 0x4BE0, symBinAddr: 0x100026584, symSize: 0x6C }
  - { offsetInCU: 0x31D26, offset: 0x95360, size: 0x8, addend: 0x0, symName: __ZNSt3__16vectorIN3glm3vecILi2EfLNS1_9qualifierE0EEENS_9allocatorIS4_EEEixB7v160006Em, symObjAddr: 0x4D38, symBinAddr: 0x1000265F0, symSize: 0x24 }
  - { offsetInCU: 0x31D5D, offset: 0x95397, size: 0x8, addend: 0x0, symName: __ZNSt3__16vectorIN3glm3vecILi2EfLNS1_9qualifierE0EEENS_9allocatorIS4_EEEC1B7v160006Ev, symObjAddr: 0x4D5C, symBinAddr: 0x100026614, symSize: 0x2C }
  - { offsetInCU: 0x31D87, offset: 0x953C1, size: 0x8, addend: 0x0, symName: __ZNSt3__16vectorIN3glm3vecILi2EfLNS1_9qualifierE0EEENS_9allocatorIS4_EEE9push_backB7v160006EOS4_, symObjAddr: 0x4DB0, symBinAddr: 0x100026640, symSize: 0x6C }
  - { offsetInCU: 0x31DBE, offset: 0x953F8, size: 0x8, addend: 0x0, symName: __ZN5Model15GroupFloatsVec4ENSt3__16vectorIfNS0_9allocatorIfEEEE, symObjAddr: 0x4F14, symBinAddr: 0x1000266AC, symSize: 0x180 }
  - { offsetInCU: 0x31E24, offset: 0x9545E, size: 0x8, addend: 0x0, symName: __ZNSt3__16vectorIN3glm3vecILi4EfLNS1_9qualifierE0EEENS_9allocatorIS4_EEEC1B7v160006Ev, symObjAddr: 0x5094, symBinAddr: 0x10002682C, symSize: 0x2C }
  - { offsetInCU: 0x31E4E, offset: 0x95488, size: 0x8, addend: 0x0, symName: __ZNSt3__16vectorIN3glm3vecILi4EfLNS1_9qualifierE0EEENS_9allocatorIS4_EEE9push_backB7v160006EOS4_, symObjAddr: 0x50C0, symBinAddr: 0x100026858, symSize: 0x6C }
  - { offsetInCU: 0x31E85, offset: 0x954BF, size: 0x8, addend: 0x0, symName: __ZNSt3__16vectorIN3glm3vecILi4EfLNS1_9qualifierE0EEENS_9allocatorIS4_EEED1B7v160006Ev, symObjAddr: 0x5178, symBinAddr: 0x1000268C4, symSize: 0x2C }
  - { offsetInCU: 0x31EAF, offset: 0x954E9, size: 0x8, addend: 0x0, symName: __ZN4MeshD2Ev, symObjAddr: 0x5538, symBinAddr: 0x1000268F0, symSize: 0x48 }
  - { offsetInCU: 0x31EDB, offset: 0x95515, size: 0x8, addend: 0x0, symName: __ZNSt16invalid_argumentC2B7v160006EPKc, symObjAddr: 0x5580, symBinAddr: 0x100026938, symSize: 0x4C }
  - { offsetInCU: 0x31F18, offset: 0x95552, size: 0x8, addend: 0x0, symName: __ZNSt3__18functionIFbiN8nlohmann6detail13parse_event_tERNS1_10basic_jsonINS_3mapENS_6vectorENS_12basic_stringIcNS_11char_traitsIcEENS_9allocatorIcEEEEbxydSA_NS1_14adl_serializerENS6_IhNSA_IhEEEEEEEEC2B7v160006EDn, symObjAddr: 0x5808, symBinAddr: 0x100026984, symSize: 0x30 }
  - { offsetInCU: 0x31F4D, offset: 0x95587, size: 0x8, addend: 0x0, symName: __ZNSt3__110__function12__value_funcIFbiN8nlohmann6detail13parse_event_tERNS2_10basic_jsonINS_3mapENS_6vectorENS_12basic_stringIcNS_11char_traitsIcEENS_9allocatorIcEEEEbxydSB_NS2_14adl_serializerENS7_IhNSB_IhEEEEEEEEC1B7v160006Ev, symObjAddr: 0x5838, symBinAddr: 0x1000269B4, symSize: 0x2C }
  - { offsetInCU: 0x31F77, offset: 0x955B1, size: 0x8, addend: 0x0, symName: __ZNSt3__110__function12__value_funcIFbiN8nlohmann6detail13parse_event_tERNS2_10basic_jsonINS_3mapENS_6vectorENS_12basic_stringIcNS_11char_traitsIcEENS_9allocatorIcEEEEbxydSB_NS2_14adl_serializerENS7_IhNSB_IhEEEEEEEEC2B7v160006Ev, symObjAddr: 0x5864, symBinAddr: 0x1000269E0, symSize: 0x18 }
  - { offsetInCU: 0x31FA1, offset: 0x955DB, size: 0x8, addend: 0x0, symName: __ZNSt3__18functionIFbiN8nlohmann6detail13parse_event_tERNS1_10basic_jsonINS_3mapENS_6vectorENS_12basic_stringIcNS_11char_traitsIcEENS_9allocatorIcEEEEbxydSA_NS1_14adl_serializerENS6_IhNSA_IhEEEEEEEED2Ev, symObjAddr: 0x587C, symBinAddr: 0x1000269F8, symSize: 0x2C }
  - { offsetInCU: 0x31FCD, offset: 0x95607, size: 0x8, addend: 0x0, symName: __ZNSt3__110__function12__value_funcIFbiN8nlohmann6detail13parse_event_tERNS2_10basic_jsonINS_3mapENS_6vectorENS_12basic_stringIcNS_11char_traitsIcEENS_9allocatorIcEEEEbxydSB_NS2_14adl_serializerENS7_IhNSB_IhEEEEEEEED1B7v160006Ev, symObjAddr: 0x58A8, symBinAddr: 0x100026A24, symSize: 0x2C }
  - { offsetInCU: 0x31FF7, offset: 0x95631, size: 0x8, addend: 0x0, symName: __ZNSt3__110__function12__value_funcIFbiN8nlohmann6detail13parse_event_tERNS2_10basic_jsonINS_3mapENS_6vectorENS_12basic_stringIcNS_11char_traitsIcEENS_9allocatorIcEEEEbxydSB_NS2_14adl_serializerENS7_IhNSB_IhEEEEEEEED2B7v160006Ev, symObjAddr: 0x58D4, symBinAddr: 0x100026A50, symSize: 0x90 }
  - { offsetInCU: 0x32021, offset: 0x9565B, size: 0x8, addend: 0x0, symName: __ZN8nlohmann10basic_jsonINSt3__13mapENS1_6vectorENS1_12basic_stringIcNS1_11char_traitsIcEENS1_9allocatorIcEEEEbxydS7_NS_14adl_serializerENS3_IhNS7_IhEEEEED2Ev, symObjAddr: 0x5964, symBinAddr: 0x100026AE0, symSize: 0x44 }
  - { offsetInCU: 0x3204B, offset: 0x95685, size: 0x8, addend: 0x0, symName: __ZNK8nlohmann10basic_jsonINSt3__13mapENS1_6vectorENS1_12basic_stringIcNS1_11char_traitsIcEENS1_9allocatorIcEEEEbxydS7_NS_14adl_serializerENS3_IhNS7_IhEEEEE16assert_invariantEb, symObjAddr: 0x59A8, symBinAddr: 0x100026B24, symSize: 0x1F0 }
  - { offsetInCU: 0x32080, offset: 0x956BA, size: 0x8, addend: 0x0, symName: __ZN8nlohmann10basic_jsonINSt3__13mapENS1_6vectorENS1_12basic_stringIcNS1_11char_traitsIcEENS1_9allocatorIcEEEEbxydS7_NS_14adl_serializerENS3_IhNS7_IhEEEEE10json_value7destroyENS_6detail7value_tE, symObjAddr: 0x5B98, symBinAddr: 0x100026D14, symSize: 0x418 }
  - { offsetInCU: 0x32206, offset: 0x95840, size: 0x8, addend: 0x0, symName: __ZNSt3__16vectorIN8nlohmann10basic_jsonINS_3mapES0_NS_12basic_stringIcNS_11char_traitsIcEENS_9allocatorIcEEEEbxydS7_NS1_14adl_serializerENS0_IhNS7_IhEEEEEENS7_ISD_EEEC1B7v160006Ev, symObjAddr: 0x5FD0, symBinAddr: 0x10002714C, symSize: 0x2C }
  - { offsetInCU: 0x32230, offset: 0x9586A, size: 0x8, addend: 0x0, symName: __ZNSt3__16vectorIN8nlohmann10basic_jsonINS_3mapES0_NS_12basic_stringIcNS_11char_traitsIcEENS_9allocatorIcEEEEbxydS7_NS1_14adl_serializerENS0_IhNS7_IhEEEEEENS7_ISD_EEE7reserveEm, symObjAddr: 0x5FFC, symBinAddr: 0x100027178, symSize: 0xE8 }
  - { offsetInCU: 0x3228C, offset: 0x958C6, size: 0x8, addend: 0x0, symName: __ZNKSt3__16vectorIN8nlohmann10basic_jsonINS_3mapES0_NS_12basic_stringIcNS_11char_traitsIcEENS_9allocatorIcEEEEbxydS7_NS1_14adl_serializerENS0_IhNS7_IhEEEEEENS7_ISD_EEE4sizeB7v160006Ev, symObjAddr: 0x60E4, symBinAddr: 0x100027260, symSize: 0x28 }
  - { offsetInCU: 0x322B2, offset: 0x958EC, size: 0x8, addend: 0x0, symName: __ZNSt3__16vectorIN8nlohmann10basic_jsonINS_3mapES0_NS_12basic_stringIcNS_11char_traitsIcEENS_9allocatorIcEEEEbxydS7_NS1_14adl_serializerENS0_IhNS7_IhEEEEEENS7_ISD_EEE5beginB7v160006Ev, symObjAddr: 0x616C, symBinAddr: 0x1000272E8, symSize: 0x30 }
  - { offsetInCU: 0x322DA, offset: 0x95914, size: 0x8, addend: 0x0, symName: __ZNSt3__16vectorIN8nlohmann10basic_jsonINS_3mapES0_NS_12basic_stringIcNS_11char_traitsIcEENS_9allocatorIcEEEEbxydS7_NS1_14adl_serializerENS0_IhNS7_IhEEEEEENS7_ISD_EEE3endB7v160006Ev, symObjAddr: 0x619C, symBinAddr: 0x100027318, symSize: 0x30 }
  - { offsetInCU: 0x32302, offset: 0x9593C, size: 0x8, addend: 0x0, symName: __ZNKSt3__13mapINS_12basic_stringIcNS_11char_traitsIcEENS_9allocatorIcEEEEN8nlohmann10basic_jsonIS0_NS_6vectorES6_bxydS4_NS7_14adl_serializerENS9_IhNS4_IhEEEEEENS_4lessIvEENS4_INS_4pairIKS6_SD_EEEEE4sizeB7v160006Ev, symObjAddr: 0x61F8, symBinAddr: 0x100027374, symSize: 0x28 }
  - { offsetInCU: 0x32328, offset: 0x95962, size: 0x8, addend: 0x0, symName: __ZNSt3__13mapINS_12basic_stringIcNS_11char_traitsIcEENS_9allocatorIcEEEEN8nlohmann10basic_jsonIS0_NS_6vectorES6_bxydS4_NS7_14adl_serializerENS9_IhNS4_IhEEEEEENS_4lessIvEENS4_INS_4pairIKS6_SD_EEEEE5beginB7v160006Ev, symObjAddr: 0x6220, symBinAddr: 0x10002739C, symSize: 0x38 }
  - { offsetInCU: 0x3234E, offset: 0x95988, size: 0x8, addend: 0x0, symName: __ZNSt3__13mapINS_12basic_stringIcNS_11char_traitsIcEENS_9allocatorIcEEEEN8nlohmann10basic_jsonIS0_NS_6vectorES6_bxydS4_NS7_14adl_serializerENS9_IhNS4_IhEEEEEENS_4lessIvEENS4_INS_4pairIKS6_SD_EEEEE3endB7v160006Ev, symObjAddr: 0x6258, symBinAddr: 0x1000273D4, symSize: 0x38 }
  - { offsetInCU: 0x32374, offset: 0x959AE, size: 0x8, addend: 0x0, symName: __ZNKSt3__114__map_iteratorINS_15__tree_iteratorINS_12__value_typeINS_12basic_stringIcNS_11char_traitsIcEENS_9allocatorIcEEEEN8nlohmann10basic_jsonINS_3mapENS_6vectorES8_bxydS6_NS9_14adl_serializerENSC_IhNS6_IhEEEEEEEEPNS_11__tree_nodeISH_PvEElEEEdeB7v160006Ev, symObjAddr: 0x62C0, symBinAddr: 0x10002743C, symSize: 0x28 }
  - { offsetInCU: 0x3239A, offset: 0x959D4, size: 0x8, addend: 0x0, symName: __ZNSt3__16vectorIN8nlohmann10basic_jsonINS_3mapES0_NS_12basic_stringIcNS_11char_traitsIcEENS_9allocatorIcEEEEbxydS7_NS1_14adl_serializerENS0_IhNS7_IhEEEEEENS7_ISD_EEE9push_backB7v160006EOSD_, symObjAddr: 0x62E8, symBinAddr: 0x100027464, symSize: 0x6C }
  - { offsetInCU: 0x323D1, offset: 0x95A0B, size: 0x8, addend: 0x0, symName: __ZNSt3__114__map_iteratorINS_15__tree_iteratorINS_12__value_typeINS_12basic_stringIcNS_11char_traitsIcEENS_9allocatorIcEEEEN8nlohmann10basic_jsonINS_3mapENS_6vectorES8_bxydS6_NS9_14adl_serializerENSC_IhNS6_IhEEEEEEEEPNS_11__tree_nodeISH_PvEElEEEppB7v160006Ev, symObjAddr: 0x6354, symBinAddr: 0x1000274D0, symSize: 0x2C }
  - { offsetInCU: 0x323F7, offset: 0x95A31, size: 0x8, addend: 0x0, symName: __ZNKSt3__16vectorIN8nlohmann10basic_jsonINS_3mapES0_NS_12basic_stringIcNS_11char_traitsIcEENS_9allocatorIcEEEEbxydS7_NS1_14adl_serializerENS0_IhNS7_IhEEEEEENS7_ISD_EEE5emptyB7v160006Ev, symObjAddr: 0x6380, symBinAddr: 0x1000274FC, symSize: 0x28 }
  - { offsetInCU: 0x3241D, offset: 0x95A57, size: 0x8, addend: 0x0, symName: __ZNSt3__16vectorIN8nlohmann10basic_jsonINS_3mapES0_NS_12basic_stringIcNS_11char_traitsIcEENS_9allocatorIcEEEEbxydS7_NS1_14adl_serializerENS0_IhNS7_IhEEEEEENS7_ISD_EEE4backB7v160006Ev, symObjAddr: 0x63A8, symBinAddr: 0x100027524, symSize: 0x1C }
  - { offsetInCU: 0x32443, offset: 0x95A7D, size: 0x8, addend: 0x0, symName: __ZN8nlohmann10basic_jsonINSt3__13mapENS1_6vectorENS1_12basic_stringIcNS1_11char_traitsIcEENS1_9allocatorIcEEEEbxydS7_NS_14adl_serializerENS3_IhNS7_IhEEEEEC1EOSD_, symObjAddr: 0x63C4, symBinAddr: 0x100027540, symSize: 0x34 }
  - { offsetInCU: 0x3247C, offset: 0x95AB6, size: 0x8, addend: 0x0, symName: __ZNSt3__16vectorIN8nlohmann10basic_jsonINS_3mapES0_NS_12basic_stringIcNS_11char_traitsIcEENS_9allocatorIcEEEEbxydS7_NS1_14adl_serializerENS0_IhNS7_IhEEEEEENS7_ISD_EEE8pop_backEv, symObjAddr: 0x63F8, symBinAddr: 0x100027574, symSize: 0x2C }
  - { offsetInCU: 0x324A4, offset: 0x95ADE, size: 0x8, addend: 0x0, symName: __ZNK8nlohmann10basic_jsonINSt3__13mapENS1_6vectorENS1_12basic_stringIcNS1_11char_traitsIcEENS1_9allocatorIcEEEEbxydS7_NS_14adl_serializerENS3_IhNS7_IhEEEEE8is_arrayEv, symObjAddr: 0x6424, symBinAddr: 0x1000275A0, symSize: 0x24 }
  - { offsetInCU: 0x324CA, offset: 0x95B04, size: 0x8, addend: 0x0, symName: __ZNSt3__16vectorIN8nlohmann10basic_jsonINS_3mapES0_NS_12basic_stringIcNS_11char_traitsIcEENS_9allocatorIcEEEEbxydS7_NS1_14adl_serializerENS0_IhNS7_IhEEEEEENS7_ISD_EEE5clearB7v160006Ev, symObjAddr: 0x6448, symBinAddr: 0x1000275C4, symSize: 0x4C }
  - { offsetInCU: 0x324FF, offset: 0x95B39, size: 0x8, addend: 0x0, symName: __ZNK8nlohmann10basic_jsonINSt3__13mapENS1_6vectorENS1_12basic_stringIcNS1_11char_traitsIcEENS1_9allocatorIcEEEEbxydS7_NS_14adl_serializerENS3_IhNS7_IhEEEEE9is_objectEv, symObjAddr: 0x6494, symBinAddr: 0x100027610, symSize: 0x24 }
  - { offsetInCU: 0x32525, offset: 0x95B5F, size: 0x8, addend: 0x0, symName: __ZNSt3__13mapINS_12basic_stringIcNS_11char_traitsIcEENS_9allocatorIcEEEEN8nlohmann10basic_jsonIS0_NS_6vectorES6_bxydS4_NS7_14adl_serializerENS9_IhNS4_IhEEEEEENS_4lessIvEENS4_INS_4pairIKS6_SD_EEEEE5clearB7v160006Ev, symObjAddr: 0x64B8, symBinAddr: 0x100027634, symSize: 0x24 }
  - { offsetInCU: 0x32564, offset: 0x95B9E, size: 0x8, addend: 0x0, symName: __ZNSt3__19allocatorINS_3mapINS_12basic_stringIcNS_11char_traitsIcEENS0_IcEEEEN8nlohmann10basic_jsonIS1_NS_6vectorES6_bxydS0_NS7_14adl_serializerENS9_IhNS0_IhEEEEEENS_4lessIvEENS0_INS_4pairIKS6_SD_EEEEEEEC1B7v160006Ev, symObjAddr: 0x64DC, symBinAddr: 0x100027658, symSize: 0x2C }
  - { offsetInCU: 0x32593, offset: 0x95BCD, size: 0x8, addend: 0x0, symName: __ZNSt3__116allocator_traitsINS_9allocatorINS_3mapINS_12basic_stringIcNS_11char_traitsIcEENS1_IcEEEEN8nlohmann10basic_jsonIS2_NS_6vectorES7_bxydS1_NS8_14adl_serializerENSA_IhNS1_IhEEEEEENS_4lessIvEENS1_INS_4pairIKS7_SE_EEEEEEEEE7destroyB7v160006ISL_vEEvRSM_PT_, symObjAddr: 0x6508, symBinAddr: 0x100027684, symSize: 0x2C }
  - { offsetInCU: 0x325D0, offset: 0x95C0A, size: 0x8, addend: 0x0, symName: __ZNSt3__116allocator_traitsINS_9allocatorINS_3mapINS_12basic_stringIcNS_11char_traitsIcEENS1_IcEEEEN8nlohmann10basic_jsonIS2_NS_6vectorES7_bxydS1_NS8_14adl_serializerENSA_IhNS1_IhEEEEEENS_4lessIvEENS1_INS_4pairIKS7_SE_EEEEEEEEE10deallocateB7v160006ERSM_PSL_m, symObjAddr: 0x6534, symBinAddr: 0x1000276B0, symSize: 0x34 }
  - { offsetInCU: 0x3262B, offset: 0x95C65, size: 0x8, addend: 0x0, symName: __ZNSt3__19allocatorINS_6vectorIN8nlohmann10basic_jsonINS_3mapES1_NS_12basic_stringIcNS_11char_traitsIcEENS0_IcEEEEbxydS0_NS2_14adl_serializerENS1_IhNS0_IhEEEEEENS0_ISD_EEEEEC1B7v160006Ev, symObjAddr: 0x6568, symBinAddr: 0x1000276E4, symSize: 0x2C }
  - { offsetInCU: 0x3265A, offset: 0x95C94, size: 0x8, addend: 0x0, symName: __ZNSt3__116allocator_traitsINS_9allocatorINS_6vectorIN8nlohmann10basic_jsonINS_3mapES2_NS_12basic_stringIcNS_11char_traitsIcEENS1_IcEEEEbxydS1_NS3_14adl_serializerENS2_IhNS1_IhEEEEEENS1_ISE_EEEEEEE7destroyB7v160006ISG_vEEvRSH_PT_, symObjAddr: 0x6594, symBinAddr: 0x100027710, symSize: 0x2C }
  - { offsetInCU: 0x32697, offset: 0x95CD1, size: 0x8, addend: 0x0, symName: __ZNSt3__116allocator_traitsINS_9allocatorINS_6vectorIN8nlohmann10basic_jsonINS_3mapES2_NS_12basic_stringIcNS_11char_traitsIcEENS1_IcEEEEbxydS1_NS3_14adl_serializerENS2_IhNS1_IhEEEEEENS1_ISE_EEEEEEE10deallocateB7v160006ERSH_PSG_m, symObjAddr: 0x65C0, symBinAddr: 0x10002773C, symSize: 0x34 }
  - { offsetInCU: 0x326D9, offset: 0x95D13, size: 0x8, addend: 0x0, symName: __ZNSt3__19allocatorINS_12basic_stringIcNS_11char_traitsIcEENS0_IcEEEEEC1B7v160006Ev, symObjAddr: 0x65F4, symBinAddr: 0x100027770, symSize: 0x2C }
  - { offsetInCU: 0x32703, offset: 0x95D3D, size: 0x8, addend: 0x0, symName: __ZNSt3__116allocator_traitsINS_9allocatorINS_12basic_stringIcNS_11char_traitsIcEENS1_IcEEEEEEE7destroyB7v160006IS6_vEEvRS7_PT_, symObjAddr: 0x6620, symBinAddr: 0x10002779C, symSize: 0x2C }
  - { offsetInCU: 0x32740, offset: 0x95D7A, size: 0x8, addend: 0x0, symName: __ZNSt3__116allocator_traitsINS_9allocatorINS_12basic_stringIcNS_11char_traitsIcEENS1_IcEEEEEEE10deallocateB7v160006ERS7_PS6_m, symObjAddr: 0x664C, symBinAddr: 0x1000277C8, symSize: 0x34 }
  - { offsetInCU: 0x327A0, offset: 0x95DDA, size: 0x8, addend: 0x0, symName: __ZNSt3__19allocatorIN8nlohmann27byte_container_with_subtypeINS_6vectorIhNS0_IhEEEEEEEC1B7v160006Ev, symObjAddr: 0x6680, symBinAddr: 0x1000277FC, symSize: 0x2C }
  - { offsetInCU: 0x327CF, offset: 0x95E09, size: 0x8, addend: 0x0, symName: __ZNSt3__116allocator_traitsINS_9allocatorIN8nlohmann27byte_container_with_subtypeINS_6vectorIhNS1_IhEEEEEEEEE7destroyB7v160006IS7_vEEvRS8_PT_, symObjAddr: 0x66AC, symBinAddr: 0x100027828, symSize: 0x2C }
  - { offsetInCU: 0x3280C, offset: 0x95E46, size: 0x8, addend: 0x0, symName: __ZNSt3__116allocator_traitsINS_9allocatorIN8nlohmann27byte_container_with_subtypeINS_6vectorIhNS1_IhEEEEEEEEE10deallocateB7v160006ERS8_PS7_m, symObjAddr: 0x66D8, symBinAddr: 0x100027854, symSize: 0x34 }
  - { offsetInCU: 0x3284E, offset: 0x95E88, size: 0x8, addend: 0x0, symName: __ZNSt3__16vectorIN8nlohmann10basic_jsonINS_3mapES0_NS_12basic_stringIcNS_11char_traitsIcEENS_9allocatorIcEEEEbxydS7_NS1_14adl_serializerENS0_IhNS7_IhEEEEEENS7_ISD_EEED1B7v160006Ev, symObjAddr: 0x670C, symBinAddr: 0x100027888, symSize: 0x2C }
  - { offsetInCU: 0x32878, offset: 0x95EB2, size: 0x8, addend: 0x0, symName: __ZNSt3__16vectorIN8nlohmann10basic_jsonINS_3mapES0_NS_12basic_stringIcNS_11char_traitsIcEENS_9allocatorIcEEEEbxydS7_NS1_14adl_serializerENS0_IhNS7_IhEEEEEENS7_ISD_EEEC2B7v160006Ev, symObjAddr: 0x6738, symBinAddr: 0x1000278B4, symSize: 0x58 }
  - { offsetInCU: 0x328A7, offset: 0x95EE1, size: 0x8, addend: 0x0, symName: __ZNSt3__117__compressed_pairIPN8nlohmann10basic_jsonINS_3mapENS_6vectorENS_12basic_stringIcNS_11char_traitsIcEENS_9allocatorIcEEEEbxydS8_NS1_14adl_serializerENS4_IhNS8_IhEEEEEENS8_ISE_EEEC1B7v160006IDnNS_18__default_init_tagEEEOT_OT0_, symObjAddr: 0x6790, symBinAddr: 0x10002790C, symSize: 0x3C }
  - { offsetInCU: 0x328FF, offset: 0x95F39, size: 0x8, addend: 0x0, symName: __ZNSt3__117__compressed_pairIPN8nlohmann10basic_jsonINS_3mapENS_6vectorENS_12basic_stringIcNS_11char_traitsIcEENS_9allocatorIcEEEEbxydS8_NS1_14adl_serializerENS4_IhNS8_IhEEEEEENS8_ISE_EEEC2B7v160006IDnNS_18__default_init_tagEEEOT_OT0_, symObjAddr: 0x67DC, symBinAddr: 0x100027958, symSize: 0x40 }
  - { offsetInCU: 0x32957, offset: 0x95F91, size: 0x8, addend: 0x0, symName: __ZNSt3__122__compressed_pair_elemIPN8nlohmann10basic_jsonINS_3mapENS_6vectorENS_12basic_stringIcNS_11char_traitsIcEENS_9allocatorIcEEEEbxydS8_NS1_14adl_serializerENS4_IhNS8_IhEEEEEELi0ELb0EEC2B7v160006IDnvEEOT_, symObjAddr: 0x681C, symBinAddr: 0x100027998, symSize: 0x1C }
  - { offsetInCU: 0x32999, offset: 0x95FD3, size: 0x8, addend: 0x0, symName: __ZNSt3__122__compressed_pair_elemINS_9allocatorIN8nlohmann10basic_jsonINS_3mapENS_6vectorENS_12basic_stringIcNS_11char_traitsIcEENS1_IcEEEEbxydS1_NS2_14adl_serializerENS5_IhNS1_IhEEEEEEEELi1ELb1EEC2B7v160006ENS_18__default_init_tagE, symObjAddr: 0x6838, symBinAddr: 0x1000279B4, symSize: 0x2C }
  - { offsetInCU: 0x329CE, offset: 0x96008, size: 0x8, addend: 0x0, symName: __ZNSt3__19allocatorIN8nlohmann10basic_jsonINS_3mapENS_6vectorENS_12basic_stringIcNS_11char_traitsIcEENS0_IcEEEEbxydS0_NS1_14adl_serializerENS4_IhNS0_IhEEEEEEEC2B7v160006Ev, symObjAddr: 0x6864, symBinAddr: 0x1000279E0, symSize: 0x2C }
  - { offsetInCU: 0x329F8, offset: 0x96032, size: 0x8, addend: 0x0, symName: __ZNSt3__116__non_trivial_ifILb1ENS_9allocatorIN8nlohmann10basic_jsonINS_3mapENS_6vectorENS_12basic_stringIcNS_11char_traitsIcEENS1_IcEEEEbxydS1_NS2_14adl_serializerENS5_IhNS1_IhEEEEEEEEEC2B7v160006Ev, symObjAddr: 0x6890, symBinAddr: 0x100027A0C, symSize: 0x14 }
  - { offsetInCU: 0x32A22, offset: 0x9605C, size: 0x8, addend: 0x0, symName: __ZNKSt3__16vectorIN8nlohmann10basic_jsonINS_3mapES0_NS_12basic_stringIcNS_11char_traitsIcEENS_9allocatorIcEEEEbxydS7_NS1_14adl_serializerENS0_IhNS7_IhEEEEEENS7_ISD_EEE8capacityB7v160006Ev, symObjAddr: 0x68A4, symBinAddr: 0x100027A20, symSize: 0x40 }
  - { offsetInCU: 0x32A48, offset: 0x96082, size: 0x8, addend: 0x0, symName: __ZNKSt3__16vectorIN8nlohmann10basic_jsonINS_3mapES0_NS_12basic_stringIcNS_11char_traitsIcEENS_9allocatorIcEEEEbxydS7_NS1_14adl_serializerENS0_IhNS7_IhEEEEEENS7_ISD_EEE8max_sizeEv, symObjAddr: 0x68E4, symBinAddr: 0x100027A60, symSize: 0x60 }
  - { offsetInCU: 0x32A70, offset: 0x960AA, size: 0x8, addend: 0x0, symName: __ZNKSt3__16vectorIN8nlohmann10basic_jsonINS_3mapES0_NS_12basic_stringIcNS_11char_traitsIcEENS_9allocatorIcEEEEbxydS7_NS1_14adl_serializerENS0_IhNS7_IhEEEEEENS7_ISD_EEE20__throw_length_errorB7v160006Ev, symObjAddr: 0x6944, symBinAddr: 0x100027AC0, symSize: 0x1C }
  - { offsetInCU: 0x32A96, offset: 0x960D0, size: 0x8, addend: 0x0, symName: __ZNSt3__16vectorIN8nlohmann10basic_jsonINS_3mapES0_NS_12basic_stringIcNS_11char_traitsIcEENS_9allocatorIcEEEEbxydS7_NS1_14adl_serializerENS0_IhNS7_IhEEEEEENS7_ISD_EEE7__allocB7v160006Ev, symObjAddr: 0x6960, symBinAddr: 0x100027ADC, symSize: 0x28 }
  - { offsetInCU: 0x32ABC, offset: 0x960F6, size: 0x8, addend: 0x0, symName: __ZNSt3__114__split_bufferIN8nlohmann10basic_jsonINS_3mapENS_6vectorENS_12basic_stringIcNS_11char_traitsIcEENS_9allocatorIcEEEEbxydS8_NS1_14adl_serializerENS4_IhNS8_IhEEEEEERNS8_ISE_EEEC1EmmSG_, symObjAddr: 0x6988, symBinAddr: 0x100027B04, symSize: 0x44 }
  - { offsetInCU: 0x32B12, offset: 0x9614C, size: 0x8, addend: 0x0, symName: __ZNSt3__114__split_bufferIN8nlohmann10basic_jsonINS_3mapENS_6vectorENS_12basic_stringIcNS_11char_traitsIcEENS_9allocatorIcEEEEbxydS8_NS1_14adl_serializerENS4_IhNS8_IhEEEEEERNS8_ISE_EEED1Ev, symObjAddr: 0x6AE4, symBinAddr: 0x100027C60, symSize: 0x2C }
  - { offsetInCU: 0x32B3E, offset: 0x96178, size: 0x8, addend: 0x0, symName: __ZNKSt3__16vectorIN8nlohmann10basic_jsonINS_3mapES0_NS_12basic_stringIcNS_11char_traitsIcEENS_9allocatorIcEEEEbxydS7_NS1_14adl_serializerENS0_IhNS7_IhEEEEEENS7_ISD_EEE9__end_capB7v160006Ev, symObjAddr: 0x6B10, symBinAddr: 0x100027C8C, symSize: 0x28 }
  - { offsetInCU: 0x32B64, offset: 0x9619E, size: 0x8, addend: 0x0, symName: __ZNKSt3__117__compressed_pairIPN8nlohmann10basic_jsonINS_3mapENS_6vectorENS_12basic_stringIcNS_11char_traitsIcEENS_9allocatorIcEEEEbxydS8_NS1_14adl_serializerENS4_IhNS8_IhEEEEEENS8_ISE_EEE5firstB7v160006Ev, symObjAddr: 0x6B38, symBinAddr: 0x100027CB4, symSize: 0x24 }
  - { offsetInCU: 0x32B8A, offset: 0x961C4, size: 0x8, addend: 0x0, symName: __ZNKSt3__122__compressed_pair_elemIPN8nlohmann10basic_jsonINS_3mapENS_6vectorENS_12basic_stringIcNS_11char_traitsIcEENS_9allocatorIcEEEEbxydS8_NS1_14adl_serializerENS4_IhNS8_IhEEEEEELi0ELb0EE5__getB7v160006Ev, symObjAddr: 0x6B5C, symBinAddr: 0x100027CD8, symSize: 0x14 }
  - { offsetInCU: 0x32BBA, offset: 0x961F4, size: 0x8, addend: 0x0, symName: __ZNSt3__116allocator_traitsINS_9allocatorIN8nlohmann10basic_jsonINS_3mapENS_6vectorENS_12basic_stringIcNS_11char_traitsIcEENS1_IcEEEEbxydS1_NS2_14adl_serializerENS5_IhNS1_IhEEEEEEEEE8max_sizeB7v160006ISF_vEEmRKSF_, symObjAddr: 0x6B9C, symBinAddr: 0x100027CEC, symSize: 0x24 }
  - { offsetInCU: 0x32BE8, offset: 0x96222, size: 0x8, addend: 0x0, symName: __ZNKSt3__16vectorIN8nlohmann10basic_jsonINS_3mapES0_NS_12basic_stringIcNS_11char_traitsIcEENS_9allocatorIcEEEEbxydS7_NS1_14adl_serializerENS0_IhNS7_IhEEEEEENS7_ISD_EEE7__allocB7v160006Ev, symObjAddr: 0x6BC0, symBinAddr: 0x100027D10, symSize: 0x28 }
  - { offsetInCU: 0x32C0E, offset: 0x96248, size: 0x8, addend: 0x0, symName: __ZNKSt3__19allocatorIN8nlohmann10basic_jsonINS_3mapENS_6vectorENS_12basic_stringIcNS_11char_traitsIcEENS0_IcEEEEbxydS0_NS1_14adl_serializerENS4_IhNS0_IhEEEEEEE8max_sizeB7v160006Ev, symObjAddr: 0x6C84, symBinAddr: 0x100027D38, symSize: 0x14 }
  - { offsetInCU: 0x32C34, offset: 0x9626E, size: 0x8, addend: 0x0, symName: __ZNKSt3__117__compressed_pairIPN8nlohmann10basic_jsonINS_3mapENS_6vectorENS_12basic_stringIcNS_11char_traitsIcEENS_9allocatorIcEEEEbxydS8_NS1_14adl_serializerENS4_IhNS8_IhEEEEEENS8_ISE_EEE6secondB7v160006Ev, symObjAddr: 0x6C98, symBinAddr: 0x100027D4C, symSize: 0x24 }
  - { offsetInCU: 0x32C5A, offset: 0x96294, size: 0x8, addend: 0x0, symName: __ZNKSt3__122__compressed_pair_elemINS_9allocatorIN8nlohmann10basic_jsonINS_3mapENS_6vectorENS_12basic_stringIcNS_11char_traitsIcEENS1_IcEEEEbxydS1_NS2_14adl_serializerENS5_IhNS1_IhEEEEEEEELi1ELb1EE5__getB7v160006Ev, symObjAddr: 0x6CBC, symBinAddr: 0x100027D70, symSize: 0x14 }
  - { offsetInCU: 0x32C80, offset: 0x962BA, size: 0x8, addend: 0x0, symName: __ZNSt3__117__compressed_pairIPN8nlohmann10basic_jsonINS_3mapENS_6vectorENS_12basic_stringIcNS_11char_traitsIcEENS_9allocatorIcEEEEbxydS8_NS1_14adl_serializerENS4_IhNS8_IhEEEEEENS8_ISE_EEE6secondB7v160006Ev, symObjAddr: 0x6DBC, symBinAddr: 0x100027D84, symSize: 0x24 }
  - { offsetInCU: 0x32CA6, offset: 0x962E0, size: 0x8, addend: 0x0, symName: __ZNSt3__122__compressed_pair_elemINS_9allocatorIN8nlohmann10basic_jsonINS_3mapENS_6vectorENS_12basic_stringIcNS_11char_traitsIcEENS1_IcEEEEbxydS1_NS2_14adl_serializerENS5_IhNS1_IhEEEEEEEELi1ELb1EE5__getB7v160006Ev, symObjAddr: 0x6DE0, symBinAddr: 0x100027DA8, symSize: 0x14 }
  - { offsetInCU: 0x32CCC, offset: 0x96306, size: 0x8, addend: 0x0, symName: __ZNSt3__114__split_bufferIN8nlohmann10basic_jsonINS_3mapENS_6vectorENS_12basic_stringIcNS_11char_traitsIcEENS_9allocatorIcEEEEbxydS8_NS1_14adl_serializerENS4_IhNS8_IhEEEEEERNS8_ISE_EEEC2EmmSG_, symObjAddr: 0x6DF4, symBinAddr: 0x100027DBC, symSize: 0xD4 }
  - { offsetInCU: 0x32D3F, offset: 0x96379, size: 0x8, addend: 0x0, symName: __ZNSt3__117__compressed_pairIPN8nlohmann10basic_jsonINS_3mapENS_6vectorENS_12basic_stringIcNS_11char_traitsIcEENS_9allocatorIcEEEEbxydS8_NS1_14adl_serializerENS4_IhNS8_IhEEEEEERNS8_ISE_EEEC1B7v160006IDnSH_EEOT_OT0_, symObjAddr: 0x6EC8, symBinAddr: 0x100027E90, symSize: 0x3C }
  - { offsetInCU: 0x32D97, offset: 0x963D1, size: 0x8, addend: 0x0, symName: __ZNSt3__114__split_bufferIN8nlohmann10basic_jsonINS_3mapENS_6vectorENS_12basic_stringIcNS_11char_traitsIcEENS_9allocatorIcEEEEbxydS8_NS1_14adl_serializerENS4_IhNS8_IhEEEEEERNS8_ISE_EEE7__allocB7v160006Ev, symObjAddr: 0x6F44, symBinAddr: 0x100027F0C, symSize: 0x28 }
  - { offsetInCU: 0x32DBD, offset: 0x963F7, size: 0x8, addend: 0x0, symName: __ZNSt3__114__split_bufferIN8nlohmann10basic_jsonINS_3mapENS_6vectorENS_12basic_stringIcNS_11char_traitsIcEENS_9allocatorIcEEEEbxydS8_NS1_14adl_serializerENS4_IhNS8_IhEEEEEERNS8_ISE_EEE9__end_capB7v160006Ev, symObjAddr: 0x6F6C, symBinAddr: 0x100027F34, symSize: 0x28 }
  - { offsetInCU: 0x32DE3, offset: 0x9641D, size: 0x8, addend: 0x0, symName: __ZNSt3__117__compressed_pairIPN8nlohmann10basic_jsonINS_3mapENS_6vectorENS_12basic_stringIcNS_11char_traitsIcEENS_9allocatorIcEEEEbxydS8_NS1_14adl_serializerENS4_IhNS8_IhEEEEEERNS8_ISE_EEEC2B7v160006IDnSH_EEOT_OT0_, symObjAddr: 0x6F94, symBinAddr: 0x100027F5C, symSize: 0x48 }
  - { offsetInCU: 0x32E3B, offset: 0x96475, size: 0x8, addend: 0x0, symName: __ZNSt3__122__compressed_pair_elemIRNS_9allocatorIN8nlohmann10basic_jsonINS_3mapENS_6vectorENS_12basic_stringIcNS_11char_traitsIcEENS1_IcEEEEbxydS1_NS2_14adl_serializerENS5_IhNS1_IhEEEEEEEELi1ELb0EEC2B7v160006ISG_vEEOT_, symObjAddr: 0x6FDC, symBinAddr: 0x100027FA4, symSize: 0x20 }
  - { offsetInCU: 0x32E7D, offset: 0x964B7, size: 0x8, addend: 0x0, symName: __ZNSt3__19allocatorIN8nlohmann10basic_jsonINS_3mapENS_6vectorENS_12basic_stringIcNS_11char_traitsIcEENS0_IcEEEEbxydS0_NS1_14adl_serializerENS4_IhNS0_IhEEEEEEE8allocateB7v160006Em, symObjAddr: 0x6FFC, symBinAddr: 0x100027FC4, symSize: 0x58 }
  - { offsetInCU: 0x32EB1, offset: 0x964EB, size: 0x8, addend: 0x0, symName: __ZNSt3__117__compressed_pairIPN8nlohmann10basic_jsonINS_3mapENS_6vectorENS_12basic_stringIcNS_11char_traitsIcEENS_9allocatorIcEEEEbxydS8_NS1_14adl_serializerENS4_IhNS8_IhEEEEEERNS8_ISE_EEE6secondB7v160006Ev, symObjAddr: 0x7158, symBinAddr: 0x10002801C, symSize: 0x28 }
  - { offsetInCU: 0x32ED7, offset: 0x96511, size: 0x8, addend: 0x0, symName: __ZNSt3__122__compressed_pair_elemIRNS_9allocatorIN8nlohmann10basic_jsonINS_3mapENS_6vectorENS_12basic_stringIcNS_11char_traitsIcEENS1_IcEEEEbxydS1_NS2_14adl_serializerENS5_IhNS1_IhEEEEEEEELi1ELb0EE5__getB7v160006Ev, symObjAddr: 0x7180, symBinAddr: 0x100028044, symSize: 0x18 }
  - { offsetInCU: 0x32EFD, offset: 0x96537, size: 0x8, addend: 0x0, symName: __ZNSt3__117__compressed_pairIPN8nlohmann10basic_jsonINS_3mapENS_6vectorENS_12basic_stringIcNS_11char_traitsIcEENS_9allocatorIcEEEEbxydS8_NS1_14adl_serializerENS4_IhNS8_IhEEEEEERNS8_ISE_EEE5firstB7v160006Ev, symObjAddr: 0x7198, symBinAddr: 0x10002805C, symSize: 0x24 }
  - { offsetInCU: 0x32F23, offset: 0x9655D, size: 0x8, addend: 0x0, symName: __ZNSt3__122__compressed_pair_elemIPN8nlohmann10basic_jsonINS_3mapENS_6vectorENS_12basic_stringIcNS_11char_traitsIcEENS_9allocatorIcEEEEbxydS8_NS1_14adl_serializerENS4_IhNS8_IhEEEEEELi0ELb0EE5__getB7v160006Ev, symObjAddr: 0x71BC, symBinAddr: 0x100028080, symSize: 0x14 }
  - { offsetInCU: 0x32F49, offset: 0x96583, size: 0x8, addend: 0x0, symName: __ZNKSt3__16vectorIN8nlohmann10basic_jsonINS_3mapES0_NS_12basic_stringIcNS_11char_traitsIcEENS_9allocatorIcEEEEbxydS7_NS1_14adl_serializerENS0_IhNS7_IhEEEEEENS7_ISD_EEE17__annotate_deleteB7v160006Ev, symObjAddr: 0x71D0, symBinAddr: 0x100028094, symSize: 0xB8 }
  - { offsetInCU: 0x32F6F, offset: 0x965A9, size: 0x8, addend: 0x0, symName: __ZNSt3__116reverse_iteratorIPN8nlohmann10basic_jsonINS_3mapENS_6vectorENS_12basic_stringIcNS_11char_traitsIcEENS_9allocatorIcEEEEbxydS8_NS1_14adl_serializerENS4_IhNS8_IhEEEEEEEC1B7v160006ESF_, symObjAddr: 0x73B4, symBinAddr: 0x100028278, symSize: 0x34 }
  - { offsetInCU: 0x32FA7, offset: 0x965E1, size: 0x8, addend: 0x0, symName: __ZNKSt3__116reverse_iteratorIPN8nlohmann10basic_jsonINS_3mapENS_6vectorENS_12basic_stringIcNS_11char_traitsIcEENS_9allocatorIcEEEEbxydS8_NS1_14adl_serializerENS4_IhNS8_IhEEEEEEE4baseB7v160006Ev, symObjAddr: 0x73E8, symBinAddr: 0x1000282AC, symSize: 0x18 }
  - { offsetInCU: 0x32FCD, offset: 0x96607, size: 0x8, addend: 0x0, symName: __ZNSt3__16vectorIN8nlohmann10basic_jsonINS_3mapES0_NS_12basic_stringIcNS_11char_traitsIcEENS_9allocatorIcEEEEbxydS7_NS1_14adl_serializerENS0_IhNS7_IhEEEEEENS7_ISD_EEE9__end_capB7v160006Ev, symObjAddr: 0x743C, symBinAddr: 0x100028300, symSize: 0x28 }
  - { offsetInCU: 0x32FF3, offset: 0x9662D, size: 0x8, addend: 0x0, symName: __ZNKSt3__16vectorIN8nlohmann10basic_jsonINS_3mapES0_NS_12basic_stringIcNS_11char_traitsIcEENS_9allocatorIcEEEEbxydS7_NS1_14adl_serializerENS0_IhNS7_IhEEEEEENS7_ISD_EEE14__annotate_newB7v160006Em, symObjAddr: 0x7464, symBinAddr: 0x100028328, symSize: 0xAC }
  - { offsetInCU: 0x33028, offset: 0x96662, size: 0x8, addend: 0x0, symName: __ZNKSt3__16vectorIN8nlohmann10basic_jsonINS_3mapES0_NS_12basic_stringIcNS_11char_traitsIcEENS_9allocatorIcEEEEbxydS7_NS1_14adl_serializerENS0_IhNS7_IhEEEEEENS7_ISD_EEE31__annotate_contiguous_containerB7v160006EPKvSH_SH_SH_, symObjAddr: 0x7520, symBinAddr: 0x1000283E4, symSize: 0x20 }
  - { offsetInCU: 0x3307A, offset: 0x966B4, size: 0x8, addend: 0x0, symName: __ZNKSt3__16vectorIN8nlohmann10basic_jsonINS_3mapES0_NS_12basic_stringIcNS_11char_traitsIcEENS_9allocatorIcEEEEbxydS7_NS1_14adl_serializerENS0_IhNS7_IhEEEEEENS7_ISD_EEE4dataB7v160006Ev, symObjAddr: 0x7540, symBinAddr: 0x100028404, symSize: 0x28 }
  - { offsetInCU: 0x330A0, offset: 0x966DA, size: 0x8, addend: 0x0, symName: __ZNSt3__129_AllocatorDestroyRangeReverseINS_9allocatorIN8nlohmann10basic_jsonINS_3mapENS_6vectorENS_12basic_stringIcNS_11char_traitsIcEENS1_IcEEEEbxydS1_NS2_14adl_serializerENS5_IhNS1_IhEEEEEEEENS_16reverse_iteratorIPSE_EEEC1B7v160006ERSF_RSI_SL_, symObjAddr: 0x75C8, symBinAddr: 0x10002848C, symSize: 0x44 }
  - { offsetInCU: 0x330F7, offset: 0x96731, size: 0x8, addend: 0x0, symName: __ZNSt3__116allocator_traitsINS_9allocatorIN8nlohmann10basic_jsonINS_3mapENS_6vectorENS_12basic_stringIcNS_11char_traitsIcEENS1_IcEEEEbxydS1_NS2_14adl_serializerENS5_IhNS1_IhEEEEEEEEE9constructB7v160006ISE_JSE_EvEEvRSF_PT_DpOT0_, symObjAddr: 0x7654, symBinAddr: 0x100028518, symSize: 0x34 }
  - { offsetInCU: 0x3314E, offset: 0x96788, size: 0x8, addend: 0x0, symName: __ZNKSt3__116reverse_iteratorIPN8nlohmann10basic_jsonINS_3mapENS_6vectorENS_12basic_stringIcNS_11char_traitsIcEENS_9allocatorIcEEEEbxydS8_NS1_14adl_serializerENS4_IhNS8_IhEEEEEEEdeB7v160006Ev, symObjAddr: 0x76AC, symBinAddr: 0x100028570, symSize: 0x28 }
  - { offsetInCU: 0x33182, offset: 0x967BC, size: 0x8, addend: 0x0, symName: __ZNSt3__116reverse_iteratorIPN8nlohmann10basic_jsonINS_3mapENS_6vectorENS_12basic_stringIcNS_11char_traitsIcEENS_9allocatorIcEEEEbxydS8_NS1_14adl_serializerENS4_IhNS8_IhEEEEEEEppB7v160006Ev, symObjAddr: 0x76D4, symBinAddr: 0x100028598, symSize: 0x20 }
  - { offsetInCU: 0x331A8, offset: 0x967E2, size: 0x8, addend: 0x0, symName: __ZNSt3__128__exception_guard_exceptionsINS_29_AllocatorDestroyRangeReverseINS_9allocatorIN8nlohmann10basic_jsonINS_3mapENS_6vectorENS_12basic_stringIcNS_11char_traitsIcEENS2_IcEEEEbxydS2_NS3_14adl_serializerENS6_IhNS2_IhEEEEEEEENS_16reverse_iteratorIPSF_EEEEE10__completeB7v160006Ev, symObjAddr: 0x76F4, symBinAddr: 0x1000285B8, symSize: 0x1C }
  - { offsetInCU: 0x331CE, offset: 0x96808, size: 0x8, addend: 0x0, symName: __ZNSt3__128__exception_guard_exceptionsINS_29_AllocatorDestroyRangeReverseINS_9allocatorIN8nlohmann10basic_jsonINS_3mapENS_6vectorENS_12basic_stringIcNS_11char_traitsIcEENS2_IcEEEEbxydS2_NS3_14adl_serializerENS6_IhNS2_IhEEEEEEEENS_16reverse_iteratorIPSF_EEEEED1B7v160006Ev, symObjAddr: 0x7710, symBinAddr: 0x1000285D4, symSize: 0x2C }
  - { offsetInCU: 0x331F8, offset: 0x96832, size: 0x8, addend: 0x0, symName: __ZNSt3__128__exception_guard_exceptionsINS_29_AllocatorDestroyRangeReverseINS_9allocatorIN8nlohmann10basic_jsonINS_3mapENS_6vectorENS_12basic_stringIcNS_11char_traitsIcEENS2_IcEEEEbxydS2_NS3_14adl_serializerENS6_IhNS2_IhEEEEEEEENS_16reverse_iteratorIPSF_EEEEEC1B7v160006ESK_, symObjAddr: 0x773C, symBinAddr: 0x100028600, symSize: 0x34 }
  - { offsetInCU: 0x33231, offset: 0x9686B, size: 0x8, addend: 0x0, symName: __ZNSt3__128__exception_guard_exceptionsINS_29_AllocatorDestroyRangeReverseINS_9allocatorIN8nlohmann10basic_jsonINS_3mapENS_6vectorENS_12basic_stringIcNS_11char_traitsIcEENS2_IcEEEEbxydS2_NS3_14adl_serializerENS6_IhNS2_IhEEEEEEEENS_16reverse_iteratorIPSF_EEEEEC2B7v160006ESK_, symObjAddr: 0x7770, symBinAddr: 0x100028634, symSize: 0x30 }
  - { offsetInCU: 0x3326A, offset: 0x968A4, size: 0x8, addend: 0x0, symName: __ZNSt3__129_AllocatorDestroyRangeReverseINS_9allocatorIN8nlohmann10basic_jsonINS_3mapENS_6vectorENS_12basic_stringIcNS_11char_traitsIcEENS1_IcEEEEbxydS1_NS2_14adl_serializerENS5_IhNS1_IhEEEEEEEENS_16reverse_iteratorIPSE_EEEC2B7v160006ERSF_RSI_SL_, symObjAddr: 0x77A0, symBinAddr: 0x100028664, symSize: 0x38 }
  - { offsetInCU: 0x332C1, offset: 0x968FB, size: 0x8, addend: 0x0, symName: __ZNSt3__19allocatorIN8nlohmann10basic_jsonINS_3mapENS_6vectorENS_12basic_stringIcNS_11char_traitsIcEENS0_IcEEEEbxydS0_NS1_14adl_serializerENS4_IhNS0_IhEEEEEEE9constructB7v160006ISD_JSD_EEEvPT_DpOT0_, symObjAddr: 0x77D8, symBinAddr: 0x10002869C, symSize: 0x30 }
  - { offsetInCU: 0x3331C, offset: 0x96956, size: 0x8, addend: 0x0, symName: __ZNSt3__119__to_address_helperINS_16reverse_iteratorIPN8nlohmann10basic_jsonINS_3mapENS_6vectorENS_12basic_stringIcNS_11char_traitsIcEENS_9allocatorIcEEEEbxydS9_NS2_14adl_serializerENS5_IhNS9_IhEEEEEEEEvE6__callB7v160006ERKSH_, symObjAddr: 0x7808, symBinAddr: 0x1000286CC, symSize: 0x38 }
  - { offsetInCU: 0x3333F, offset: 0x96979, size: 0x8, addend: 0x0, symName: __ZNKSt3__116reverse_iteratorIPN8nlohmann10basic_jsonINS_3mapENS_6vectorENS_12basic_stringIcNS_11char_traitsIcEENS_9allocatorIcEEEEbxydS8_NS1_14adl_serializerENS4_IhNS8_IhEEEEEEEptB7v160006Ev, symObjAddr: 0x7840, symBinAddr: 0x100028704, symSize: 0x24 }
  - { offsetInCU: 0x33365, offset: 0x9699F, size: 0x8, addend: 0x0, symName: __ZNSt3__128__exception_guard_exceptionsINS_29_AllocatorDestroyRangeReverseINS_9allocatorIN8nlohmann10basic_jsonINS_3mapENS_6vectorENS_12basic_stringIcNS_11char_traitsIcEENS2_IcEEEEbxydS2_NS3_14adl_serializerENS6_IhNS2_IhEEEEEEEENS_16reverse_iteratorIPSF_EEEEED2B7v160006Ev, symObjAddr: 0x7864, symBinAddr: 0x100028728, symSize: 0x50 }
  - { offsetInCU: 0x3338F, offset: 0x969C9, size: 0x8, addend: 0x0, symName: __ZNKSt3__129_AllocatorDestroyRangeReverseINS_9allocatorIN8nlohmann10basic_jsonINS_3mapENS_6vectorENS_12basic_stringIcNS_11char_traitsIcEENS1_IcEEEEbxydS1_NS2_14adl_serializerENS5_IhNS1_IhEEEEEEEENS_16reverse_iteratorIPSE_EEEclB7v160006Ev, symObjAddr: 0x78B4, symBinAddr: 0x100028778, symSize: 0xB4 }
  - { offsetInCU: 0x333B6, offset: 0x969F0, size: 0x8, addend: 0x0, symName: __ZNSt3__116reverse_iteratorINS0_IPN8nlohmann10basic_jsonINS_3mapENS_6vectorENS_12basic_stringIcNS_11char_traitsIcEENS_9allocatorIcEEEEbxydS8_NS1_14adl_serializerENS4_IhNS8_IhEEEEEEEEEC1B7v160006ESG_, symObjAddr: 0x79D8, symBinAddr: 0x10002889C, symSize: 0x3C }
  - { offsetInCU: 0x333EE, offset: 0x96A28, size: 0x8, addend: 0x0, symName: __ZNSt3__116allocator_traitsINS_9allocatorIN8nlohmann10basic_jsonINS_3mapENS_6vectorENS_12basic_stringIcNS_11char_traitsIcEENS1_IcEEEEbxydS1_NS2_14adl_serializerENS5_IhNS1_IhEEEEEEEEE7destroyB7v160006ISE_vEEvRSF_PT_, symObjAddr: 0x7A74, symBinAddr: 0x100028938, symSize: 0x2C }
  - { offsetInCU: 0x3342B, offset: 0x96A65, size: 0x8, addend: 0x0, symName: __ZNSt3__116reverse_iteratorINS0_IPN8nlohmann10basic_jsonINS_3mapENS_6vectorENS_12basic_stringIcNS_11char_traitsIcEENS_9allocatorIcEEEEbxydS8_NS1_14adl_serializerENS4_IhNS8_IhEEEEEEEEEppB7v160006Ev, symObjAddr: 0x7AC4, symBinAddr: 0x100028988, symSize: 0x30 }
  - { offsetInCU: 0x33451, offset: 0x96A8B, size: 0x8, addend: 0x0, symName: __ZNKSt3__116reverse_iteratorINS0_IPN8nlohmann10basic_jsonINS_3mapENS_6vectorENS_12basic_stringIcNS_11char_traitsIcEENS_9allocatorIcEEEEbxydS8_NS1_14adl_serializerENS4_IhNS8_IhEEEEEEEEE4baseB7v160006Ev, symObjAddr: 0x7AF4, symBinAddr: 0x1000289B8, symSize: 0x24 }
  - { offsetInCU: 0x33477, offset: 0x96AB1, size: 0x8, addend: 0x0, symName: __ZNSt3__19allocatorIN8nlohmann10basic_jsonINS_3mapENS_6vectorENS_12basic_stringIcNS_11char_traitsIcEENS0_IcEEEEbxydS0_NS1_14adl_serializerENS4_IhNS0_IhEEEEEEE7destroyB7v160006EPSD_, symObjAddr: 0x7B18, symBinAddr: 0x1000289DC, symSize: 0x28 }
  - { offsetInCU: 0x334B0, offset: 0x96AEA, size: 0x8, addend: 0x0, symName: __ZNSt3__119__to_address_helperINS_16reverse_iteratorINS1_IPN8nlohmann10basic_jsonINS_3mapENS_6vectorENS_12basic_stringIcNS_11char_traitsIcEENS_9allocatorIcEEEEbxydS9_NS2_14adl_serializerENS5_IhNS9_IhEEEEEEEEEEvE6__callB7v160006ERKSI_, symObjAddr: 0x7B40, symBinAddr: 0x100028A04, symSize: 0x38 }
  - { offsetInCU: 0x334D3, offset: 0x96B0D, size: 0x8, addend: 0x0, symName: __ZNKSt3__116reverse_iteratorINS0_IPN8nlohmann10basic_jsonINS_3mapENS_6vectorENS_12basic_stringIcNS_11char_traitsIcEENS_9allocatorIcEEEEbxydS8_NS1_14adl_serializerENS4_IhNS8_IhEEEEEEEEEptB7v160006Ev, symObjAddr: 0x7B78, symBinAddr: 0x100028A3C, symSize: 0x24 }
  - { offsetInCU: 0x334F9, offset: 0x96B33, size: 0x8, addend: 0x0, symName: __ZNKSt3__116reverse_iteratorINS0_IPN8nlohmann10basic_jsonINS_3mapENS_6vectorENS_12basic_stringIcNS_11char_traitsIcEENS_9allocatorIcEEEEbxydS8_NS1_14adl_serializerENS4_IhNS8_IhEEEEEEEEEdeB7v160006Ev, symObjAddr: 0x7B9C, symBinAddr: 0x100028A60, symSize: 0x34 }
  - { offsetInCU: 0x3352D, offset: 0x96B67, size: 0x8, addend: 0x0, symName: __ZNSt3__116reverse_iteratorIPN8nlohmann10basic_jsonINS_3mapENS_6vectorENS_12basic_stringIcNS_11char_traitsIcEENS_9allocatorIcEEEEbxydS8_NS1_14adl_serializerENS4_IhNS8_IhEEEEEEEmmB7v160006Ev, symObjAddr: 0x7BD0, symBinAddr: 0x100028A94, symSize: 0x20 }
  - { offsetInCU: 0x33553, offset: 0x96B8D, size: 0x8, addend: 0x0, symName: __ZNSt3__116reverse_iteratorINS0_IPN8nlohmann10basic_jsonINS_3mapENS_6vectorENS_12basic_stringIcNS_11char_traitsIcEENS_9allocatorIcEEEEbxydS8_NS1_14adl_serializerENS4_IhNS8_IhEEEEEEEEEC2B7v160006ESG_, symObjAddr: 0x7BF0, symBinAddr: 0x100028AB4, symSize: 0x2C }
  - { offsetInCU: 0x3358B, offset: 0x96BC5, size: 0x8, addend: 0x0, symName: __ZNSt3__116reverse_iteratorIPN8nlohmann10basic_jsonINS_3mapENS_6vectorENS_12basic_stringIcNS_11char_traitsIcEENS_9allocatorIcEEEEbxydS8_NS1_14adl_serializerENS4_IhNS8_IhEEEEEEEC2B7v160006ESF_, symObjAddr: 0x7C1C, symBinAddr: 0x100028AE0, symSize: 0x28 }
  - { offsetInCU: 0x335C3, offset: 0x96BFD, size: 0x8, addend: 0x0, symName: __ZNSt3__117__compressed_pairIPN8nlohmann10basic_jsonINS_3mapENS_6vectorENS_12basic_stringIcNS_11char_traitsIcEENS_9allocatorIcEEEEbxydS8_NS1_14adl_serializerENS4_IhNS8_IhEEEEEENS8_ISE_EEE5firstB7v160006Ev, symObjAddr: 0x7C44, symBinAddr: 0x100028B08, symSize: 0x24 }
  - { offsetInCU: 0x335E9, offset: 0x96C23, size: 0x8, addend: 0x0, symName: __ZNSt3__114__split_bufferIN8nlohmann10basic_jsonINS_3mapENS_6vectorENS_12basic_stringIcNS_11char_traitsIcEENS_9allocatorIcEEEEbxydS8_NS1_14adl_serializerENS4_IhNS8_IhEEEEEERNS8_ISE_EEED2Ev, symObjAddr: 0x7C68, symBinAddr: 0x100028B2C, symSize: 0x8C }
  - { offsetInCU: 0x33615, offset: 0x96C4F, size: 0x8, addend: 0x0, symName: __ZNSt3__114__split_bufferIN8nlohmann10basic_jsonINS_3mapENS_6vectorENS_12basic_stringIcNS_11char_traitsIcEENS_9allocatorIcEEEEbxydS8_NS1_14adl_serializerENS4_IhNS8_IhEEEEEERNS8_ISE_EEE5clearB7v160006Ev, symObjAddr: 0x7CF4, symBinAddr: 0x100028BB8, symSize: 0x28 }
  - { offsetInCU: 0x3363B, offset: 0x96C75, size: 0x8, addend: 0x0, symName: __ZNSt3__116allocator_traitsINS_9allocatorIN8nlohmann10basic_jsonINS_3mapENS_6vectorENS_12basic_stringIcNS_11char_traitsIcEENS1_IcEEEEbxydS1_NS2_14adl_serializerENS5_IhNS1_IhEEEEEEEEE10deallocateB7v160006ERSF_PSE_m, symObjAddr: 0x7D1C, symBinAddr: 0x100028BE0, symSize: 0x34 }
  - { offsetInCU: 0x3367D, offset: 0x96CB7, size: 0x8, addend: 0x0, symName: __ZNKSt3__114__split_bufferIN8nlohmann10basic_jsonINS_3mapENS_6vectorENS_12basic_stringIcNS_11char_traitsIcEENS_9allocatorIcEEEEbxydS8_NS1_14adl_serializerENS4_IhNS8_IhEEEEEERNS8_ISE_EEE8capacityB7v160006Ev, symObjAddr: 0x7D50, symBinAddr: 0x100028C14, symSize: 0x40 }
  - { offsetInCU: 0x336A3, offset: 0x96CDD, size: 0x8, addend: 0x0, symName: __ZNSt3__114__split_bufferIN8nlohmann10basic_jsonINS_3mapENS_6vectorENS_12basic_stringIcNS_11char_traitsIcEENS_9allocatorIcEEEEbxydS8_NS1_14adl_serializerENS4_IhNS8_IhEEEEEERNS8_ISE_EEE17__destruct_at_endB7v160006EPSE_, symObjAddr: 0x7D90, symBinAddr: 0x100028C54, symSize: 0x2C }
  - { offsetInCU: 0x336D7, offset: 0x96D11, size: 0x8, addend: 0x0, symName: __ZNSt3__114__split_bufferIN8nlohmann10basic_jsonINS_3mapENS_6vectorENS_12basic_stringIcNS_11char_traitsIcEENS_9allocatorIcEEEEbxydS8_NS1_14adl_serializerENS4_IhNS8_IhEEEEEERNS8_ISE_EEE17__destruct_at_endB7v160006EPSE_NS_17integral_constantIbLb0EEE, symObjAddr: 0x7DBC, symBinAddr: 0x100028C80, symSize: 0x80 }
  - { offsetInCU: 0x33718, offset: 0x96D52, size: 0x8, addend: 0x0, symName: __ZNSt3__19allocatorIN8nlohmann10basic_jsonINS_3mapENS_6vectorENS_12basic_stringIcNS_11char_traitsIcEENS0_IcEEEEbxydS0_NS1_14adl_serializerENS4_IhNS0_IhEEEEEEE10deallocateB7v160006EPSD_m, symObjAddr: 0x7E3C, symBinAddr: 0x100028D00, symSize: 0x40 }
  - { offsetInCU: 0x3375A, offset: 0x96D94, size: 0x8, addend: 0x0, symName: __ZNKSt3__114__split_bufferIN8nlohmann10basic_jsonINS_3mapENS_6vectorENS_12basic_stringIcNS_11char_traitsIcEENS_9allocatorIcEEEEbxydS8_NS1_14adl_serializerENS4_IhNS8_IhEEEEEERNS8_ISE_EEE9__end_capB7v160006Ev, symObjAddr: 0x7F84, symBinAddr: 0x100028D40, symSize: 0x28 }
  - { offsetInCU: 0x33780, offset: 0x96DBA, size: 0x8, addend: 0x0, symName: __ZNKSt3__117__compressed_pairIPN8nlohmann10basic_jsonINS_3mapENS_6vectorENS_12basic_stringIcNS_11char_traitsIcEENS_9allocatorIcEEEEbxydS8_NS1_14adl_serializerENS4_IhNS8_IhEEEEEERNS8_ISE_EEE5firstB7v160006Ev, symObjAddr: 0x7FAC, symBinAddr: 0x100028D68, symSize: 0x24 }
  - { offsetInCU: 0x337C9, offset: 0x96E03, size: 0x8, addend: 0x0, symName: __ZNKSt3__111__move_loopINS_17_ClassicAlgPolicyEEclB7v160006IPN8nlohmann10basic_jsonINS_3mapENS_6vectorENS_12basic_stringIcNS_11char_traitsIcEENS_9allocatorIcEEEEbxydSB_NS4_14adl_serializerENS7_IhNSB_IhEEEEEESI_NS_20back_insert_iteratorINS7_ISH_NSB_ISH_EEEEEEEENS_4pairIT_T1_EESO_T0_SP_, symObjAddr: 0x81E0, symBinAddr: 0x100028F9C, symSize: 0x98 }
  - { offsetInCU: 0x33852, offset: 0x96E8C, size: 0x8, addend: 0x0, symName: __ZNSt3__14pairIPN8nlohmann10basic_jsonINS_3mapENS_6vectorENS_12basic_stringIcNS_11char_traitsIcEENS_9allocatorIcEEEEbxydS8_NS1_14adl_serializerENS4_IhNS8_IhEEEEEESF_EC1B7v160006ISF_SF_LPv0EEEOT_OT0_, symObjAddr: 0x83D8, symBinAddr: 0x100029194, symSize: 0x3C }
  - { offsetInCU: 0x338B0, offset: 0x96EEA, size: 0x8, addend: 0x0, symName: __ZNSt3__14pairIPN8nlohmann10basic_jsonINS_3mapENS_6vectorENS_12basic_stringIcNS_11char_traitsIcEENS_9allocatorIcEEEEbxydS8_NS1_14adl_serializerENS4_IhNS8_IhEEEEEESF_EC2B7v160006ISF_SF_LPv0EEEOT_OT0_, symObjAddr: 0x8414, symBinAddr: 0x1000291D0, symSize: 0x34 }
  - { offsetInCU: 0x3390E, offset: 0x96F48, size: 0x8, addend: 0x0, symName: __ZNSt3__118__unwrap_iter_implINS_11__wrap_iterIPN8nlohmann10basic_jsonINS_3mapENS_6vectorENS_12basic_stringIcNS_11char_traitsIcEENS_9allocatorIcEEEEbxydS9_NS2_14adl_serializerENS5_IhNS9_IhEEEEEEEELb1EE8__unwrapB7v160006ESH_, symObjAddr: 0x8448, symBinAddr: 0x100029204, symSize: 0x28 }
  - { offsetInCU: 0x3393B, offset: 0x96F75, size: 0x8, addend: 0x0, symName: __ZNSt3__119__to_address_helperINS_11__wrap_iterIPN8nlohmann10basic_jsonINS_3mapENS_6vectorENS_12basic_stringIcNS_11char_traitsIcEENS_9allocatorIcEEEEbxydS9_NS2_14adl_serializerENS5_IhNS9_IhEEEEEEEEvE6__callB7v160006ERKSH_, symObjAddr: 0x8494, symBinAddr: 0x100029250, symSize: 0x30 }
  - { offsetInCU: 0x3395E, offset: 0x96F98, size: 0x8, addend: 0x0, symName: __ZNSt3__114pointer_traitsINS_11__wrap_iterIPN8nlohmann10basic_jsonINS_3mapENS_6vectorENS_12basic_stringIcNS_11char_traitsIcEENS_9allocatorIcEEEEbxydS9_NS2_14adl_serializerENS5_IhNS9_IhEEEEEEEEE10to_addressB7v160006ESH_, symObjAddr: 0x84C4, symBinAddr: 0x100029280, symSize: 0x2C }
  - { offsetInCU: 0x33982, offset: 0x96FBC, size: 0x8, addend: 0x0, symName: __ZNKSt3__111__wrap_iterIPN8nlohmann10basic_jsonINS_3mapENS_6vectorENS_12basic_stringIcNS_11char_traitsIcEENS_9allocatorIcEEEEbxydS8_NS1_14adl_serializerENS4_IhNS8_IhEEEEEEE4baseB7v160006Ev, symObjAddr: 0x84F0, symBinAddr: 0x1000292AC, symSize: 0x18 }
  - { offsetInCU: 0x339A8, offset: 0x96FE2, size: 0x8, addend: 0x0, symName: __ZNSt3__18_IterOpsINS_17_ClassicAlgPolicyEE11__iter_moveB7v160006IRPN8nlohmann10basic_jsonINS_3mapENS_6vectorENS_12basic_stringIcNS_11char_traitsIcEENS_9allocatorIcEEEEbxydSB_NS4_14adl_serializerENS7_IhNSB_IhEEEEEEEENS_9enable_ifIXsr12is_referenceIDTdeclsr3stdE7declvalIRT_EEEEE5valueEDTclsr3stdE4movedeclsr3stdE7declvalISM_EEEEE4typeEOSL_, symObjAddr: 0x8508, symBinAddr: 0x1000292C4, symSize: 0x28 }
  - { offsetInCU: 0x339D4, offset: 0x9700E, size: 0x8, addend: 0x0, symName: __ZNSt3__120back_insert_iteratorINS_6vectorIN8nlohmann10basic_jsonINS_3mapES1_NS_12basic_stringIcNS_11char_traitsIcEENS_9allocatorIcEEEEbxydS8_NS2_14adl_serializerENS1_IhNS8_IhEEEEEENS8_ISE_EEEEEdeB7v160006Ev, symObjAddr: 0x8530, symBinAddr: 0x1000292EC, symSize: 0x14 }
  - { offsetInCU: 0x339FA, offset: 0x97034, size: 0x8, addend: 0x0, symName: __ZNSt3__120back_insert_iteratorINS_6vectorIN8nlohmann10basic_jsonINS_3mapES1_NS_12basic_stringIcNS_11char_traitsIcEENS_9allocatorIcEEEEbxydS8_NS2_14adl_serializerENS1_IhNS8_IhEEEEEENS8_ISE_EEEEEaSB7v160006EOSE_, symObjAddr: 0x8544, symBinAddr: 0x100029300, symSize: 0x38 }
  - { offsetInCU: 0x33A2E, offset: 0x97068, size: 0x8, addend: 0x0, symName: __ZNSt3__120back_insert_iteratorINS_6vectorIN8nlohmann10basic_jsonINS_3mapES1_NS_12basic_stringIcNS_11char_traitsIcEENS_9allocatorIcEEEEbxydS8_NS2_14adl_serializerENS1_IhNS8_IhEEEEEENS8_ISE_EEEEEppB7v160006Ev, symObjAddr: 0x857C, symBinAddr: 0x100029338, symSize: 0x14 }
  - { offsetInCU: 0x33A54, offset: 0x9708E, size: 0x8, addend: 0x0, symName: __ZNSt3__18_IterOpsINS_17_ClassicAlgPolicyEE25__validate_iter_referenceB7v160006IRPN8nlohmann10basic_jsonINS_3mapENS_6vectorENS_12basic_stringIcNS_11char_traitsIcEENS_9allocatorIcEEEEbxydSB_NS4_14adl_serializerENS7_IhNSB_IhEEEEEEEEvv, symObjAddr: 0x85C8, symBinAddr: 0x100029384, symSize: 0x4 }
  - { offsetInCU: 0x33A77, offset: 0x970B1, size: 0x8, addend: 0x0, symName: __ZNSt3__14pairIPN8nlohmann10basic_jsonINS_3mapENS_6vectorENS_12basic_stringIcNS_11char_traitsIcEENS_9allocatorIcEEEEbxydS8_NS1_14adl_serializerENS4_IhNS8_IhEEEEEENS_20back_insert_iteratorINS4_ISE_NS8_ISE_EEEEEEEC1B7v160006ISF_SJ_LPv0EEEOT_OT0_, symObjAddr: 0x85CC, symBinAddr: 0x100029388, symSize: 0x3C }
  - { offsetInCU: 0x33AD5, offset: 0x9710F, size: 0x8, addend: 0x0, symName: __ZNSt3__14pairIPN8nlohmann10basic_jsonINS_3mapENS_6vectorENS_12basic_stringIcNS_11char_traitsIcEENS_9allocatorIcEEEEbxydS8_NS1_14adl_serializerENS4_IhNS8_IhEEEEEENS_20back_insert_iteratorINS4_ISE_NS8_ISE_EEEEEEEC2B7v160006ISF_SJ_LPv0EEEOT_OT0_, symObjAddr: 0x8608, symBinAddr: 0x1000293C4, symSize: 0x34 }
  - { offsetInCU: 0x33B33, offset: 0x9716D, size: 0x8, addend: 0x0, symName: __ZNSt3__118__unwrap_iter_implINS_20back_insert_iteratorINS_6vectorIN8nlohmann10basic_jsonINS_3mapES2_NS_12basic_stringIcNS_11char_traitsIcEENS_9allocatorIcEEEEbxydS9_NS3_14adl_serializerENS2_IhNS9_IhEEEEEENS9_ISF_EEEEEELb0EE8__unwrapB7v160006ESI_, symObjAddr: 0x863C, symBinAddr: 0x1000293F8, symSize: 0x1C }
  - { offsetInCU: 0x33B74, offset: 0x971AE, size: 0x8, addend: 0x0, symName: __ZNSt3__14pairINS_11__wrap_iterIPN8nlohmann10basic_jsonINS_3mapENS_6vectorENS_12basic_stringIcNS_11char_traitsIcEENS_9allocatorIcEEEEbxydS9_NS2_14adl_serializerENS5_IhNS9_IhEEEEEEEENS_20back_insert_iteratorINS5_ISF_NS9_ISF_EEEEEEEC1B7v160006ISH_SL_LPv0EEEOT_OT0_, symObjAddr: 0x8658, symBinAddr: 0x100029414, symSize: 0x3C }
  - { offsetInCU: 0x33BD2, offset: 0x9720C, size: 0x8, addend: 0x0, symName: __ZNSt3__14pairINS_11__wrap_iterIPN8nlohmann10basic_jsonINS_3mapENS_6vectorENS_12basic_stringIcNS_11char_traitsIcEENS_9allocatorIcEEEEbxydS9_NS2_14adl_serializerENS5_IhNS9_IhEEEEEEEENS_20back_insert_iteratorINS5_ISF_NS9_ISF_EEEEEEEC2B7v160006ISH_SL_LPv0EEEOT_OT0_, symObjAddr: 0x8694, symBinAddr: 0x100029450, symSize: 0x34 }
  - { offsetInCU: 0x33C30, offset: 0x9726A, size: 0x8, addend: 0x0, symName: __ZNSt3__118__unwrap_iter_implINS_11__wrap_iterIPN8nlohmann10basic_jsonINS_3mapENS_6vectorENS_12basic_stringIcNS_11char_traitsIcEENS_9allocatorIcEEEEbxydS9_NS2_14adl_serializerENS5_IhNS9_IhEEEEEEEELb1EE8__rewrapB7v160006ESH_SG_, symObjAddr: 0x8714, symBinAddr: 0x1000294D0, symSize: 0x5C }
  - { offsetInCU: 0x33C61, offset: 0x9729B, size: 0x8, addend: 0x0, symName: __ZNKSt3__111__wrap_iterIPN8nlohmann10basic_jsonINS_3mapENS_6vectorENS_12basic_stringIcNS_11char_traitsIcEENS_9allocatorIcEEEEbxydS8_NS1_14adl_serializerENS4_IhNS8_IhEEEEEEEplB7v160006El, symObjAddr: 0x8770, symBinAddr: 0x10002952C, symSize: 0x3C }
  - { offsetInCU: 0x33CA3, offset: 0x972DD, size: 0x8, addend: 0x0, symName: __ZNSt3__111__wrap_iterIPN8nlohmann10basic_jsonINS_3mapENS_6vectorENS_12basic_stringIcNS_11char_traitsIcEENS_9allocatorIcEEEEbxydS8_NS1_14adl_serializerENS4_IhNS8_IhEEEEEEEpLB7v160006El, symObjAddr: 0x87AC, symBinAddr: 0x100029568, symSize: 0x28 }
  - { offsetInCU: 0x33CD7, offset: 0x97311, size: 0x8, addend: 0x0, symName: __ZNSt3__118__unwrap_iter_implINS_20back_insert_iteratorINS_6vectorIN8nlohmann10basic_jsonINS_3mapES2_NS_12basic_stringIcNS_11char_traitsIcEENS_9allocatorIcEEEEbxydS9_NS3_14adl_serializerENS2_IhNS9_IhEEEEEENS9_ISF_EEEEEELb0EE8__rewrapB7v160006ESI_SI_, symObjAddr: 0x87D4, symBinAddr: 0x100029590, symSize: 0x20 }
  - { offsetInCU: 0x33D05, offset: 0x9733F, size: 0x8, addend: 0x0, symName: __ZNSt3__16vectorIN8nlohmann10basic_jsonINS_3mapES0_NS_12basic_stringIcNS_11char_traitsIcEENS_9allocatorIcEEEEbxydS7_NS1_14adl_serializerENS0_IhNS7_IhEEEEEENS7_ISD_EEE11__make_iterB7v160006EPSD_, symObjAddr: 0x87F4, symBinAddr: 0x1000295B0, symSize: 0x34 }
  - { offsetInCU: 0x33D3A, offset: 0x97374, size: 0x8, addend: 0x0, symName: __ZNSt3__111__wrap_iterIPN8nlohmann10basic_jsonINS_3mapENS_6vectorENS_12basic_stringIcNS_11char_traitsIcEENS_9allocatorIcEEEEbxydS8_NS1_14adl_serializerENS4_IhNS8_IhEEEEEEEC1B7v160006EPKvSF_, symObjAddr: 0x8828, symBinAddr: 0x1000295E4, symSize: 0x3C }
  - { offsetInCU: 0x33D80, offset: 0x973BA, size: 0x8, addend: 0x0, symName: __ZNSt3__111__wrap_iterIPN8nlohmann10basic_jsonINS_3mapENS_6vectorENS_12basic_stringIcNS_11char_traitsIcEENS_9allocatorIcEEEEbxydS8_NS1_14adl_serializerENS4_IhNS8_IhEEEEEEEC2B7v160006EPKvSF_, symObjAddr: 0x8864, symBinAddr: 0x100029620, symSize: 0x24 }
  - { offsetInCU: 0x33DC6, offset: 0x97400, size: 0x8, addend: 0x0, symName: __ZNSt3__120back_insert_iteratorINS_6vectorIN8nlohmann10basic_jsonINS_3mapES1_NS_12basic_stringIcNS_11char_traitsIcEENS_9allocatorIcEEEEbxydS8_NS2_14adl_serializerENS1_IhNS8_IhEEEEEENS8_ISE_EEEEEC1B7v160006ERSG_, symObjAddr: 0x8888, symBinAddr: 0x100029644, symSize: 0x34 }
  - { offsetInCU: 0x33DFE, offset: 0x97438, size: 0x8, addend: 0x0, symName: __ZNSt3__120back_insert_iteratorINS_6vectorIN8nlohmann10basic_jsonINS_3mapES1_NS_12basic_stringIcNS_11char_traitsIcEENS_9allocatorIcEEEEbxydS8_NS2_14adl_serializerENS1_IhNS8_IhEEEEEENS8_ISE_EEEEEC2B7v160006ERSG_, symObjAddr: 0x88BC, symBinAddr: 0x100029678, symSize: 0x20 }
  - { offsetInCU: 0x33E36, offset: 0x97470, size: 0x8, addend: 0x0, symName: __ZNKSt3__16__treeINS_12__value_typeINS_12basic_stringIcNS_11char_traitsIcEENS_9allocatorIcEEEEN8nlohmann10basic_jsonINS_3mapENS_6vectorES7_bxydS5_NS8_14adl_serializerENSB_IhNS5_IhEEEEEEEENS_19__map_value_compareIS7_SG_NS_4lessIvEELb1EEENS5_ISG_EEE4sizeB7v160006Ev, symObjAddr: 0x88DC, symBinAddr: 0x100029698, symSize: 0x28 }
  - { offsetInCU: 0x33E5C, offset: 0x97496, size: 0x8, addend: 0x0, symName: __ZNKSt3__117__compressed_pairImNS_19__map_value_compareINS_12basic_stringIcNS_11char_traitsIcEENS_9allocatorIcEEEENS_12__value_typeIS7_N8nlohmann10basic_jsonINS_3mapENS_6vectorES7_bxydS5_NS9_14adl_serializerENSC_IhNS5_IhEEEEEEEENS_4lessIvEELb1EEEE5firstB7v160006Ev, symObjAddr: 0x8904, symBinAddr: 0x1000296C0, symSize: 0x24 }
  - { offsetInCU: 0x33E82, offset: 0x974BC, size: 0x8, addend: 0x0, symName: __ZNKSt3__122__compressed_pair_elemImLi0ELb0EE5__getB7v160006Ev, symObjAddr: 0x8928, symBinAddr: 0x1000296E4, symSize: 0x14 }
  - { offsetInCU: 0x33EA8, offset: 0x974E2, size: 0x8, addend: 0x0, symName: __ZNSt3__16__treeINS_12__value_typeINS_12basic_stringIcNS_11char_traitsIcEENS_9allocatorIcEEEEN8nlohmann10basic_jsonINS_3mapENS_6vectorES7_bxydS5_NS8_14adl_serializerENSB_IhNS5_IhEEEEEEEENS_19__map_value_compareIS7_SG_NS_4lessIvEELb1EEENS5_ISG_EEE5beginB7v160006Ev, symObjAddr: 0x893C, symBinAddr: 0x1000296F8, symSize: 0x34 }
  - { offsetInCU: 0x33ECE, offset: 0x97508, size: 0x8, addend: 0x0, symName: __ZNSt3__114__map_iteratorINS_15__tree_iteratorINS_12__value_typeINS_12basic_stringIcNS_11char_traitsIcEENS_9allocatorIcEEEEN8nlohmann10basic_jsonINS_3mapENS_6vectorES8_bxydS6_NS9_14adl_serializerENSC_IhNS6_IhEEEEEEEEPNS_11__tree_nodeISH_PvEElEEEC1B7v160006ESM_, symObjAddr: 0x8970, symBinAddr: 0x10002972C, symSize: 0x34 }
  - { offsetInCU: 0x33F07, offset: 0x97541, size: 0x8, addend: 0x0, symName: __ZNSt3__16__treeINS_12__value_typeINS_12basic_stringIcNS_11char_traitsIcEENS_9allocatorIcEEEEN8nlohmann10basic_jsonINS_3mapENS_6vectorES7_bxydS5_NS8_14adl_serializerENSB_IhNS5_IhEEEEEEEENS_19__map_value_compareIS7_SG_NS_4lessIvEELb1EEENS5_ISG_EEE12__begin_nodeB7v160006Ev, symObjAddr: 0x89A4, symBinAddr: 0x100029760, symSize: 0x14 }
  - { offsetInCU: 0x33F2D, offset: 0x97567, size: 0x8, addend: 0x0, symName: __ZNSt3__115__tree_iteratorINS_12__value_typeINS_12basic_stringIcNS_11char_traitsIcEENS_9allocatorIcEEEEN8nlohmann10basic_jsonINS_3mapENS_6vectorES7_bxydS5_NS8_14adl_serializerENSB_IhNS5_IhEEEEEEEEPNS_11__tree_nodeISG_PvEElEC1B7v160006EPNS_15__tree_end_nodeIPNS_16__tree_node_baseISI_EEEE, symObjAddr: 0x89B8, symBinAddr: 0x100029774, symSize: 0x34 }
  - { offsetInCU: 0x33F66, offset: 0x975A0, size: 0x8, addend: 0x0, symName: __ZNSt3__115__tree_iteratorINS_12__value_typeINS_12basic_stringIcNS_11char_traitsIcEENS_9allocatorIcEEEEN8nlohmann10basic_jsonINS_3mapENS_6vectorES7_bxydS5_NS8_14adl_serializerENSB_IhNS5_IhEEEEEEEEPNS_11__tree_nodeISG_PvEElEC2B7v160006EPNS_15__tree_end_nodeIPNS_16__tree_node_baseISI_EEEE, symObjAddr: 0x89EC, symBinAddr: 0x1000297A8, symSize: 0x20 }
  - { offsetInCU: 0x33F9F, offset: 0x975D9, size: 0x8, addend: 0x0, symName: __ZNSt3__114__map_iteratorINS_15__tree_iteratorINS_12__value_typeINS_12basic_stringIcNS_11char_traitsIcEENS_9allocatorIcEEEEN8nlohmann10basic_jsonINS_3mapENS_6vectorES8_bxydS6_NS9_14adl_serializerENSC_IhNS6_IhEEEEEEEEPNS_11__tree_nodeISH_PvEElEEEC2B7v160006ESM_, symObjAddr: 0x8A0C, symBinAddr: 0x1000297C8, symSize: 0x20 }
  - { offsetInCU: 0x33FD8, offset: 0x97612, size: 0x8, addend: 0x0, symName: __ZNSt3__16__treeINS_12__value_typeINS_12basic_stringIcNS_11char_traitsIcEENS_9allocatorIcEEEEN8nlohmann10basic_jsonINS_3mapENS_6vectorES7_bxydS5_NS8_14adl_serializerENSB_IhNS5_IhEEEEEEEENS_19__map_value_compareIS7_SG_NS_4lessIvEELb1EEENS5_ISG_EEE3endB7v160006Ev, symObjAddr: 0x8A2C, symBinAddr: 0x1000297E8, symSize: 0x34 }
  - { offsetInCU: 0x33FFE, offset: 0x97638, size: 0x8, addend: 0x0, symName: __ZNSt3__16__treeINS_12__value_typeINS_12basic_stringIcNS_11char_traitsIcEENS_9allocatorIcEEEEN8nlohmann10basic_jsonINS_3mapENS_6vectorES7_bxydS5_NS8_14adl_serializerENSB_IhNS5_IhEEEEEEEENS_19__map_value_compareIS7_SG_NS_4lessIvEELb1EEENS5_ISG_EEE10__end_nodeB7v160006Ev, symObjAddr: 0x8A60, symBinAddr: 0x10002981C, symSize: 0x2C }
  - { offsetInCU: 0x34024, offset: 0x9765E, size: 0x8, addend: 0x0, symName: __ZNSt3__114pointer_traitsIPNS_15__tree_end_nodeIPNS_16__tree_node_baseIPvEEEEE10pointer_toB7v160006ERS6_, symObjAddr: 0x8A8C, symBinAddr: 0x100029848, symSize: 0x14 }
  - { offsetInCU: 0x34047, offset: 0x97681, size: 0x8, addend: 0x0, symName: __ZNSt3__117__compressed_pairINS_15__tree_end_nodeIPNS_16__tree_node_baseIPvEEEENS_9allocatorINS_11__tree_nodeINS_12__value_typeINS_12basic_stringIcNS_11char_traitsIcEENS7_IcEEEEN8nlohmann10basic_jsonINS_3mapENS_6vectorESE_bxydS7_NSF_14adl_serializerENSI_IhNS7_IhEEEEEEEES3_EEEEE5firstB7v160006Ev, symObjAddr: 0x8AA0, symBinAddr: 0x10002985C, symSize: 0x24 }
  - { offsetInCU: 0x3406D, offset: 0x976A7, size: 0x8, addend: 0x0, symName: __ZNSt3__122__compressed_pair_elemINS_15__tree_end_nodeIPNS_16__tree_node_baseIPvEEEELi0ELb0EE5__getB7v160006Ev, symObjAddr: 0x8AC4, symBinAddr: 0x100029880, symSize: 0x14 }
  - { offsetInCU: 0x34093, offset: 0x976CD, size: 0x8, addend: 0x0, symName: __ZNKSt3__115__tree_iteratorINS_12__value_typeINS_12basic_stringIcNS_11char_traitsIcEENS_9allocatorIcEEEEN8nlohmann10basic_jsonINS_3mapENS_6vectorES7_bxydS5_NS8_14adl_serializerENSB_IhNS5_IhEEEEEEEEPNS_11__tree_nodeISG_PvEElEptB7v160006Ev, symObjAddr: 0x8B3C, symBinAddr: 0x1000298F8, symSize: 0x2C }
  - { offsetInCU: 0x340B9, offset: 0x976F3, size: 0x8, addend: 0x0, symName: __ZNSt3__112__value_typeINS_12basic_stringIcNS_11char_traitsIcEENS_9allocatorIcEEEEN8nlohmann10basic_jsonINS_3mapENS_6vectorES6_bxydS4_NS7_14adl_serializerENSA_IhNS4_IhEEEEEEE11__get_valueB7v160006Ev, symObjAddr: 0x8B68, symBinAddr: 0x100029924, symSize: 0x24 }
  - { offsetInCU: 0x340DF, offset: 0x97719, size: 0x8, addend: 0x0, symName: __ZNSt3__114pointer_traitsIPNS_12__value_typeINS_12basic_stringIcNS_11char_traitsIcEENS_9allocatorIcEEEEN8nlohmann10basic_jsonINS_3mapENS_6vectorES7_bxydS5_NS8_14adl_serializerENSB_IhNS5_IhEEEEEEEEE10pointer_toB7v160006ERSG_, symObjAddr: 0x8B8C, symBinAddr: 0x100029948, symSize: 0x14 }
  - { offsetInCU: 0x34102, offset: 0x9773C, size: 0x8, addend: 0x0, symName: __ZNKSt3__115__tree_iteratorINS_12__value_typeINS_12basic_stringIcNS_11char_traitsIcEENS_9allocatorIcEEEEN8nlohmann10basic_jsonINS_3mapENS_6vectorES7_bxydS5_NS8_14adl_serializerENSB_IhNS5_IhEEEEEEEEPNS_11__tree_nodeISG_PvEElE8__get_npB7v160006Ev, symObjAddr: 0x8BA0, symBinAddr: 0x10002995C, symSize: 0x18 }
  - { offsetInCU: 0x34128, offset: 0x97762, size: 0x8, addend: 0x0, symName: __ZNSt3__16vectorIN8nlohmann10basic_jsonINS_3mapES0_NS_12basic_stringIcNS_11char_traitsIcEENS_9allocatorIcEEEEbxydS7_NS1_14adl_serializerENS0_IhNS7_IhEEEEEENS7_ISD_EEE22__construct_one_at_endB7v160006IJSD_EEEvDpOT_, symObjAddr: 0x8BF0, symBinAddr: 0x1000299AC, symSize: 0x90 }
  - { offsetInCU: 0x34177, offset: 0x977B1, size: 0x8, addend: 0x0, symName: __ZNSt3__16vectorIN8nlohmann10basic_jsonINS_3mapES0_NS_12basic_stringIcNS_11char_traitsIcEENS_9allocatorIcEEEEbxydS7_NS1_14adl_serializerENS0_IhNS7_IhEEEEEENS7_ISD_EEE21__push_back_slow_pathISD_EEvOT_, symObjAddr: 0x8C80, symBinAddr: 0x100029A3C, symSize: 0xD8 }
  - { offsetInCU: 0x341EE, offset: 0x97828, size: 0x8, addend: 0x0, symName: __ZNSt3__16vectorIN8nlohmann10basic_jsonINS_3mapES0_NS_12basic_stringIcNS_11char_traitsIcEENS_9allocatorIcEEEEbxydS7_NS1_14adl_serializerENS0_IhNS7_IhEEEEEENS7_ISD_EEE21_ConstructTransactionC1B7v160006ERSF_m, symObjAddr: 0x8D58, symBinAddr: 0x100029B14, symSize: 0x3C }
  - { offsetInCU: 0x34236, offset: 0x97870, size: 0x8, addend: 0x0, symName: __ZNSt3__16vectorIN8nlohmann10basic_jsonINS_3mapES0_NS_12basic_stringIcNS_11char_traitsIcEENS_9allocatorIcEEEEbxydS7_NS1_14adl_serializerENS0_IhNS7_IhEEEEEENS7_ISD_EEE21_ConstructTransactionD1B7v160006Ev, symObjAddr: 0x8D94, symBinAddr: 0x100029B50, symSize: 0x2C }
  - { offsetInCU: 0x34260, offset: 0x9789A, size: 0x8, addend: 0x0, symName: __ZNSt3__16vectorIN8nlohmann10basic_jsonINS_3mapES0_NS_12basic_stringIcNS_11char_traitsIcEENS_9allocatorIcEEEEbxydS7_NS1_14adl_serializerENS0_IhNS7_IhEEEEEENS7_ISD_EEE21_ConstructTransactionC2B7v160006ERSF_m, symObjAddr: 0x8DC0, symBinAddr: 0x100029B7C, symSize: 0x44 }
  - { offsetInCU: 0x342A8, offset: 0x978E2, size: 0x8, addend: 0x0, symName: __ZNSt3__16vectorIN8nlohmann10basic_jsonINS_3mapES0_NS_12basic_stringIcNS_11char_traitsIcEENS_9allocatorIcEEEEbxydS7_NS1_14adl_serializerENS0_IhNS7_IhEEEEEENS7_ISD_EEE21_ConstructTransactionD2B7v160006Ev, symObjAddr: 0x8E04, symBinAddr: 0x100029BC0, symSize: 0x20 }
  - { offsetInCU: 0x342D2, offset: 0x9790C, size: 0x8, addend: 0x0, symName: __ZNKSt3__16vectorIN8nlohmann10basic_jsonINS_3mapES0_NS_12basic_stringIcNS_11char_traitsIcEENS_9allocatorIcEEEEbxydS7_NS1_14adl_serializerENS0_IhNS7_IhEEEEEENS7_ISD_EEE11__recommendB7v160006Em, symObjAddr: 0x8E24, symBinAddr: 0x100029BE0, symSize: 0xB4 }
  - { offsetInCU: 0x34327, offset: 0x97961, size: 0x8, addend: 0x0, symName: __ZNSt3__115__tree_iteratorINS_12__value_typeINS_12basic_stringIcNS_11char_traitsIcEENS_9allocatorIcEEEEN8nlohmann10basic_jsonINS_3mapENS_6vectorES7_bxydS5_NS8_14adl_serializerENSB_IhNS5_IhEEEEEEEEPNS_11__tree_nodeISG_PvEElEppB7v160006Ev, symObjAddr: 0x8F58, symBinAddr: 0x100029C94, symSize: 0x38 }
  - { offsetInCU: 0x3434D, offset: 0x97987, size: 0x8, addend: 0x0, symName: __ZNKSt3__116__tree_node_baseIPvE15__parent_unsafeB7v160006Ev, symObjAddr: 0x908C, symBinAddr: 0x100029DC8, symSize: 0x18 }
  - { offsetInCU: 0x34373, offset: 0x979AD, size: 0x8, addend: 0x0, symName: __ZN8nlohmann10basic_jsonINSt3__13mapENS1_6vectorENS1_12basic_stringIcNS1_11char_traitsIcEENS1_9allocatorIcEEEEbxydS7_NS_14adl_serializerENS3_IhNS7_IhEEEEEC2EOSD_, symObjAddr: 0x90A4, symBinAddr: 0x100029DE0, symSize: 0x8C }
  - { offsetInCU: 0x343AC, offset: 0x979E6, size: 0x8, addend: 0x0, symName: __ZN8nlohmann10basic_jsonINSt3__13mapENS1_6vectorENS1_12basic_stringIcNS1_11char_traitsIcEENS1_9allocatorIcEEEEbxydS7_NS_14adl_serializerENS3_IhNS7_IhEEEEE11set_parentsEv, symObjAddr: 0x9130, symBinAddr: 0x100029E6C, symSize: 0x10 }
  - { offsetInCU: 0x343D2, offset: 0x97A0C, size: 0x8, addend: 0x0, symName: __ZNSt3__16vectorIN8nlohmann10basic_jsonINS_3mapES0_NS_12basic_stringIcNS_11char_traitsIcEENS_9allocatorIcEEEEbxydS7_NS1_14adl_serializerENS0_IhNS7_IhEEEEEENS7_ISD_EEE17__destruct_at_endB7v160006EPSD_, symObjAddr: 0x9140, symBinAddr: 0x100029E7C, symSize: 0x60 }
  - { offsetInCU: 0x34416, offset: 0x97A50, size: 0x8, addend: 0x0, symName: __ZNSt3__16vectorIN8nlohmann10basic_jsonINS_3mapES0_NS_12basic_stringIcNS_11char_traitsIcEENS_9allocatorIcEEEEbxydS7_NS1_14adl_serializerENS0_IhNS7_IhEEEEEENS7_ISD_EEE27__invalidate_iterators_pastB7v160006EPSD_, symObjAddr: 0x91A0, symBinAddr: 0x100029EDC, symSize: 0x14 }
  - { offsetInCU: 0x3444D, offset: 0x97A87, size: 0x8, addend: 0x0, symName: __ZNSt3__16vectorIN8nlohmann10basic_jsonINS_3mapES0_NS_12basic_stringIcNS_11char_traitsIcEENS_9allocatorIcEEEEbxydS7_NS1_14adl_serializerENS0_IhNS7_IhEEEEEENS7_ISD_EEE22__base_destruct_at_endB7v160006EPSD_, symObjAddr: 0x91B4, symBinAddr: 0x100029EF0, symSize: 0x8C }
  - { offsetInCU: 0x34491, offset: 0x97ACB, size: 0x8, addend: 0x0, symName: __ZNKSt3__16vectorIN8nlohmann10basic_jsonINS_3mapES0_NS_12basic_stringIcNS_11char_traitsIcEENS_9allocatorIcEEEEbxydS7_NS1_14adl_serializerENS0_IhNS7_IhEEEEEENS7_ISD_EEE17__annotate_shrinkB7v160006Em, symObjAddr: 0x9240, symBinAddr: 0x100029F7C, symSize: 0xB4 }
  - { offsetInCU: 0x344C6, offset: 0x97B00, size: 0x8, addend: 0x0, symName: __ZNSt3__16vectorIN8nlohmann10basic_jsonINS_3mapES0_NS_12basic_stringIcNS_11char_traitsIcEENS_9allocatorIcEEEEbxydS7_NS1_14adl_serializerENS0_IhNS7_IhEEEEEENS7_ISD_EEE7__clearB7v160006Ev, symObjAddr: 0x92F4, symBinAddr: 0x10002A030, symSize: 0x28 }
  - { offsetInCU: 0x344EC, offset: 0x97B26, size: 0x8, addend: 0x0, symName: __ZNSt3__16__treeINS_12__value_typeINS_12basic_stringIcNS_11char_traitsIcEENS_9allocatorIcEEEEN8nlohmann10basic_jsonINS_3mapENS_6vectorES7_bxydS5_NS8_14adl_serializerENSB_IhNS5_IhEEEEEEEENS_19__map_value_compareIS7_SG_NS_4lessIvEELb1EEENS5_ISG_EEE5clearEv, symObjAddr: 0x931C, symBinAddr: 0x10002A058, symSize: 0x74 }
  - { offsetInCU: 0x34514, offset: 0x97B4E, size: 0x8, addend: 0x0, symName: __ZNSt3__16__treeINS_12__value_typeINS_12basic_stringIcNS_11char_traitsIcEENS_9allocatorIcEEEEN8nlohmann10basic_jsonINS_3mapENS_6vectorES7_bxydS5_NS8_14adl_serializerENSB_IhNS5_IhEEEEEEEENS_19__map_value_compareIS7_SG_NS_4lessIvEELb1EEENS5_ISG_EEE7destroyEPNS_11__tree_nodeISG_PvEE, symObjAddr: 0x9390, symBinAddr: 0x10002A0CC, symSize: 0xAC }
  - { offsetInCU: 0x34560, offset: 0x97B9A, size: 0x8, addend: 0x0, symName: __ZNKSt3__16__treeINS_12__value_typeINS_12basic_stringIcNS_11char_traitsIcEENS_9allocatorIcEEEEN8nlohmann10basic_jsonINS_3mapENS_6vectorES7_bxydS5_NS8_14adl_serializerENSB_IhNS5_IhEEEEEEEENS_19__map_value_compareIS7_SG_NS_4lessIvEELb1EEENS5_ISG_EEE6__rootB7v160006Ev, symObjAddr: 0x943C, symBinAddr: 0x10002A178, symSize: 0x28 }
  - { offsetInCU: 0x34586, offset: 0x97BC0, size: 0x8, addend: 0x0, symName: __ZNSt3__16__treeINS_12__value_typeINS_12basic_stringIcNS_11char_traitsIcEENS_9allocatorIcEEEEN8nlohmann10basic_jsonINS_3mapENS_6vectorES7_bxydS5_NS8_14adl_serializerENSB_IhNS5_IhEEEEEEEENS_19__map_value_compareIS7_SG_NS_4lessIvEELb1EEENS5_ISG_EEE4sizeB7v160006Ev, symObjAddr: 0x9464, symBinAddr: 0x10002A1A0, symSize: 0x28 }
  - { offsetInCU: 0x345AC, offset: 0x97BE6, size: 0x8, addend: 0x0, symName: __ZNSt3__16__treeINS_12__value_typeINS_12basic_stringIcNS_11char_traitsIcEENS_9allocatorIcEEEEN8nlohmann10basic_jsonINS_3mapENS_6vectorES7_bxydS5_NS8_14adl_serializerENSB_IhNS5_IhEEEEEEEENS_19__map_value_compareIS7_SG_NS_4lessIvEELb1EEENS5_ISG_EEE12__node_allocB7v160006Ev, symObjAddr: 0x948C, symBinAddr: 0x10002A1C8, symSize: 0x28 }
  - { offsetInCU: 0x345D2, offset: 0x97C0C, size: 0x8, addend: 0x0, symName: __ZNSt3__116allocator_traitsINS_9allocatorINS_11__tree_nodeINS_12__value_typeINS_12basic_stringIcNS_11char_traitsIcEENS1_IcEEEEN8nlohmann10basic_jsonINS_3mapENS_6vectorES8_bxydS1_NS9_14adl_serializerENSC_IhNS1_IhEEEEEEEEPvEEEEE7destroyB7v160006INS_4pairIKS8_SG_EEvvEEvRSK_PT_, symObjAddr: 0x94B4, symBinAddr: 0x10002A1F0, symSize: 0x28 }
  - { offsetInCU: 0x3460C, offset: 0x97C46, size: 0x8, addend: 0x0, symName: __ZNSt3__122__tree_key_value_typesINS_12__value_typeINS_12basic_stringIcNS_11char_traitsIcEENS_9allocatorIcEEEEN8nlohmann10basic_jsonINS_3mapENS_6vectorES7_bxydS5_NS8_14adl_serializerENSB_IhNS5_IhEEEEEEEEE9__get_ptrB7v160006ERSG_, symObjAddr: 0x94DC, symBinAddr: 0x10002A218, symSize: 0x24 }
  - { offsetInCU: 0x34630, offset: 0x97C6A, size: 0x8, addend: 0x0, symName: __ZNSt3__116allocator_traitsINS_9allocatorINS_11__tree_nodeINS_12__value_typeINS_12basic_stringIcNS_11char_traitsIcEENS1_IcEEEEN8nlohmann10basic_jsonINS_3mapENS_6vectorES8_bxydS1_NS9_14adl_serializerENSC_IhNS1_IhEEEEEEEEPvEEEEE10deallocateB7v160006ERSK_PSJ_m, symObjAddr: 0x9500, symBinAddr: 0x10002A23C, symSize: 0x34 }
  - { offsetInCU: 0x34672, offset: 0x97CAC, size: 0x8, addend: 0x0, symName: __ZNSt3__117__compressed_pairINS_15__tree_end_nodeIPNS_16__tree_node_baseIPvEEEENS_9allocatorINS_11__tree_nodeINS_12__value_typeINS_12basic_stringIcNS_11char_traitsIcEENS7_IcEEEEN8nlohmann10basic_jsonINS_3mapENS_6vectorESE_bxydS7_NSF_14adl_serializerENSI_IhNS7_IhEEEEEEEES3_EEEEE6secondB7v160006Ev, symObjAddr: 0x9534, symBinAddr: 0x10002A270, symSize: 0x24 }
  - { offsetInCU: 0x34698, offset: 0x97CD2, size: 0x8, addend: 0x0, symName: __ZNSt3__122__compressed_pair_elemINS_9allocatorINS_11__tree_nodeINS_12__value_typeINS_12basic_stringIcNS_11char_traitsIcEENS1_IcEEEEN8nlohmann10basic_jsonINS_3mapENS_6vectorES8_bxydS1_NS9_14adl_serializerENSC_IhNS1_IhEEEEEEEEPvEEEELi1ELb1EE5__getB7v160006Ev, symObjAddr: 0x9558, symBinAddr: 0x10002A294, symSize: 0x14 }
